
bootrom-spl.elf:     file format elf64-littleriscv


Disassembly of section .text:

0000000001000000 <_start>:
 1000000:	f14022f3          	csrr	t0,mhartid
 1000004:	02029a63          	bnez	t0,1000038 <_snitch_bl_start>
 1000008:	0040006f          	j	100000c <_cva6_bl_start>

000000000100000c <_cva6_bl_start>:
 100000c:	00000297          	auipc	t0,0x0
 1000010:	01828293          	addi	t0,t0,24 # 1000024 <_cva6_exception>
 1000014:	30529073          	csrw	mtvec,t0
 1000018:	0210011b          	addiw	sp,zero,33
 100001c:	01a11113          	slli	sp,sp,0x1a
 1000020:	72d0c0ef          	jal	ra,100cf4c <main>

0000000001000024 <_cva6_exception>:
 1000024:	00000013          	nop
 1000028:	00000013          	nop
 100002c:	00000013          	nop
 1000030:	00000013          	nop
 1000034:	ff1ff06f          	j	1000024 <_cva6_exception>

0000000001000038 <_snitch_bl_start>:
 1000038:	00000297          	auipc	t0,0x0
 100003c:	02028293          	addi	t0,t0,32 # 1000058 <_snitch_resume>
 1000040:	30529073          	csrw	mtvec,t0
 1000044:	30046073          	csrsi	mstatus,8
 1000048:	30446073          	csrsi	mie,8
 100004c:	000802b7          	lui	t0,0x80
 1000050:	3042a073          	csrs	mie,t0
 1000054:	10500073          	wfi

0000000001000058 <_snitch_resume>:
 1000058:	30047073          	csrci	mstatus,8
 100005c:	30447073          	csrci	mie,8
 1000060:	000802b7          	lui	t0,0x80
 1000064:	3042b073          	csrc	mie,t0
 1000068:	0000100f          	fence.i
 100006c:	01000297          	auipc	t0,0x1000
 1000070:	fa828293          	addi	t0,t0,-88 # 2000014 <__soc_ctrl_scratch0>
 1000074:	0002a283          	lw	t0,0(t0)
 1000078:	01000597          	auipc	a1,0x1000
 100007c:	fa058593          	addi	a1,a1,-96 # 2000018 <__soc_ctrl_scratch1>
 1000080:	0005a583          	lw	a1,0(a1)
 1000084:	f1402573          	csrr	a0,mhartid
 1000088:	000280e7          	jalr	t0
 100008c:	fadff06f          	j	1000038 <_snitch_bl_start>

0000000001000090 <device_tree>:
 1000090:	0dd0                	addi	a2,sp,724
 1000092:	edfe                	sd	t6,216(sp)
 1000094:	0000                	unimp
 1000096:	5a14                	lw	a3,48(a2)
 1000098:	0000                	unimp
 100009a:	3800                	fld	fs0,48(s0)
 100009c:	0000                	unimp
 100009e:	9810                	0x9810
 10000a0:	0000                	unimp
 10000a2:	2800                	fld	fs0,16(s0)
 10000a4:	0000                	unimp
 10000a6:	1100                	addi	s0,sp,160
 10000a8:	0000                	unimp
 10000aa:	1000                	addi	s0,sp,32
 10000ac:	0000                	unimp
 10000ae:	0000                	unimp
 10000b0:	0000                	unimp
 10000b2:	0000c203          	lbu	tp,0(ra)
 10000b6:	6010                	ld	a2,0(s0)
	...
 10000c8:	0000                	unimp
 10000ca:	0100                	addi	s0,sp,128
 10000cc:	0000                	unimp
 10000ce:	0000                	unimp
 10000d0:	0000                	unimp
 10000d2:	0300                	addi	s0,sp,384
 10000d4:	0000                	unimp
 10000d6:	0400                	addi	s0,sp,512
 10000d8:	0000                	unimp
 10000da:	0000                	unimp
 10000dc:	0000                	unimp
 10000de:	0200                	addi	s0,sp,256
 10000e0:	0000                	unimp
 10000e2:	0300                	addi	s0,sp,384
 10000e4:	0000                	unimp
 10000e6:	0400                	addi	s0,sp,512
 10000e8:	0000                	unimp
 10000ea:	0f00                	addi	s0,sp,912
 10000ec:	0000                	unimp
 10000ee:	0200                	addi	s0,sp,256
 10000f0:	0000                	unimp
 10000f2:	0300                	addi	s0,sp,384
 10000f4:	0000                	unimp
 10000f6:	0f00                	addi	s0,sp,912
 10000f8:	0000                	unimp
 10000fa:	1b00                	addi	s0,sp,432
 10000fc:	7465                	lui	s0,0xffff9
 10000fe:	2c68                	fld	fa0,216(s0)
 1000100:	6163636f          	jal	t1,1036716 <__spl_src_start+0x2962e>
 1000104:	796d                	lui	s2,0xffffb
 1000106:	642d                	lui	s0,0xb
 1000108:	7665                	lui	a2,0xffff9
 100010a:	0000                	unimp
 100010c:	0000                	unimp
 100010e:	0300                	addi	s0,sp,384
 1000110:	0000                	unimp
 1000112:	0b00                	addi	s0,sp,400
 1000114:	0000                	unimp
 1000116:	2600                	fld	fs0,8(a2)
 1000118:	7465                	lui	s0,0xffff9
 100011a:	2c68                	fld	fa0,216(s0)
 100011c:	6163636f          	jal	t1,1036732 <__spl_src_start+0x2964a>
 1000120:	796d                	lui	s2,0xffffb
 1000122:	0000                	unimp
 1000124:	0000                	unimp
 1000126:	0100                	addi	s0,sp,128
 1000128:	666e6f63          	bltu	t3,t1,10007a6 <device_tree+0x716>
 100012c:	6769                	lui	a4,0x1a
 100012e:	0000                	unimp
 1000130:	0000                	unimp
 1000132:	0300                	addi	s0,sp,384
 1000134:	0000                	unimp
 1000136:	0400                	addi	s0,sp,512
 1000138:	0000                	unimp
 100013a:	2c00                	fld	fs0,24(s0)
 100013c:	0006                	c.slli	zero,0x1
 100013e:	0000                	unimp
 1000140:	0000                	unimp
 1000142:	0200                	addi	s0,sp,256
 1000144:	0000                	unimp
 1000146:	0100                	addi	s0,sp,128
 1000148:	736f6863          	bltu	t5,s6,1000878 <device_tree+0x7e8>
 100014c:	6e65                	lui	t3,0x19
 100014e:	0000                	unimp
 1000150:	0000                	unimp
 1000152:	0300                	addi	s0,sp,384
 1000154:	0000                	unimp
 1000156:	1b00                	addi	s0,sp,432
 1000158:	0000                	unimp
 100015a:	4600                	lw	s0,8(a2)
 100015c:	636f732f          	0x636f732f
 1000160:	7265732f          	0x7265732f
 1000164:	6169                	addi	sp,sp,208
 1000166:	406c                	lw	a1,68(s0)
 1000168:	3032                	fld	ft0,296(sp)
 100016a:	3230                	fld	fa2,96(a2)
 100016c:	3030                	fld	fa2,96(s0)
 100016e:	3a30                	fld	fa2,112(a2)
 1000170:	3131                	addiw	sp,sp,-20
 1000172:	3235                	addiw	tp,tp,-19
 1000174:	3030                	fld	fa2,96(s0)
 1000176:	0000                	unimp
 1000178:	0000                	unimp
 100017a:	0200                	addi	s0,sp,256
 100017c:	0000                	unimp
 100017e:	0100                	addi	s0,sp,128
 1000180:	656d                	lui	a0,0x1b
 1000182:	6f6d                	lui	t5,0x1b
 1000184:	7972                	ld	s2,312(sp)
 1000186:	3840                	fld	fs0,176(s0)
 1000188:	3030                	fld	fa2,96(s0)
 100018a:	3030                	fld	fa2,96(s0)
 100018c:	3030                	fld	fa2,96(s0)
 100018e:	0030                	addi	a2,sp,8
 1000190:	0000                	unimp
 1000192:	0300                	addi	s0,sp,384
 1000194:	0000                	unimp
 1000196:	0700                	addi	s0,sp,896
 1000198:	0000                	unimp
 100019a:	5200                	lw	s0,32(a2)
 100019c:	656d                	lui	a0,0x1b
 100019e:	6f6d                	lui	t5,0x1b
 10001a0:	7972                	ld	s2,312(sp)
 10001a2:	0000                	unimp
 10001a4:	0000                	unimp
 10001a6:	0300                	addi	s0,sp,384
 10001a8:	0000                	unimp
 10001aa:	1000                	addi	s0,sp,32
 10001ac:	0000                	unimp
 10001ae:	5e00                	lw	s0,56(a2)
 10001b0:	0000                	unimp
 10001b2:	0000                	unimp
 10001b4:	0080                	addi	s0,sp,64
 10001b6:	0000                	unimp
 10001b8:	0000                	unimp
 10001ba:	0000                	unimp
 10001bc:	0080                	addi	s0,sp,64
 10001be:	0000                	unimp
 10001c0:	0000                	unimp
 10001c2:	0200                	addi	s0,sp,256
 10001c4:	0000                	unimp
 10001c6:	0100                	addi	s0,sp,128
 10001c8:	6572                	ld	a0,280(sp)
 10001ca:	76726573          	csrrsi	a0,0x767,4
 10001ce:	6465                	lui	s0,0x19
 10001d0:	6d2d                	lui	s10,0xb
 10001d2:	6d65                	lui	s10,0x19
 10001d4:	0079726f          	jal	tp,10979da <__spl_src_start+0x8a8f2>
 10001d8:	0000                	unimp
 10001da:	0300                	addi	s0,sp,384
 10001dc:	0000                	unimp
 10001de:	0400                	addi	s0,sp,512
 10001e0:	0000                	unimp
 10001e2:	0000                	unimp
 10001e4:	0000                	unimp
 10001e6:	0200                	addi	s0,sp,256
 10001e8:	0000                	unimp
 10001ea:	0300                	addi	s0,sp,384
 10001ec:	0000                	unimp
 10001ee:	0400                	addi	s0,sp,512
 10001f0:	0000                	unimp
 10001f2:	0f00                	addi	s0,sp,912
 10001f4:	0000                	unimp
 10001f6:	0200                	addi	s0,sp,256
 10001f8:	0000                	unimp
 10001fa:	0300                	addi	s0,sp,384
 10001fc:	0000                	unimp
 10001fe:	0000                	unimp
 1000200:	0000                	unimp
 1000202:	6200                	ld	s0,0(a2)
 1000204:	0000                	unimp
 1000206:	0100                	addi	s0,sp,128
 1000208:	7562                	ld	a0,56(sp)
 100020a:	6666                	ld	a2,88(sp)
 100020c:	7265                	lui	tp,0xffff9
 100020e:	6340                	ld	s0,128(a4)
 1000210:	3030                	fld	fa2,96(s0)
 1000212:	3030                	fld	fa2,96(s0)
 1000214:	3030                	fld	fa2,96(s0)
 1000216:	0030                	addi	a2,sp,8
 1000218:	0000                	unimp
 100021a:	0300                	addi	s0,sp,384
 100021c:	0000                	unimp
 100021e:	1000                	addi	s0,sp,32
 1000220:	0000                	unimp
 1000222:	5e00                	lw	s0,56(a2)
 1000224:	0000                	unimp
 1000226:	0000                	unimp
 1000228:	00c0                	addi	s0,sp,68
 100022a:	0000                	unimp
 100022c:	0000                	unimp
 100022e:	0000                	unimp
 1000230:	0010                	0x10
 1000232:	0000                	unimp
 1000234:	0000                	unimp
 1000236:	0300                	addi	s0,sp,384
 1000238:	0000                	unimp
 100023a:	0400                	addi	s0,sp,512
 100023c:	0000                	unimp
 100023e:	6900                	ld	s0,16(a0)
 1000240:	0000                	unimp
 1000242:	0600                	addi	s0,sp,768
 1000244:	0000                	unimp
 1000246:	0200                	addi	s0,sp,256
 1000248:	0000                	unimp
 100024a:	0200                	addi	s0,sp,256
 100024c:	0000                	unimp
 100024e:	0100                	addi	s0,sp,128
 1000250:	73757063          	bgeu	a0,s7,1000970 <device_tree+0x8e0>
 1000254:	0000                	unimp
 1000256:	0000                	unimp
 1000258:	0000                	unimp
 100025a:	0300                	addi	s0,sp,384
 100025c:	0000                	unimp
 100025e:	0400                	addi	s0,sp,512
 1000260:	0000                	unimp
 1000262:	0000                	unimp
 1000264:	0000                	unimp
 1000266:	0100                	addi	s0,sp,128
 1000268:	0000                	unimp
 100026a:	0300                	addi	s0,sp,384
 100026c:	0000                	unimp
 100026e:	0400                	addi	s0,sp,512
 1000270:	0000                	unimp
 1000272:	0f00                	addi	s0,sp,912
 1000274:	0000                	unimp
 1000276:	0000                	unimp
 1000278:	0000                	unimp
 100027a:	0300                	addi	s0,sp,384
 100027c:	0000                	unimp
 100027e:	0400                	addi	s0,sp,512
 1000280:	0000                	unimp
 1000282:	7100                	ld	s0,32(a0)
 1000284:	be00                	fsd	fs0,56(a2)
 1000286:	20bc                	fld	fa5,64(s1)
 1000288:	0000                	unimp
 100028a:	0100                	addi	s0,sp,128
 100028c:	40757063          	bgeu	a0,t2,100068c <device_tree+0x5fc>
 1000290:	0030                	addi	a2,sp,8
 1000292:	0000                	unimp
 1000294:	0000                	unimp
 1000296:	0300                	addi	s0,sp,384
 1000298:	0000                	unimp
 100029a:	0400                	addi	s0,sp,512
 100029c:	0000                	unimp
 100029e:	5200                	lw	s0,32(a2)
 10002a0:	00757063          	bgeu	a0,t2,10002a0 <device_tree+0x210>
 10002a4:	0000                	unimp
 10002a6:	0300                	addi	s0,sp,384
 10002a8:	0000                	unimp
 10002aa:	0500                	addi	s0,sp,640
 10002ac:	0000                	unimp
 10002ae:	8400                	0x8400
 10002b0:	79616b6f          	jal	s6,1016a46 <__spl_src_start+0x995e>
 10002b4:	0000                	unimp
 10002b6:	0000                	unimp
 10002b8:	0000                	unimp
 10002ba:	0300                	addi	s0,sp,384
 10002bc:	0000                	unimp
 10002be:	1100                	addi	s0,sp,160
 10002c0:	0000                	unimp
 10002c2:	1b00                	addi	s0,sp,432
 10002c4:	7465                	lui	s0,0xffff9
 10002c6:	2c68                	fld	fa0,216(s0)
 10002c8:	7261                	lui	tp,0xffff8
 10002ca:	6169                	addi	sp,sp,208
 10002cc:	656e                	ld	a0,216(sp)
 10002ce:	7200                	ld	s0,32(a2)
 10002d0:	7369                	lui	t1,0xffffa
 10002d2:	00007663          	bgeu	zero,zero,10002de <device_tree+0x24e>
 10002d6:	0000                	unimp
 10002d8:	0000                	unimp
 10002da:	0300                	addi	s0,sp,384
 10002dc:	0000                	unimp
 10002de:	0400                	addi	s0,sp,512
 10002e0:	0000                	unimp
 10002e2:	8b00                	0x8b00
 10002e4:	7d01                	lui	s10,0xfffe0
 10002e6:	4078                	lw	a4,68(s0)
 10002e8:	0000                	unimp
 10002ea:	0300                	addi	s0,sp,384
 10002ec:	0000                	unimp
 10002ee:	0b00                	addi	s0,sp,400
 10002f0:	0000                	unimp
 10002f2:	9b00                	0x9b00
 10002f4:	7672                	ld	a2,312(sp)
 10002f6:	3436                	fld	fs0,360(sp)
 10002f8:	6966                	ld	s2,88(sp)
 10002fa:	616d                	addi	sp,sp,240
 10002fc:	6466                	ld	s0,88(sp)
 10002fe:	0000                	unimp
 1000300:	0000                	unimp
 1000302:	0300                	addi	s0,sp,384
 1000304:	0000                	unimp
 1000306:	0b00                	addi	s0,sp,400
 1000308:	0000                	unimp
 100030a:	a500                	fsd	fs0,8(a0)
 100030c:	6972                	ld	s2,280(sp)
 100030e:	2c766373          	csrrsi	t1,0x2c7,12
 1000312:	39337673          	csrrci	a2,0x393,6
 1000316:	0000                	unimp
 1000318:	0000                	unimp
 100031a:	0300                	addi	s0,sp,384
 100031c:	0000                	unimp
 100031e:	0000                	unimp
 1000320:	0000                	unimp
 1000322:	ae00                	fsd	fs0,24(a2)
 1000324:	0000                	unimp
 1000326:	0300                	addi	s0,sp,384
 1000328:	0000                	unimp
 100032a:	0400                	addi	s0,sp,512
 100032c:	0000                	unimp
 100032e:	5e00                	lw	s0,56(a2)
 1000330:	0000                	unimp
 1000332:	0000                	unimp
 1000334:	0000                	unimp
 1000336:	0100                	addi	s0,sp,128
 1000338:	6e69                	lui	t3,0x1a
 100033a:	6574                	ld	a3,200(a0)
 100033c:	7272                	ld	tp,312(sp)
 100033e:	7075                	c.lui	zero,0xffffd
 1000340:	2d74                	fld	fa3,216(a0)
 1000342:	746e6f63          	bltu	t3,t1,1000aa0 <device_tree+0xa10>
 1000346:	6f72                	ld	t5,280(sp)
 1000348:	6c6c                	ld	a1,216(s0)
 100034a:	7265                	lui	tp,0xffff9
 100034c:	0000                	unimp
 100034e:	0000                	unimp
 1000350:	0000                	unimp
 1000352:	0300                	addi	s0,sp,384
 1000354:	0000                	unimp
 1000356:	0400                	addi	s0,sp,512
 1000358:	0000                	unimp
 100035a:	b800                	fsd	fs0,48(s0)
 100035c:	0000                	unimp
 100035e:	0100                	addi	s0,sp,128
 1000360:	0000                	unimp
 1000362:	0300                	addi	s0,sp,384
 1000364:	0000                	unimp
 1000366:	0400                	addi	s0,sp,512
 1000368:	0000                	unimp
 100036a:	0000                	unimp
 100036c:	0000                	unimp
 100036e:	0100                	addi	s0,sp,128
 1000370:	0000                	unimp
 1000372:	0300                	addi	s0,sp,384
 1000374:	0000                	unimp
 1000376:	0000                	unimp
 1000378:	0000                	unimp
 100037a:	c900                	sw	s0,16(a0)
 100037c:	0000                	unimp
 100037e:	0300                	addi	s0,sp,384
 1000380:	0000                	unimp
 1000382:	0f00                	addi	s0,sp,912
 1000384:	0000                	unimp
 1000386:	1b00                	addi	s0,sp,432
 1000388:	6972                	ld	s2,280(sp)
 100038a:	2c766373          	csrrsi	t1,0x2c7,12
 100038e:	2d757063          	bgeu	a0,s7,100064e <device_tree+0x5be>
 1000392:	6e69                	lui	t3,0x1a
 1000394:	6374                	ld	a3,192(a4)
 1000396:	0000                	unimp
 1000398:	0000                	unimp
 100039a:	0300                	addi	s0,sp,384
 100039c:	0000                	unimp
 100039e:	0400                	addi	s0,sp,512
 10003a0:	0000                	unimp
 10003a2:	6900                	ld	s0,16(a0)
 10003a4:	0000                	unimp
 10003a6:	0300                	addi	s0,sp,384
 10003a8:	0000                	unimp
 10003aa:	0200                	addi	s0,sp,256
 10003ac:	0000                	unimp
 10003ae:	0200                	addi	s0,sp,256
 10003b0:	0000                	unimp
 10003b2:	0200                	addi	s0,sp,256
 10003b4:	0000                	unimp
 10003b6:	0100                	addi	s0,sp,128
 10003b8:	6976                	ld	s2,344(sp)
 10003ba:	7472                	ld	s0,312(sp)
 10003bc:	325f 6d35 7a68      	0x7a686d35325f
 10003c2:	0000                	unimp
 10003c4:	0000                	unimp
 10003c6:	0300                	addi	s0,sp,384
 10003c8:	0000                	unimp
 10003ca:	0400                	addi	s0,sp,512
 10003cc:	0000                	unimp
 10003ce:	de00                	sw	s0,56(a2)
 10003d0:	0000                	unimp
 10003d2:	0000                	unimp
 10003d4:	0000                	unimp
 10003d6:	0300                	addi	s0,sp,384
 10003d8:	0000                	unimp
 10003da:	0c00                	addi	s0,sp,528
 10003dc:	0000                	unimp
 10003de:	1b00                	addi	s0,sp,432
 10003e0:	6966                	ld	s2,88(sp)
 10003e2:	6578                	ld	a4,200(a0)
 10003e4:	2d64                	fld	fs1,216(a0)
 10003e6:	636f6c63          	bltu	t5,s6,1000a1e <device_tree+0x98e>
 10003ea:	0000006b          	0x6b
 10003ee:	0300                	addi	s0,sp,384
 10003f0:	0000                	unimp
 10003f2:	0400                	addi	s0,sp,512
 10003f4:	0000                	unimp
 10003f6:	8b00                	0x8b00
 10003f8:	7d01                	lui	s10,0xfffe0
 10003fa:	4078                	lw	a4,68(s0)
 10003fc:	0000                	unimp
 10003fe:	0300                	addi	s0,sp,384
 1000400:	0000                	unimp
 1000402:	0400                	addi	s0,sp,512
 1000404:	0000                	unimp
 1000406:	6900                	ld	s0,16(a0)
 1000408:	0000                	unimp
 100040a:	0200                	addi	s0,sp,256
 100040c:	0000                	unimp
 100040e:	0200                	addi	s0,sp,256
 1000410:	0000                	unimp
 1000412:	0100                	addi	s0,sp,128
 1000414:	00636f73          	csrrsi	t5,0x6,6
 1000418:	0000                	unimp
 100041a:	0300                	addi	s0,sp,384
 100041c:	0000                	unimp
 100041e:	0400                	addi	s0,sp,512
 1000420:	0000                	unimp
 1000422:	0000                	unimp
 1000424:	0000                	unimp
 1000426:	0200                	addi	s0,sp,256
 1000428:	0000                	unimp
 100042a:	0300                	addi	s0,sp,384
 100042c:	0000                	unimp
 100042e:	0400                	addi	s0,sp,512
 1000430:	0000                	unimp
 1000432:	0f00                	addi	s0,sp,912
 1000434:	0000                	unimp
 1000436:	0200                	addi	s0,sp,256
 1000438:	0000                	unimp
 100043a:	0300                	addi	s0,sp,384
 100043c:	0000                	unimp
 100043e:	0b00                	addi	s0,sp,400
 1000440:	0000                	unimp
 1000442:	1b00                	addi	s0,sp,432
 1000444:	706d6973          	csrrsi	s2,0x706,26
 1000448:	656c                	ld	a1,200(a0)
 100044a:	622d                	lui	tp,0xb
 100044c:	7375                	lui	t1,0xffffd
 100044e:	0000                	unimp
 1000450:	0000                	unimp
 1000452:	0300                	addi	s0,sp,384
 1000454:	0000                	unimp
 1000456:	0000                	unimp
 1000458:	0000                	unimp
 100045a:	6200                	ld	s0,0(a2)
 100045c:	0000                	unimp
 100045e:	0100                	addi	s0,sp,128
 1000460:	6564                	ld	s1,200(a0)
 1000462:	7562                	ld	a0,56(sp)
 1000464:	00304067          	0x304067
 1000468:	0000                	unimp
 100046a:	0300                	addi	s0,sp,384
 100046c:	0000                	unimp
 100046e:	1000                	addi	s0,sp,32
 1000470:	0000                	unimp
 1000472:	1b00                	addi	s0,sp,432
 1000474:	6972                	ld	s2,280(sp)
 1000476:	2c766373          	csrrsi	t1,0x2c7,12
 100047a:	6564                	ld	s1,200(a0)
 100047c:	7562                	ld	a0,56(sp)
 100047e:	31302d67          	0x31302d67
 1000482:	00000033          	add	zero,zero,zero
 1000486:	0300                	addi	s0,sp,384
 1000488:	0000                	unimp
 100048a:	0800                	addi	s0,sp,16
 100048c:	0000                	unimp
 100048e:	eb00                	sd	s0,16(a4)
 1000490:	746e6f63          	bltu	t3,t1,1000bee <device_tree+0xb5e>
 1000494:	6f72                	ld	t5,280(sp)
 1000496:	006c                	addi	a1,sp,12
 1000498:	0000                	unimp
 100049a:	0300                	addi	s0,sp,384
 100049c:	0000                	unimp
 100049e:	1000                	addi	s0,sp,32
 10004a0:	0000                	unimp
 10004a2:	5e00                	lw	s0,56(a2)
	...
 10004b0:	0000                	unimp
 10004b2:	0010                	0x10
 10004b4:	0000                	unimp
 10004b6:	0200                	addi	s0,sp,256
 10004b8:	0000                	unimp
 10004ba:	0100                	addi	s0,sp,128
 10004bc:	69726573          	csrrsi	a0,0x697,4
 10004c0:	6c61                	lui	s8,0x18
 10004c2:	3240                	fld	fs0,160(a2)
 10004c4:	3030                	fld	fa2,96(s0)
 10004c6:	3032                	fld	ft0,296(sp)
 10004c8:	3030                	fld	fa2,96(s0)
 10004ca:	0000                	unimp
 10004cc:	0000                	unimp
 10004ce:	0300                	addi	s0,sp,384
 10004d0:	0000                	unimp
 10004d2:	0900                	addi	s0,sp,144
 10004d4:	0000                	unimp
 10004d6:	1b00                	addi	s0,sp,432
 10004d8:	736e                	ld	t1,248(sp)
 10004da:	3631                	addiw	a2,a2,-20
 10004dc:	3535                	addiw	a0,a0,-19
 10004de:	6130                	ld	a2,64(a0)
 10004e0:	0000                	unimp
 10004e2:	0000                	unimp
 10004e4:	0000                	unimp
 10004e6:	0300                	addi	s0,sp,384
 10004e8:	0000                	unimp
 10004ea:	1000                	addi	s0,sp,32
 10004ec:	0000                	unimp
 10004ee:	5e00                	lw	s0,56(a2)
 10004f0:	0000                	unimp
 10004f2:	0000                	unimp
 10004f4:	0002                	c.slli64	zero
 10004f6:	0020                	addi	s0,sp,8
 10004f8:	0000                	unimp
 10004fa:	0000                	unimp
 10004fc:	0000                	unimp
 10004fe:	0010                	0x10
 1000500:	0000                	unimp
 1000502:	0300                	addi	s0,sp,384
 1000504:	0000                	unimp
 1000506:	0400                	addi	s0,sp,512
 1000508:	0000                	unimp
 100050a:	8b00                	0x8b00
 100050c:	7d01                	lui	s10,0xfffe0
 100050e:	4078                	lw	a4,68(s0)
 1000510:	0000                	unimp
 1000512:	0300                	addi	s0,sp,384
 1000514:	0000                	unimp
 1000516:	0400                	addi	s0,sp,512
 1000518:	0000                	unimp
 100051a:	f500                	sd	s0,40(a0)
 100051c:	0100                	addi	s0,sp,128
 100051e:	00c2                	slli	ra,ra,0x10
 1000520:	0000                	unimp
 1000522:	0300                	addi	s0,sp,384
 1000524:	0000                	unimp
 1000526:	0400                	addi	s0,sp,512
 1000528:	0000                	unimp
 100052a:	0301                	addi	t1,t1,0
 100052c:	0000                	unimp
 100052e:	0100                	addi	s0,sp,128
 1000530:	0000                	unimp
 1000532:	0300                	addi	s0,sp,384
 1000534:	0000                	unimp
 1000536:	0400                	addi	s0,sp,512
 1000538:	0000                	unimp
 100053a:	1401                	addi	s0,s0,-32
 100053c:	0000                	unimp
 100053e:	2400                	fld	fs0,8(s0)
 1000540:	0000                	unimp
 1000542:	0300                	addi	s0,sp,384
 1000544:	0000                	unimp
 1000546:	0400                	addi	s0,sp,512
 1000548:	0000                	unimp
 100054a:	1f01                	addi	t5,t5,-32
 100054c:	0000                	unimp
 100054e:	0000                	unimp
 1000550:	0000                	unimp
 1000552:	0300                	addi	s0,sp,384
 1000554:	0000                	unimp
 1000556:	0400                	addi	s0,sp,512
 1000558:	0000                	unimp
 100055a:	2a01                	sext.w	s4,s4
 100055c:	0000                	unimp
 100055e:	0200                	addi	s0,sp,256
 1000560:	0000                	unimp
 1000562:	0300                	addi	s0,sp,384
 1000564:	0000                	unimp
 1000566:	0400                	addi	s0,sp,512
 1000568:	0000                	unimp
 100056a:	3401                	addiw	s0,s0,-32
 100056c:	0000                	unimp
 100056e:	0400                	addi	s0,sp,512
 1000570:	0000                	unimp
 1000572:	0200                	addi	s0,sp,256
 1000574:	0000                	unimp
 1000576:	0100                	addi	s0,sp,128
 1000578:	6974                	ld	a3,208(a0)
 100057a:	656d                	lui	a0,0x1b
 100057c:	4072                	0x4072
 100057e:	3032                	fld	ft0,296(sp)
 1000580:	3630                	fld	fa2,104(a2)
 1000582:	3030                	fld	fa2,96(s0)
 1000584:	0030                	addi	a2,sp,8
 1000586:	0000                	unimp
 1000588:	0000                	unimp
 100058a:	0300                	addi	s0,sp,384
 100058c:	0000                	unimp
 100058e:	0f00                	addi	s0,sp,912
 1000590:	0000                	unimp
 1000592:	1b00                	addi	s0,sp,432
 1000594:	7570                	ld	a2,232(a0)
 1000596:	706c                	ld	a1,224(s0)
 1000598:	612c                	ld	a1,64(a0)
 100059a:	6270                	ld	a2,192(a2)
 100059c:	745f 6d69 7265      	0x72656d69745f
 10005a2:	0000                	unimp
 10005a4:	0000                	unimp
 10005a6:	0300                	addi	s0,sp,384
 10005a8:	0000                	unimp
 10005aa:	0400                	addi	s0,sp,512
 10005ac:	0000                	unimp
 10005ae:	0301                	addi	t1,t1,0
 10005b0:	0000                	unimp
 10005b2:	0100                	addi	s0,sp,128
 10005b4:	0000                	unimp
 10005b6:	0300                	addi	s0,sp,384
 10005b8:	0000                	unimp
 10005ba:	1000                	addi	s0,sp,32
 10005bc:	0000                	unimp
 10005be:	1401                	addi	s0,s0,-32
 10005c0:	0000                	unimp
 10005c2:	6800                	ld	s0,16(s0)
 10005c4:	0000                	unimp
 10005c6:	6900                	ld	s0,16(a0)
 10005c8:	0000                	unimp
 10005ca:	7000                	ld	s0,32(s0)
 10005cc:	0000                	unimp
 10005ce:	7100                	ld	s0,32(a0)
 10005d0:	0000                	unimp
 10005d2:	0300                	addi	s0,sp,384
 10005d4:	0000                	unimp
 10005d6:	1000                	addi	s0,sp,32
 10005d8:	0000                	unimp
 10005da:	5e00                	lw	s0,56(a2)
 10005dc:	0000                	unimp
 10005de:	0000                	unimp
 10005e0:	0002                	c.slli64	zero
 10005e2:	0060                	addi	s0,sp,12
 10005e4:	0000                	unimp
 10005e6:	0000                	unimp
 10005e8:	0000                	unimp
 10005ea:	0010                	0x10
 10005ec:	0000                	unimp
 10005ee:	0300                	addi	s0,sp,384
 10005f0:	0000                	unimp
 10005f2:	0800                	addi	s0,sp,16
 10005f4:	0000                	unimp
 10005f6:	eb00                	sd	s0,16(a4)
 10005f8:	746e6f63          	bltu	t3,t1,1000d56 <device_tree+0xcc6>
 10005fc:	6f72                	ld	t5,280(sp)
 10005fe:	006c                	addi	a1,sp,12
 1000600:	0000                	unimp
 1000602:	0200                	addi	s0,sp,256
 1000604:	0000                	unimp
 1000606:	0100                	addi	s0,sp,128
 1000608:	40697073          	csrci	0x406,18
 100060c:	6334                	ld	a3,64(a4)
 100060e:	3030                	fld	fa2,96(s0)
 1000610:	3030                	fld	fa2,96(s0)
 1000612:	3030                	fld	fa2,96(s0)
 1000614:	0000                	unimp
 1000616:	0000                	unimp
 1000618:	0000                	unimp
 100061a:	0300                	addi	s0,sp,384
 100061c:	0000                	unimp
 100061e:	2a00                	fld	fs0,16(a2)
 1000620:	0000                	unimp
 1000622:	1b00                	addi	s0,sp,432
 1000624:	6c78                	ld	a4,216(s0)
 1000626:	786e                	ld	a6,248(sp)
 1000628:	612c                	ld	a1,64(a0)
 100062a:	6978                	ld	a4,208(a0)
 100062c:	712d                	addi	sp,sp,-288
 100062e:	6175                	addi	sp,sp,368
 1000630:	2d64                	fld	fs1,216(a0)
 1000632:	2d697073          	csrci	0x2d6,18
 1000636:	00322e33          	slt	t3,tp,gp
 100063a:	6c78                	ld	a4,216(s0)
 100063c:	786e                	ld	a6,248(sp)
 100063e:	782c                	ld	a1,112(s0)
 1000640:	7370                	ld	a2,224(a4)
 1000642:	732d                	lui	t1,0xfffeb
 1000644:	6970                	ld	a2,208(a0)
 1000646:	322d                	addiw	tp,tp,-21
 1000648:	302e                	fld	ft0,232(sp)
 100064a:	2e30                	fld	fa2,88(a2)
 100064c:	0061                	c.nop	24
 100064e:	0000                	unimp
 1000650:	0000                	unimp
 1000652:	0300                	addi	s0,sp,384
 1000654:	0000                	unimp
 1000656:	0800                	addi	s0,sp,16
 1000658:	0000                	unimp
 100065a:	4101                	li	sp,0
 100065c:	0000                	unimp
 100065e:	0100                	addi	s0,sp,128
 1000660:	0000                	unimp
 1000662:	0200                	addi	s0,sp,256
 1000664:	0000                	unimp
 1000666:	0300                	addi	s0,sp,384
 1000668:	0000                	unimp
 100066a:	0400                	addi	s0,sp,512
 100066c:	0000                	unimp
 100066e:	5501                	li	a0,-32
 1000670:	0000                	unimp
 1000672:	0200                	addi	s0,sp,256
 1000674:	0000                	unimp
 1000676:	0300                	addi	s0,sp,384
 1000678:	0000                	unimp
 100067a:	1000                	addi	s0,sp,32
 100067c:	0000                	unimp
 100067e:	5e00                	lw	s0,56(a2)
 1000680:	0000                	unimp
 1000682:	0000                	unimp
 1000684:	004c                	addi	a1,sp,4
 1000686:	0000                	unimp
 1000688:	0000                	unimp
 100068a:	0000                	unimp
 100068c:	0100                	addi	s0,sp,128
 100068e:	0000                	unimp
 1000690:	0000                	unimp
 1000692:	0300                	addi	s0,sp,384
 1000694:	0000                	unimp
 1000696:	0400                	addi	s0,sp,512
 1000698:	0000                	unimp
 100069a:	5c01                	li	s8,-32
 100069c:	0000                	unimp
 100069e:	0100                	addi	s0,sp,128
 10006a0:	0000                	unimp
 10006a2:	0300                	addi	s0,sp,384
 10006a4:	0000                	unimp
 10006a6:	0400                	addi	s0,sp,512
 10006a8:	0000                	unimp
 10006aa:	6d01                	0x6d01
 10006ac:	0000                	unimp
 10006ae:	0800                	addi	s0,sp,16
 10006b0:	0000                	unimp
 10006b2:	0300                	addi	s0,sp,384
 10006b4:	0000                	unimp
 10006b6:	0400                	addi	s0,sp,512
 10006b8:	0000                	unimp
 10006ba:	8401                	c.srai64	s0
 10006bc:	0000                	unimp
 10006be:	1000                	addi	s0,sp,32
 10006c0:	0000                	unimp
 10006c2:	0300                	addi	s0,sp,384
 10006c4:	0000                	unimp
 10006c6:	0400                	addi	s0,sp,512
 10006c8:	0000                	unimp
 10006ca:	0000                	unimp
 10006cc:	0000                	unimp
 10006ce:	0100                	addi	s0,sp,128
 10006d0:	0000                	unimp
 10006d2:	0300                	addi	s0,sp,384
 10006d4:	0000                	unimp
 10006d6:	0400                	addi	s0,sp,512
 10006d8:	0000                	unimp
 10006da:	0f00                	addi	s0,sp,912
 10006dc:	0000                	unimp
 10006de:	0000                	unimp
 10006e0:	0000                	unimp
 10006e2:	0100                	addi	s0,sp,128
 10006e4:	6f6e                	ld	t5,216(sp)
 10006e6:	4072                	0x4072
 10006e8:	0030                	addi	a2,sp,8
 10006ea:	0000                	unimp
 10006ec:	0000                	unimp
 10006ee:	0300                	addi	s0,sp,384
 10006f0:	0000                	unimp
 10006f2:	0400                	addi	s0,sp,512
 10006f4:	0000                	unimp
 10006f6:	0000                	unimp
 10006f8:	0000                	unimp
 10006fa:	0100                	addi	s0,sp,128
 10006fc:	0000                	unimp
 10006fe:	0300                	addi	s0,sp,384
 1000700:	0000                	unimp
 1000702:	0400                	addi	s0,sp,512
 1000704:	0000                	unimp
 1000706:	0f00                	addi	s0,sp,912
 1000708:	0000                	unimp
 100070a:	0100                	addi	s0,sp,128
 100070c:	0000                	unimp
 100070e:	0300                	addi	s0,sp,384
 1000710:	0000                	unimp
 1000712:	1100                	addi	s0,sp,160
 1000714:	0000                	unimp
 1000716:	1b00                	addi	s0,sp,432
 1000718:	696d                	lui	s2,0x1b
 100071a:	6e6f7263          	bgeu	t5,t1,1000dfe <device_tree+0xd6e>
 100071e:	6d2c                	ld	a1,88(a0)
 1000720:	3274                	fld	fa3,224(a2)
 1000722:	7135                	addi	sp,sp,-160
 1000724:	3075                	0x3075
 1000726:	6732                	ld	a4,264(sp)
 1000728:	0000                	unimp
 100072a:	0000                	unimp
 100072c:	0000                	unimp
 100072e:	0300                	addi	s0,sp,384
 1000730:	0000                	unimp
 1000732:	0800                	addi	s0,sp,16
 1000734:	0000                	unimp
 1000736:	5e00                	lw	s0,56(a2)
	...
 1000740:	0000                	unimp
 1000742:	0300                	addi	s0,sp,384
 1000744:	0000                	unimp
 1000746:	0400                	addi	s0,sp,512
 1000748:	0000                	unimp
 100074a:	8e01                	sub	a2,a2,s0
 100074c:	7d01                	lui	s10,0xfffe0
 100074e:	4078                	lw	a4,68(s0)
 1000750:	0000                	unimp
 1000752:	0300                	addi	s0,sp,384
 1000754:	0000                	unimp
 1000756:	0400                	addi	s0,sp,512
 1000758:	0000                	unimp
 100075a:	a001                	j	100075a <device_tree+0x6ca>
 100075c:	0000                	unimp
 100075e:	0400                	addi	s0,sp,512
 1000760:	0000                	unimp
 1000762:	0300                	addi	s0,sp,384
 1000764:	0000                	unimp
 1000766:	0400                	addi	s0,sp,512
 1000768:	0000                	unimp
 100076a:	b101                	j	100036a <device_tree+0x2da>
 100076c:	0000                	unimp
 100076e:	0400                	addi	s0,sp,512
 1000770:	0000                	unimp
 1000772:	0300                	addi	s0,sp,384
 1000774:	0000                	unimp
 1000776:	0000                	unimp
 1000778:	0000                	unimp
 100077a:	c201                	beqz	a2,100077a <device_tree+0x6ea>
 100077c:	0000                	unimp
 100077e:	0100                	addi	s0,sp,128
 1000780:	6170                	ld	a2,192(a0)
 1000782:	7472                	ld	s0,312(sp)
 1000784:	7469                	lui	s0,0xffffa
 1000786:	6f69                	lui	t5,0x1a
 1000788:	406e                	0x406e
 100078a:	0030                	addi	a2,sp,8
 100078c:	0000                	unimp
 100078e:	0300                	addi	s0,sp,384
 1000790:	0000                	unimp
 1000792:	0a00                	addi	s0,sp,272
 1000794:	0000                	unimp
 1000796:	d101                	beqz	a0,1000696 <device_tree+0x606>
 1000798:	6962                	ld	s2,24(sp)
 100079a:	7374                	ld	a3,224(a4)
 100079c:	7274                	ld	a3,224(a2)
 100079e:	6165                	addi	sp,sp,112
 10007a0:	006d                	c.nop	27
 10007a2:	0000                	unimp
 10007a4:	0000                	unimp
 10007a6:	0300                	addi	s0,sp,384
 10007a8:	0000                	unimp
 10007aa:	0800                	addi	s0,sp,16
 10007ac:	0000                	unimp
 10007ae:	5e00                	lw	s0,56(a2)
 10007b0:	0000                	unimp
 10007b2:	0000                	unimp
 10007b4:	0006                	c.slli	zero,0x1
 10007b6:	0000                	unimp
 10007b8:	0000                	unimp
 10007ba:	0300                	addi	s0,sp,384
 10007bc:	0000                	unimp
 10007be:	0000                	unimp
 10007c0:	0000                	unimp
 10007c2:	d701                	beqz	a4,10006ca <device_tree+0x63a>
 10007c4:	0000                	unimp
 10007c6:	0200                	addi	s0,sp,256
 10007c8:	0000                	unimp
 10007ca:	0100                	addi	s0,sp,128
 10007cc:	6170                	ld	a2,192(a0)
 10007ce:	7472                	ld	s0,312(sp)
 10007d0:	7469                	lui	s0,0xffffa
 10007d2:	6f69                	lui	t5,0x1a
 10007d4:	406e                	0x406e
 10007d6:	3036                	fld	ft0,360(sp)
 10007d8:	3030                	fld	fa2,96(s0)
 10007da:	3030                	fld	fa2,96(s0)
 10007dc:	0030                	addi	a2,sp,8
 10007de:	0000                	unimp
 10007e0:	0000                	unimp
 10007e2:	0300                	addi	s0,sp,384
 10007e4:	0000                	unimp
 10007e6:	0700                	addi	s0,sp,896
 10007e8:	0000                	unimp
 10007ea:	d101                	beqz	a0,10006ea <device_tree+0x65a>
 10007ec:	2d75                	addiw	s10,s10,29
 10007ee:	6f62                	ld	t5,24(sp)
 10007f0:	0000746f          	jal	s0,10077f0 <__spl_start+0x6300>
 10007f4:	0000                	unimp
 10007f6:	0300                	addi	s0,sp,384
 10007f8:	0000                	unimp
 10007fa:	0800                	addi	s0,sp,16
 10007fc:	0000                	unimp
 10007fe:	5e00                	lw	s0,56(a2)
 1000800:	0006                	c.slli	zero,0x1
 1000802:	0000                	unimp
 1000804:	1000                	addi	s0,sp,32
 1000806:	0000                	unimp
 1000808:	0000                	unimp
 100080a:	0300                	addi	s0,sp,384
 100080c:	0000                	unimp
 100080e:	0000                	unimp
 1000810:	0000                	unimp
 1000812:	d701                	beqz	a4,100071a <device_tree+0x68a>
 1000814:	0000                	unimp
 1000816:	0200                	addi	s0,sp,256
 1000818:	0000                	unimp
 100081a:	0100                	addi	s0,sp,128
 100081c:	6975                	lui	s2,0x1d
 100081e:	616d                	addi	sp,sp,240
 1000820:	36406567          	0x36406567
 1000824:	3031                	0x3031
 1000826:	3030                	fld	fa2,96(s0)
 1000828:	3030                	fld	fa2,96(s0)
 100082a:	0000                	unimp
 100082c:	0000                	unimp
 100082e:	0300                	addi	s0,sp,384
 1000830:	0000                	unimp
 1000832:	0700                	addi	s0,sp,896
 1000834:	0000                	unimp
 1000836:	d101                	beqz	a0,1000736 <device_tree+0x6a6>
 1000838:	6975                	lui	s2,0x1d
 100083a:	616d                	addi	sp,sp,240
 100083c:	00006567          	0x6567
 1000840:	0000                	unimp
 1000842:	0300                	addi	s0,sp,384
 1000844:	0000                	unimp
 1000846:	0800                	addi	s0,sp,16
 1000848:	0000                	unimp
 100084a:	5e00                	lw	s0,56(a2)
 100084c:	1006                	c.slli	zero,0x21
 100084e:	0000                	unimp
 1000850:	0001                	nop
 1000852:	0000                	unimp
 1000854:	0000                	unimp
 1000856:	0300                	addi	s0,sp,384
 1000858:	0000                	unimp
 100085a:	0000                	unimp
 100085c:	0000                	unimp
 100085e:	d701                	beqz	a4,1000766 <device_tree+0x6d6>
 1000860:	0000                	unimp
 1000862:	0200                	addi	s0,sp,256
 1000864:	0000                	unimp
 1000866:	0100                	addi	s0,sp,128
 1000868:	6170                	ld	a2,192(a0)
 100086a:	7472                	ld	s0,312(sp)
 100086c:	7469                	lui	s0,0xffffa
 100086e:	6f69                	lui	t5,0x1a
 1000870:	406e                	0x406e
 1000872:	30303137          	lui	sp,0x30303
 1000876:	3030                	fld	fa2,96(s0)
 1000878:	0030                	addi	a2,sp,8
 100087a:	0000                	unimp
 100087c:	0000                	unimp
 100087e:	0300                	addi	s0,sp,384
 1000880:	0000                	unimp
 1000882:	0b00                	addi	s0,sp,400
 1000884:	0000                	unimp
 1000886:	d101                	beqz	a0,1000786 <device_tree+0x6f6>
 1000888:	6966                	ld	s2,88(sp)
 100088a:	656c                	ld	a1,200(a0)
 100088c:	74737973          	csrrci	s2,0x747,6
 1000890:	6d65                	lui	s10,0x19
 1000892:	0000                	unimp
 1000894:	0000                	unimp
 1000896:	0300                	addi	s0,sp,384
 1000898:	0000                	unimp
 100089a:	0800                	addi	s0,sp,16
 100089c:	0000                	unimp
 100089e:	5e00                	lw	s0,56(a2)
 10008a0:	00001007          	0x1007
 10008a4:	f008                	sd	a0,32(s0)
 10008a6:	0000                	unimp
 10008a8:	0000                	unimp
 10008aa:	0200                	addi	s0,sp,256
 10008ac:	0000                	unimp
 10008ae:	0200                	addi	s0,sp,256
 10008b0:	0000                	unimp
 10008b2:	0200                	addi	s0,sp,256
 10008b4:	0000                	unimp
 10008b6:	0100                	addi	s0,sp,128
 10008b8:	6e696c63          	bltu	s2,t1,1000fb0 <device_tree+0xf20>
 10008bc:	4074                	lw	a3,68(s0)
 10008be:	3034                	fld	fa3,96(s0)
 10008c0:	3030                	fld	fa2,96(s0)
 10008c2:	3030                	fld	fa2,96(s0)
 10008c4:	0030                	addi	a2,sp,8
 10008c6:	0000                	unimp
 10008c8:	0000                	unimp
 10008ca:	0300                	addi	s0,sp,384
 10008cc:	0000                	unimp
 10008ce:	0400                	addi	s0,sp,512
 10008d0:	0000                	unimp
 10008d2:	8b00                	0x8b00
 10008d4:	be00                	fsd	fs0,56(a2)
 10008d6:	20bc                	fld	fa5,64(s1)
 10008d8:	0000                	unimp
 10008da:	0300                	addi	s0,sp,384
 10008dc:	0000                	unimp
 10008de:	0d00                	addi	s0,sp,656
 10008e0:	0000                	unimp
 10008e2:	1b00                	addi	s0,sp,432
 10008e4:	6972                	ld	s2,280(sp)
 10008e6:	2c766373          	csrrsi	t1,0x2c7,12
 10008ea:	6e696c63          	bltu	s2,t1,1000fe2 <device_tree+0xf52>
 10008ee:	3074                	fld	fa3,224(s0)
 10008f0:	0000                	unimp
 10008f2:	0000                	unimp
 10008f4:	0000                	unimp
 10008f6:	0300                	addi	s0,sp,384
 10008f8:	0000                	unimp
 10008fa:	1000                	addi	s0,sp,32
 10008fc:	0000                	unimp
 10008fe:	4101                	li	sp,0
 1000900:	0000                	unimp
 1000902:	0300                	addi	s0,sp,384
 1000904:	0000                	unimp
 1000906:	0300                	addi	s0,sp,384
 1000908:	0000                	unimp
 100090a:	0300                	addi	s0,sp,384
 100090c:	0000                	unimp
 100090e:	0700                	addi	s0,sp,896
 1000910:	0000                	unimp
 1000912:	0300                	addi	s0,sp,384
 1000914:	0000                	unimp
 1000916:	0600                	addi	s0,sp,768
 1000918:	0000                	unimp
 100091a:	eb00                	sd	s0,16(a4)
 100091c:	6e696c63          	bltu	s2,t1,1001014 <device_tree+0xf84>
 1000920:	0074                	addi	a3,sp,12
 1000922:	0000                	unimp
 1000924:	0000                	unimp
 1000926:	0300                	addi	s0,sp,384
 1000928:	0000                	unimp
 100092a:	1000                	addi	s0,sp,32
 100092c:	0000                	unimp
 100092e:	5e00                	lw	s0,56(a2)
 1000930:	0000                	unimp
 1000932:	0000                	unimp
 1000934:	0004                	0x4
 1000936:	0000                	unimp
 1000938:	0000                	unimp
 100093a:	0000                	unimp
 100093c:	1000                	addi	s0,sp,32
 100093e:	0000                	unimp
 1000940:	0000                	unimp
 1000942:	0300                	addi	s0,sp,384
 1000944:	0000                	unimp
 1000946:	0400                	addi	s0,sp,512
 1000948:	0000                	unimp
 100094a:	6900                	ld	s0,16(a0)
 100094c:	0000                	unimp
 100094e:	0900                	addi	s0,sp,144
 1000950:	0000                	unimp
 1000952:	0200                	addi	s0,sp,256
 1000954:	0000                	unimp
 1000956:	0100                	addi	s0,sp,128
 1000958:	6e69                	lui	t3,0x1a
 100095a:	6574                	ld	a3,200(a0)
 100095c:	7272                	ld	tp,312(sp)
 100095e:	7075                	c.lui	zero,0xffffd
 1000960:	2d74                	fld	fa3,216(a0)
 1000962:	746e6f63          	bltu	t3,t1,10010c0 <device_tree+0x1030>
 1000966:	6f72                	ld	t5,280(sp)
 1000968:	6c6c                	ld	a1,216(s0)
 100096a:	7265                	lui	tp,0xffff9
 100096c:	6340                	ld	s0,128(a4)
 100096e:	3030                	fld	fa2,96(s0)
 1000970:	3030                	fld	fa2,96(s0)
 1000972:	3030                	fld	fa2,96(s0)
 1000974:	0000                	unimp
 1000976:	0000                	unimp
 1000978:	0000                	unimp
 100097a:	0300                	addi	s0,sp,384
 100097c:	0000                	unimp
 100097e:	0c00                	addi	s0,sp,528
 1000980:	0000                	unimp
 1000982:	1b00                	addi	s0,sp,432
 1000984:	6972                	ld	s2,280(sp)
 1000986:	2c766373          	csrrsi	t1,0x2c7,12
 100098a:	6c70                	ld	a2,216(s0)
 100098c:	6369                	lui	t1,0x1a
 100098e:	0030                	addi	a2,sp,8
 1000990:	0000                	unimp
 1000992:	0300                	addi	s0,sp,384
 1000994:	0000                	unimp
 1000996:	0400                	addi	s0,sp,512
	...
 10009a0:	0000                	unimp
 10009a2:	0300                	addi	s0,sp,384
 10009a4:	0000                	unimp
 10009a6:	0400                	addi	s0,sp,512
 10009a8:	0000                	unimp
 10009aa:	b800                	fsd	fs0,48(s0)
 10009ac:	0000                	unimp
 10009ae:	0100                	addi	s0,sp,128
 10009b0:	0000                	unimp
 10009b2:	0300                	addi	s0,sp,384
 10009b4:	0000                	unimp
 10009b6:	0000                	unimp
 10009b8:	0000                	unimp
 10009ba:	c900                	sw	s0,16(a0)
 10009bc:	0000                	unimp
 10009be:	0300                	addi	s0,sp,384
 10009c0:	0000                	unimp
 10009c2:	1000                	addi	s0,sp,32
 10009c4:	0000                	unimp
 10009c6:	4101                	li	sp,0
 10009c8:	0000                	unimp
 10009ca:	0300                	addi	s0,sp,384
 10009cc:	0000                	unimp
 10009ce:	0b00                	addi	s0,sp,400
 10009d0:	0000                	unimp
 10009d2:	0300                	addi	s0,sp,384
 10009d4:	0000                	unimp
 10009d6:	0900                	addi	s0,sp,144
 10009d8:	0000                	unimp
 10009da:	0300                	addi	s0,sp,384
 10009dc:	0000                	unimp
 10009de:	0400                	addi	s0,sp,512
 10009e0:	0000                	unimp
 10009e2:	e101                	bnez	a0,10009e2 <device_tree+0x952>
 10009e4:	0000                	unimp
 10009e6:	0600                	addi	s0,sp,768
 10009e8:	0000                	unimp
 10009ea:	0300                	addi	s0,sp,384
 10009ec:	0000                	unimp
 10009ee:	0400                	addi	s0,sp,512
 10009f0:	0000                	unimp
 10009f2:	f401                	bnez	s0,10008fa <device_tree+0x86a>
 10009f4:	0000                	unimp
 10009f6:	4800                	lw	s0,16(s0)
 10009f8:	0000                	unimp
 10009fa:	0300                	addi	s0,sp,384
 10009fc:	0000                	unimp
 10009fe:	1000                	addi	s0,sp,32
 1000a00:	0000                	unimp
 1000a02:	5e00                	lw	s0,56(a2)
 1000a04:	0000                	unimp
 1000a06:	0000                	unimp
 1000a08:	000c                	0xc
 1000a0a:	0000                	unimp
 1000a0c:	0000                	unimp
 1000a0e:	0000                	unimp
 1000a10:	0004                	0x4
 1000a12:	0000                	unimp
 1000a14:	0000                	unimp
 1000a16:	0300                	addi	s0,sp,384
 1000a18:	0000                	unimp
 1000a1a:	0400                	addi	s0,sp,512
 1000a1c:	0000                	unimp
 1000a1e:	6900                	ld	s0,16(a0)
 1000a20:	0000                	unimp
 1000a22:	0100                	addi	s0,sp,128
 1000a24:	0000                	unimp
 1000a26:	0200                	addi	s0,sp,256
 1000a28:	0000                	unimp
 1000a2a:	0100                	addi	s0,sp,128
 1000a2c:	7465                	lui	s0,0xffff9
 1000a2e:	5f68                	lw	a0,124(a4)
 1000a30:	6d64                	ld	s1,216(a0)
 1000a32:	4061                	c.li	zero,24
 1000a34:	6434                	ld	a3,72(s0)
 1000a36:	3030                	fld	fa2,96(s0)
 1000a38:	3030                	fld	fa2,96(s0)
 1000a3a:	3030                	fld	fa2,96(s0)
 1000a3c:	0000                	unimp
 1000a3e:	0000                	unimp
 1000a40:	0000                	unimp
 1000a42:	0300                	addi	s0,sp,384
 1000a44:	0000                	unimp
 1000a46:	0400                	addi	s0,sp,512
 1000a48:	0000                	unimp
 1000a4a:	ff01                	bnez	a4,1000962 <device_tree+0x8d2>
 1000a4c:	0000                	unimp
 1000a4e:	0100                	addi	s0,sp,128
 1000a50:	0000                	unimp
 1000a52:	0300                	addi	s0,sp,384
 1000a54:	0000                	unimp
 1000a56:	0400                	addi	s0,sp,512
 1000a58:	0000                	unimp
 1000a5a:	0000                	unimp
 1000a5c:	0000                	unimp
 1000a5e:	0100                	addi	s0,sp,128
 1000a60:	0000                	unimp
 1000a62:	0300                	addi	s0,sp,384
 1000a64:	0000                	unimp
 1000a66:	0400                	addi	s0,sp,512
 1000a68:	0000                	unimp
 1000a6a:	0f00                	addi	s0,sp,912
 1000a6c:	0000                	unimp
 1000a6e:	0100                	addi	s0,sp,128
 1000a70:	0000                	unimp
 1000a72:	0300                	addi	s0,sp,384
 1000a74:	0000                	unimp
 1000a76:	1400                	addi	s0,sp,544
 1000a78:	0000                	unimp
 1000a7a:	1b00                	addi	s0,sp,432
 1000a7c:	6c78                	ld	a4,216(s0)
 1000a7e:	786e                	ld	a6,248(sp)
 1000a80:	612c                	ld	a1,64(a0)
 1000a82:	6978                	ld	a4,208(a0)
 1000a84:	642d                	lui	s0,0xb
 1000a86:	616d                	addi	sp,sp,240
 1000a88:	312d                	addiw	sp,sp,-21
 1000a8a:	302e                	fld	ft0,232(sp)
 1000a8c:	2e30                	fld	fa2,88(a2)
 1000a8e:	0061                	c.nop	24
 1000a90:	0000                	unimp
 1000a92:	0300                	addi	s0,sp,384
 1000a94:	0000                	unimp
 1000a96:	1000                	addi	s0,sp,32
 1000a98:	0000                	unimp
 1000a9a:	5e00                	lw	s0,56(a2)
 1000a9c:	0000                	unimp
 1000a9e:	0000                	unimp
 1000aa0:	004d                	c.nop	19
 1000aa2:	0000                	unimp
 1000aa4:	0000                	unimp
 1000aa6:	0000                	unimp
 1000aa8:	0100                	addi	s0,sp,128
 1000aaa:	0000                	unimp
 1000aac:	0000                	unimp
 1000aae:	0300                	addi	s0,sp,384
 1000ab0:	0000                	unimp
 1000ab2:	1000                	addi	s0,sp,32
 1000ab4:	0000                	unimp
 1000ab6:	4101                	li	sp,0
 1000ab8:	0000                	unimp
 1000aba:	0100                	addi	s0,sp,128
 1000abc:	0000                	unimp
 1000abe:	0300                	addi	s0,sp,384
 1000ac0:	0000                	unimp
 1000ac2:	0100                	addi	s0,sp,128
 1000ac4:	0000                	unimp
 1000ac6:	0400                	addi	s0,sp,512
 1000ac8:	0000                	unimp
 1000aca:	0300                	addi	s0,sp,384
 1000acc:	0000                	unimp
 1000ace:	0400                	addi	s0,sp,512
 1000ad0:	0000                	unimp
 1000ad2:	0a02                	c.slli64	s4
 1000ad4:	0000                	unimp
 1000ad6:	4000                	lw	s0,0(s0)
 1000ad8:	0000                	unimp
 1000ada:	0300                	addi	s0,sp,384
 1000adc:	0000                	unimp
 1000ade:	0000                	unimp
 1000ae0:	0000                	unimp
 1000ae2:	1902                	slli	s2,s2,0x20
 1000ae4:	0000                	unimp
 1000ae6:	0300                	addi	s0,sp,384
 1000ae8:	0000                	unimp
 1000aea:	0400                	addi	s0,sp,512
 1000aec:	0000                	unimp
 1000aee:	6900                	ld	s0,16(a0)
 1000af0:	0000                	unimp
 1000af2:	0400                	addi	s0,sp,512
 1000af4:	0000                	unimp
 1000af6:	0100                	addi	s0,sp,128
 1000af8:	6d64                	ld	s1,216(a0)
 1000afa:	2d61                	addiw	s10,s10,24
 1000afc:	6e616863          	bltu	sp,t1,10011ec <device_tree+0x115c>
 1000b00:	656e                	ld	a0,216(sp)
 1000b02:	406c                	lw	a1,68(s0)
 1000b04:	6434                	ld	a3,72(s0)
 1000b06:	3030                	fld	fa2,96(s0)
 1000b08:	3030                	fld	fa2,96(s0)
 1000b0a:	3030                	fld	fa2,96(s0)
 1000b0c:	0000                	unimp
 1000b0e:	0000                	unimp
 1000b10:	0000                	unimp
 1000b12:	0300                	addi	s0,sp,384
 1000b14:	0000                	unimp
 1000b16:	1a00                	addi	s0,sp,304
 1000b18:	0000                	unimp
 1000b1a:	1b00                	addi	s0,sp,432
 1000b1c:	6c78                	ld	a4,216(s0)
 1000b1e:	786e                	ld	a6,248(sp)
 1000b20:	612c                	ld	a1,64(a0)
 1000b22:	6978                	ld	a4,208(a0)
 1000b24:	642d                	lui	s0,0xb
 1000b26:	616d                	addi	sp,sp,240
 1000b28:	6d2d                	lui	s10,0xb
 1000b2a:	326d                	addiw	tp,tp,-5
 1000b2c:	68632d73          	csrrs	s10,0x686,t1
 1000b30:	6e61                	lui	t3,0x18
 1000b32:	656e                	ld	a0,216(sp)
 1000b34:	006c                	addi	a1,sp,12
 1000b36:	0000                	unimp
 1000b38:	0000                	unimp
 1000b3a:	0300                	addi	s0,sp,384
 1000b3c:	0000                	unimp
 1000b3e:	0800                	addi	s0,sp,16
 1000b40:	0000                	unimp
 1000b42:	5e00                	lw	s0,56(a2)
	...
 1000b4c:	0000                	unimp
 1000b4e:	0300                	addi	s0,sp,384
 1000b50:	0000                	unimp
 1000b52:	0400                	addi	s0,sp,512
 1000b54:	0000                	unimp
 1000b56:	2902                	fld	fs2,0(sp)
 1000b58:	0000                	unimp
 1000b5a:	0100                	addi	s0,sp,128
 1000b5c:	0000                	unimp
 1000b5e:	0300                	addi	s0,sp,384
 1000b60:	0000                	unimp
 1000b62:	0800                	addi	s0,sp,16
 1000b64:	0000                	unimp
 1000b66:	4101                	li	sp,0
 1000b68:	0000                	unimp
 1000b6a:	0100                	addi	s0,sp,128
 1000b6c:	0000                	unimp
 1000b6e:	0300                	addi	s0,sp,384
 1000b70:	0000                	unimp
 1000b72:	0300                	addi	s0,sp,384
 1000b74:	0000                	unimp
 1000b76:	0400                	addi	s0,sp,512
 1000b78:	0000                	unimp
 1000b7a:	3602                	fld	fa2,32(sp)
 1000b7c:	0000                	unimp
 1000b7e:	2000                	fld	fs0,0(s0)
 1000b80:	0000                	unimp
 1000b82:	0300                	addi	s0,sp,384
 1000b84:	0000                	unimp
 1000b86:	0400                	addi	s0,sp,512
 1000b88:	0000                	unimp
 1000b8a:	4502                	lw	a0,0(sp)
 1000b8c:	0000                	unimp
 1000b8e:	0000                	unimp
 1000b90:	0000                	unimp
 1000b92:	0300                	addi	s0,sp,384
 1000b94:	0000                	unimp
 1000b96:	0000                	unimp
 1000b98:	0000                	unimp
 1000b9a:	5402                	lw	s0,32(sp)
 1000b9c:	0000                	unimp
 1000b9e:	0200                	addi	s0,sp,256
 1000ba0:	0000                	unimp
 1000ba2:	0100                	addi	s0,sp,128
 1000ba4:	6d64                	ld	s1,216(a0)
 1000ba6:	2d61                	addiw	s10,s10,24
 1000ba8:	6e616863          	bltu	sp,t1,1001298 <device_tree+0x1208>
 1000bac:	656e                	ld	a0,216(sp)
 1000bae:	406c                	lw	a1,68(s0)
 1000bb0:	6434                	ld	a3,72(s0)
 1000bb2:	3030                	fld	fa2,96(s0)
 1000bb4:	3030                	fld	fa2,96(s0)
 1000bb6:	00003033          	snez	zero,zero
 1000bba:	0000                	unimp
 1000bbc:	0000                	unimp
 1000bbe:	0300                	addi	s0,sp,384
 1000bc0:	0000                	unimp
 1000bc2:	1a00                	addi	s0,sp,304
 1000bc4:	0000                	unimp
 1000bc6:	1b00                	addi	s0,sp,432
 1000bc8:	6c78                	ld	a4,216(s0)
 1000bca:	786e                	ld	a6,248(sp)
 1000bcc:	612c                	ld	a1,64(a0)
 1000bce:	6978                	ld	a4,208(a0)
 1000bd0:	642d                	lui	s0,0xb
 1000bd2:	616d                	addi	sp,sp,240
 1000bd4:	732d                	lui	t1,0xfffeb
 1000bd6:	6d32                	ld	s10,264(sp)
 1000bd8:	2d6d                	addiw	s10,s10,27
 1000bda:	6e616863          	bltu	sp,t1,10012ca <device_tree+0x123a>
 1000bde:	656e                	ld	a0,216(sp)
 1000be0:	006c                	addi	a1,sp,12
 1000be2:	0000                	unimp
 1000be4:	0000                	unimp
 1000be6:	0300                	addi	s0,sp,384
 1000be8:	0000                	unimp
 1000bea:	0800                	addi	s0,sp,16
 1000bec:	0000                	unimp
 1000bee:	5e00                	lw	s0,56(a2)
	...
 1000bf8:	0000                	unimp
 1000bfa:	0300                	addi	s0,sp,384
 1000bfc:	0000                	unimp
 1000bfe:	0400                	addi	s0,sp,512
 1000c00:	0000                	unimp
 1000c02:	2902                	fld	fs2,0(sp)
 1000c04:	0000                	unimp
 1000c06:	0100                	addi	s0,sp,128
 1000c08:	0000                	unimp
 1000c0a:	0300                	addi	s0,sp,384
 1000c0c:	0000                	unimp
 1000c0e:	0800                	addi	s0,sp,16
 1000c10:	0000                	unimp
 1000c12:	4101                	li	sp,0
 1000c14:	0000                	unimp
 1000c16:	0100                	addi	s0,sp,128
 1000c18:	0000                	unimp
 1000c1a:	0400                	addi	s0,sp,512
 1000c1c:	0000                	unimp
 1000c1e:	0300                	addi	s0,sp,384
 1000c20:	0000                	unimp
 1000c22:	0400                	addi	s0,sp,512
 1000c24:	0000                	unimp
 1000c26:	3602                	fld	fa2,32(sp)
 1000c28:	0000                	unimp
 1000c2a:	2000                	fld	fs0,0(s0)
 1000c2c:	0000                	unimp
 1000c2e:	0300                	addi	s0,sp,384
 1000c30:	0000                	unimp
 1000c32:	0400                	addi	s0,sp,512
 1000c34:	0000                	unimp
 1000c36:	4502                	lw	a0,0(sp)
 1000c38:	0000                	unimp
 1000c3a:	0000                	unimp
 1000c3c:	0000                	unimp
 1000c3e:	0300                	addi	s0,sp,384
 1000c40:	0000                	unimp
 1000c42:	0000                	unimp
 1000c44:	0000                	unimp
 1000c46:	5402                	lw	s0,32(sp)
 1000c48:	0000                	unimp
 1000c4a:	0200                	addi	s0,sp,256
 1000c4c:	0000                	unimp
 1000c4e:	0200                	addi	s0,sp,256
 1000c50:	0000                	unimp
 1000c52:	0100                	addi	s0,sp,128
 1000c54:	7465                	lui	s0,0xffff9
 1000c56:	3068                	fld	fa0,224(s0)
 1000c58:	3440                	fld	fs0,168(s0)
 1000c5a:	30303463          	0x30303463
 1000c5e:	3030                	fld	fa2,96(s0)
 1000c60:	0030                	addi	a2,sp,8
 1000c62:	0000                	unimp
 1000c64:	0000                	unimp
 1000c66:	0300                	addi	s0,sp,384
 1000c68:	0000                	unimp
 1000c6a:	1900                	addi	s0,sp,176
 1000c6c:	0000                	unimp
 1000c6e:	1b00                	addi	s0,sp,432
 1000c70:	6c78                	ld	a4,216(s0)
 1000c72:	786e                	ld	a6,248(sp)
 1000c74:	612c                	ld	a1,64(a0)
 1000c76:	6978                	ld	a4,208(a0)
 1000c78:	652d                	lui	a0,0xb
 1000c7a:	6874                	ld	a3,208(s0)
 1000c7c:	7265                	lui	tp,0xffff9
 1000c7e:	656e                	ld	a0,216(sp)
 1000c80:	2d74                	fld	fa3,216(a0)
 1000c82:	2e31                	addiw	t3,t3,12
 1000c84:	3030                	fld	fa2,96(s0)
 1000c86:	612e                	ld	sp,200(sp)
 1000c88:	0000                	unimp
 1000c8a:	0000                	unimp
 1000c8c:	0000                	unimp
 1000c8e:	0300                	addi	s0,sp,384
 1000c90:	0000                	unimp
 1000c92:	1000                	addi	s0,sp,32
 1000c94:	0000                	unimp
 1000c96:	5e00                	lw	s0,56(a2)
 1000c98:	0000                	unimp
 1000c9a:	0000                	unimp
 1000c9c:	404c                	lw	a1,4(s0)
 1000c9e:	0000                	unimp
 1000ca0:	0000                	unimp
 1000ca2:	0000                	unimp
 1000ca4:	0400                	addi	s0,sp,512
 1000ca6:	0000                	unimp
 1000ca8:	0000                	unimp
 1000caa:	0300                	addi	s0,sp,384
 1000cac:	0000                	unimp
 1000cae:	0800                	addi	s0,sp,16
 1000cb0:	0000                	unimp
 1000cb2:	5501                	li	a0,-32
 1000cb4:	0000                	unimp
 1000cb6:	0200                	addi	s0,sp,256
 1000cb8:	0000                	unimp
 1000cba:	0200                	addi	s0,sp,256
 1000cbc:	0000                	unimp
 1000cbe:	0300                	addi	s0,sp,384
 1000cc0:	0000                	unimp
 1000cc2:	1800                	addi	s0,sp,48
 1000cc4:	0000                	unimp
 1000cc6:	6502                	ld	a0,0(sp)
 1000cc8:	78615f73          	csrrwi	t5,0x786,2
 1000ccc:	5f69                	li	t5,-6
 1000cce:	696c                	ld	a1,208(a0)
 1000cd0:	6574                	ld	a3,200(a0)
 1000cd2:	635f 6b6c 6100      	0x61006b6c635f
 1000cd8:	6978                	ld	a4,208(a0)
 1000cda:	6c635f73          	csrrwi	t5,0x6c6,6
 1000cde:	0000006b          	0x6b
 1000ce2:	0300                	addi	s0,sp,384
 1000ce4:	0000                	unimp
 1000ce6:	1000                	addi	s0,sp,32
 1000ce8:	0000                	unimp
 1000cea:	4101                	li	sp,0
 1000cec:	0000                	unimp
 1000cee:	0100                	addi	s0,sp,128
 1000cf0:	0000                	unimp
 1000cf2:	0100                	addi	s0,sp,128
 1000cf4:	0000                	unimp
 1000cf6:	0100                	addi	s0,sp,128
 1000cf8:	0000                	unimp
 1000cfa:	0600                	addi	s0,sp,768
 1000cfc:	0000                	unimp
 1000cfe:	0300                	addi	s0,sp,384
 1000d00:	0000                	unimp
 1000d02:	0600                	addi	s0,sp,768
 1000d04:	0000                	unimp
 1000d06:	7102                	ld	sp,32(sp)
 1000d08:	0a00                	addi	s0,sp,272
 1000d0a:	0435                	addi	s0,s0,13
 1000d0c:	52e1                	li	t0,-8
 1000d0e:	0000                	unimp
 1000d10:	0000                	unimp
 1000d12:	0300                	addi	s0,sp,384
 1000d14:	0000                	unimp
 1000d16:	0600                	addi	s0,sp,768
 1000d18:	0000                	unimp
 1000d1a:	7702                	ld	a4,32(sp)
 1000d1c:	0a00                	addi	s0,sp,272
 1000d1e:	0435                	addi	s0,s0,13
 1000d20:	52e1                	li	t0,-8
 1000d22:	0000                	unimp
 1000d24:	0000                	unimp
 1000d26:	0300                	addi	s0,sp,384
 1000d28:	0000                	unimp
 1000d2a:	0800                	addi	s0,sp,16
 1000d2c:	0000                	unimp
 1000d2e:	5200                	lw	s0,32(a2)
 1000d30:	656e                	ld	a0,216(sp)
 1000d32:	7774                	ld	a3,232(a4)
 1000d34:	006b726f          	jal	tp,10b7d3a <__spl_src_start+0xaac52>
 1000d38:	0000                	unimp
 1000d3a:	0300                	addi	s0,sp,384
 1000d3c:	0000                	unimp
 1000d3e:	0400                	addi	s0,sp,512
 1000d40:	0000                	unimp
 1000d42:	8302                	jr	t1
 1000d44:	0000                	unimp
 1000d46:	0400                	addi	s0,sp,512
 1000d48:	0000                	unimp
 1000d4a:	0300                	addi	s0,sp,384
 1000d4c:	0000                	unimp
 1000d4e:	0400                	addi	s0,sp,512
 1000d50:	0000                	unimp
 1000d52:	9702                	jalr	a4
 1000d54:	0000                	unimp
 1000d56:	0400                	addi	s0,sp,512
 1000d58:	0000                	unimp
 1000d5a:	0300                	addi	s0,sp,384
 1000d5c:	0000                	unimp
 1000d5e:	0400                	addi	s0,sp,512
 1000d60:	0000                	unimp
 1000d62:	b302                	fsd	ft0,416(sp)
 1000d64:	0000                	unimp
 1000d66:	0500                	addi	s0,sp,640
 1000d68:	0000                	unimp
 1000d6a:	0300                	addi	s0,sp,384
 1000d6c:	0000                	unimp
 1000d6e:	0600                	addi	s0,sp,768
 1000d70:	0000                	unimp
 1000d72:	be02                	fsd	ft0,312(sp)
 1000d74:	696d6773          	csrrsi	a4,0x696,26
 1000d78:	0069                	c.nop	26
 1000d7a:	0000                	unimp
 1000d7c:	0000                	unimp
 1000d7e:	0300                	addi	s0,sp,384
 1000d80:	0000                	unimp
 1000d82:	0400                	addi	s0,sp,512
 1000d84:	0000                	unimp
 1000d86:	c702                	sw	zero,140(sp)
 1000d88:	0000                	unimp
 1000d8a:	0000                	unimp
 1000d8c:	0000                	unimp
 1000d8e:	0300                	addi	s0,sp,384
 1000d90:	0000                	unimp
 1000d92:	0400                	addi	s0,sp,512
 1000d94:	0000                	unimp
 1000d96:	d402                	sw	zero,40(sp)
 1000d98:	0000                	unimp
 1000d9a:	0200                	addi	s0,sp,256
 1000d9c:	0000                	unimp
 1000d9e:	0300                	addi	s0,sp,384
 1000da0:	0000                	unimp
 1000da2:	0400                	addi	s0,sp,512
 1000da4:	0000                	unimp
 1000da6:	e002                	sd	zero,0(sp)
 1000da8:	0000                	unimp
 1000daa:	0010                	0x10
 1000dac:	0000                	unimp
 1000dae:	0300                	addi	s0,sp,384
 1000db0:	0000                	unimp
 1000db2:	0400                	addi	s0,sp,512
 1000db4:	0000                	unimp
 1000db6:	eb02                	sd	zero,400(sp)
 1000db8:	0000                	unimp
 1000dba:	0200                	addi	s0,sp,256
 1000dbc:	0000                	unimp
 1000dbe:	0300                	addi	s0,sp,384
 1000dc0:	0000                	unimp
 1000dc2:	0400                	addi	s0,sp,512
 1000dc4:	0000                	unimp
 1000dc6:	f702                	sd	zero,424(sp)
 1000dc8:	0000                	unimp
 1000dca:	0010                	0x10
 1000dcc:	0000                	unimp
 1000dce:	0100                	addi	s0,sp,128
 1000dd0:	646d                	lui	s0,0x1b
 1000dd2:	6f69                	lui	t5,0x1a
 1000dd4:	0000                	unimp
 1000dd6:	0000                	unimp
 1000dd8:	0000                	unimp
 1000dda:	0300                	addi	s0,sp,384
 1000ddc:	0000                	unimp
 1000dde:	0400                	addi	s0,sp,512
 1000de0:	0000                	unimp
 1000de2:	0000                	unimp
 1000de4:	0000                	unimp
 1000de6:	0100                	addi	s0,sp,128
 1000de8:	0000                	unimp
 1000dea:	0300                	addi	s0,sp,384
 1000dec:	0000                	unimp
 1000dee:	0400                	addi	s0,sp,512
 1000df0:	0000                	unimp
 1000df2:	0f00                	addi	s0,sp,912
 1000df4:	0000                	unimp
 1000df6:	0000                	unimp
 1000df8:	0000                	unimp
 1000dfa:	0100                	addi	s0,sp,128
 1000dfc:	7465                	lui	s0,0xffff9
 1000dfe:	6568                	ld	a0,200(a0)
 1000e00:	6e72                	ld	t3,280(sp)
 1000e02:	7465                	lui	s0,0xffff9
 1000e04:	702d                	c.lui	zero,0xfffeb
 1000e06:	7968                	ld	a0,240(a0)
 1000e08:	3040                	fld	fs0,160(s0)
 1000e0a:	0000                	unimp
 1000e0c:	0000                	unimp
 1000e0e:	0300                	addi	s0,sp,384
 1000e10:	0000                	unimp
 1000e12:	0400                	addi	s0,sp,512
 1000e14:	0000                	unimp
 1000e16:	00000203          	lb	tp,0(zero) # 0 <_start-0x1000000>
 1000e1a:	0100                	addi	s0,sp,128
 1000e1c:	0000                	unimp
 1000e1e:	0300                	addi	s0,sp,384
 1000e20:	0000                	unimp
 1000e22:	0d00                	addi	s0,sp,656
 1000e24:	0000                	unimp
 1000e26:	5200                	lw	s0,32(a2)
 1000e28:	7465                	lui	s0,0xffff9
 1000e2a:	6568                	ld	a0,200(a0)
 1000e2c:	6e72                	ld	t3,280(sp)
 1000e2e:	7465                	lui	s0,0xffff9
 1000e30:	702d                	c.lui	zero,0xfffeb
 1000e32:	7968                	ld	a0,240(a0)
 1000e34:	0000                	unimp
 1000e36:	0000                	unimp
 1000e38:	0000                	unimp
 1000e3a:	0300                	addi	s0,sp,384
 1000e3c:	0000                	unimp
 1000e3e:	0400                	addi	s0,sp,512
 1000e40:	0000                	unimp
 1000e42:	5e00                	lw	s0,56(a2)
 1000e44:	0000                	unimp
 1000e46:	0000                	unimp
 1000e48:	0000                	unimp
 1000e4a:	0200                	addi	s0,sp,256
 1000e4c:	0000                	unimp
 1000e4e:	0100                	addi	s0,sp,128
 1000e50:	7465                	lui	s0,0xffff9
 1000e52:	6568                	ld	a0,200(a0)
 1000e54:	6e72                	ld	t3,280(sp)
 1000e56:	7465                	lui	s0,0xffff9
 1000e58:	702d                	c.lui	zero,0xfffeb
 1000e5a:	7968                	ld	a0,240(a0)
 1000e5c:	3340                	fld	fs0,160(a4)
 1000e5e:	0000                	unimp
 1000e60:	0000                	unimp
 1000e62:	0300                	addi	s0,sp,384
 1000e64:	0000                	unimp
 1000e66:	1b00                	addi	s0,sp,432
 1000e68:	0000                	unimp
 1000e6a:	1b00                	addi	s0,sp,432
 1000e6c:	7465                	lui	s0,0xffff9
 1000e6e:	6568                	ld	a0,200(a0)
 1000e70:	6e72                	ld	t3,280(sp)
 1000e72:	7465                	lui	s0,0xffff9
 1000e74:	702d                	c.lui	zero,0xfffeb
 1000e76:	7968                	ld	a0,240(a0)
 1000e78:	692d                	lui	s2,0xb
 1000e7a:	6565                	lui	a0,0x19
 1000e7c:	3865                	addiw	a6,a6,-7
 1000e7e:	3230                	fld	fa2,96(a2)
 1000e80:	332e                	fld	ft6,232(sp)
 1000e82:	632d                	lui	t1,0xb
 1000e84:	3232                	fld	ft4,296(sp)
 1000e86:	0000                	unimp
 1000e88:	0000                	unimp
 1000e8a:	0300                	addi	s0,sp,384
 1000e8c:	0000                	unimp
 1000e8e:	0400                	addi	s0,sp,512
 1000e90:	0000                	unimp
 1000e92:	5e00                	lw	s0,56(a2)
 1000e94:	0000                	unimp
 1000e96:	0300                	addi	s0,sp,384
 1000e98:	0000                	unimp
 1000e9a:	0300                	addi	s0,sp,384
 1000e9c:	0000                	unimp
 1000e9e:	0400                	addi	s0,sp,512
 1000ea0:	0000                	unimp
 1000ea2:	00000203          	lb	tp,0(zero) # 0 <_start-0x1000000>
 1000ea6:	0100                	addi	s0,sp,128
 1000ea8:	0000                	unimp
 1000eaa:	0300                	addi	s0,sp,384
 1000eac:	0000                	unimp
 1000eae:	0d00                	addi	s0,sp,656
 1000eb0:	0000                	unimp
 1000eb2:	5200                	lw	s0,32(a2)
 1000eb4:	7465                	lui	s0,0xffff9
 1000eb6:	6568                	ld	a0,200(a0)
 1000eb8:	6e72                	ld	t3,280(sp)
 1000eba:	7465                	lui	s0,0xffff9
 1000ebc:	702d                	c.lui	zero,0xfffeb
 1000ebe:	7968                	ld	a0,240(a0)
 1000ec0:	0000                	unimp
 1000ec2:	0000                	unimp
 1000ec4:	0000                	unimp
 1000ec6:	0300                	addi	s0,sp,384
 1000ec8:	0000                	unimp
 1000eca:	0000                	unimp
 1000ecc:	0000                	unimp
 1000ece:	00000d03          	lb	s10,0(zero) # 0 <_start-0x1000000>
 1000ed2:	0300                	addi	s0,sp,384
 1000ed4:	0000                	unimp
 1000ed6:	0000                	unimp
 1000ed8:	0000                	unimp
 1000eda:	00002e03          	lw	t3,0(zero) # 0 <_start-0x1000000>
 1000ede:	0300                	addi	s0,sp,384
 1000ee0:	0000                	unimp
 1000ee2:	0400                	addi	s0,sp,512
 1000ee4:	0000                	unimp
 1000ee6:	6900                	ld	s0,16(a0)
 1000ee8:	0000                	unimp
 1000eea:	0500                	addi	s0,sp,640
 1000eec:	0000                	unimp
 1000eee:	0200                	addi	s0,sp,256
 1000ef0:	0000                	unimp
 1000ef2:	0200                	addi	s0,sp,256
 1000ef4:	0000                	unimp
 1000ef6:	0200                	addi	s0,sp,256
 1000ef8:	0000                	unimp
 1000efa:	0100                	addi	s0,sp,128
 1000efc:	2d636f73          	csrrsi	t5,0x2d6,6
 1000f00:	746e6f63          	bltu	t3,t1,100165e <__spl_start+0x16e>
 1000f04:	6f72                	ld	t5,280(sp)
 1000f06:	406c                	lw	a1,68(s0)
 1000f08:	3032                	fld	ft0,296(sp)
 1000f0a:	3030                	fld	fa2,96(s0)
 1000f0c:	3030                	fld	fa2,96(s0)
 1000f0e:	0030                	addi	a2,sp,8
 1000f10:	0000                	unimp
 1000f12:	0300                	addi	s0,sp,384
 1000f14:	0000                	unimp
 1000f16:	1700                	addi	s0,sp,928
 1000f18:	0000                	unimp
 1000f1a:	1b00                	addi	s0,sp,432
 1000f1c:	7465                	lui	s0,0xffff9
 1000f1e:	2c68                	fld	fa0,216(s0)
 1000f20:	6163636f          	jal	t1,1037536 <__spl_src_start+0x2a44e>
 1000f24:	796d                	lui	s2,0xffffb
 1000f26:	732d                	lui	t1,0xfffeb
 1000f28:	632d636f          	jal	t1,10d755a <__spl_src_start+0xca472>
 1000f2c:	72746e6f          	jal	t3,1047e52 <__spl_src_start+0x3ad6a>
 1000f30:	00006c6f          	jal	s8,1006f30 <__spl_start+0x5a40>
 1000f34:	0000                	unimp
 1000f36:	0300                	addi	s0,sp,384
 1000f38:	0000                	unimp
 1000f3a:	0c00                	addi	s0,sp,528
 1000f3c:	0000                	unimp
 1000f3e:	eb00                	sd	s0,16(a4)
 1000f40:	2d636f73          	csrrsi	t5,0x2d6,6
 1000f44:	746e6f63          	bltu	t3,t1,10016a2 <__spl_start+0x1b2>
 1000f48:	6f72                	ld	t5,280(sp)
 1000f4a:	006c                	addi	a1,sp,12
 1000f4c:	0000                	unimp
 1000f4e:	0300                	addi	s0,sp,384
 1000f50:	0000                	unimp
 1000f52:	1000                	addi	s0,sp,32
 1000f54:	0000                	unimp
 1000f56:	5e00                	lw	s0,56(a2)
 1000f58:	0000                	unimp
 1000f5a:	0000                	unimp
 1000f5c:	0002                	c.slli64	zero
	...
 1000f66:	0010                	0x10
 1000f68:	0000                	unimp
 1000f6a:	0300                	addi	s0,sp,384
 1000f6c:	0000                	unimp
 1000f6e:	0400                	addi	s0,sp,512
 1000f70:	0000                	unimp
 1000f72:	6900                	ld	s0,16(a0)
 1000f74:	0000                	unimp
 1000f76:	0700                	addi	s0,sp,896
 1000f78:	0000                	unimp
 1000f7a:	0200                	addi	s0,sp,256
 1000f7c:	0000                	unimp
 1000f7e:	0100                	addi	s0,sp,128
 1000f80:	7571                	lui	a0,0xffffc
 1000f82:	6461                	lui	s0,0x18
 1000f84:	6172                	ld	sp,280(sp)
 1000f86:	746e                	ld	s0,248(sp)
 1000f88:	632d                	lui	t1,0xb
 1000f8a:	72746e6f          	jal	t3,1047eb0 <__spl_src_start+0x3adc8>
 1000f8e:	62406c6f          	jal	s8,10075b2 <__spl_start+0x60c2>
 1000f92:	3030                	fld	fa2,96(s0)
 1000f94:	3030                	fld	fa2,96(s0)
 1000f96:	3030                	fld	fa2,96(s0)
 1000f98:	0000                	unimp
 1000f9a:	0000                	unimp
 1000f9c:	0000                	unimp
 1000f9e:	0300                	addi	s0,sp,384
 1000fa0:	0000                	unimp
 1000fa2:	1c00                	addi	s0,sp,560
 1000fa4:	0000                	unimp
 1000fa6:	1b00                	addi	s0,sp,432
 1000fa8:	7465                	lui	s0,0xffff9
 1000faa:	2c68                	fld	fa0,216(s0)
 1000fac:	6163636f          	jal	t1,10375c2 <__spl_src_start+0x2a4da>
 1000fb0:	796d                	lui	s2,0xffffb
 1000fb2:	712d                	addi	sp,sp,-288
 1000fb4:	6175                	addi	sp,sp,368
 1000fb6:	7264                	ld	s1,224(a2)
 1000fb8:	6e61                	lui	t3,0x18
 1000fba:	2d74                	fld	fa3,216(a0)
 1000fbc:	746e6f63          	bltu	t3,t1,100171a <__spl_start+0x22a>
 1000fc0:	6f72                	ld	t5,280(sp)
 1000fc2:	006c                	addi	a1,sp,12
 1000fc4:	0000                	unimp
 1000fc6:	0300                	addi	s0,sp,384
 1000fc8:	0000                	unimp
 1000fca:	1100                	addi	s0,sp,160
 1000fcc:	0000                	unimp
 1000fce:	eb00                	sd	s0,16(a4)
 1000fd0:	7571                	lui	a0,0xffffc
 1000fd2:	6461                	lui	s0,0x18
 1000fd4:	6172                	ld	sp,280(sp)
 1000fd6:	746e                	ld	s0,248(sp)
 1000fd8:	632d                	lui	t1,0xb
 1000fda:	72746e6f          	jal	t3,1047f00 <__spl_src_start+0x3ae18>
 1000fde:	00006c6f          	jal	s8,1006fde <__spl_start+0x5aee>
 1000fe2:	0000                	unimp
 1000fe4:	0000                	unimp
 1000fe6:	0300                	addi	s0,sp,384
 1000fe8:	0000                	unimp
 1000fea:	1000                	addi	s0,sp,32
 1000fec:	0000                	unimp
 1000fee:	5e00                	lw	s0,56(a2)
 1000ff0:	0000                	unimp
 1000ff2:	0000                	unimp
 1000ff4:	0000000b          	0xb
 1000ff8:	0000                	unimp
 1000ffa:	0000                	unimp
 1000ffc:	0100                	addi	s0,sp,128
 1000ffe:	0000                	unimp
 1001000:	0000                	unimp
 1001002:	0300                	addi	s0,sp,384
 1001004:	0000                	unimp
 1001006:	0400                	addi	s0,sp,512
 1001008:	0000                	unimp
 100100a:	6900                	ld	s0,16(a0)
 100100c:	0000                	unimp
 100100e:	0800                	addi	s0,sp,16
 1001010:	0000                	unimp
 1001012:	0200                	addi	s0,sp,256
 1001014:	0000                	unimp
 1001016:	0100                	addi	s0,sp,128
 1001018:	74696e73          	csrrsi	t3,0x746,18
 100101c:	632d6863          	bltu	s10,s2,100164c <__spl_start+0x15c>
 1001020:	756c                	ld	a1,232(a0)
 1001022:	72657473          	csrrci	s0,0x726,10
 1001026:	3140                	fld	fs0,160(a0)
 1001028:	3030                	fld	fa2,96(s0)
 100102a:	3030                	fld	fa2,96(s0)
 100102c:	3030                	fld	fa2,96(s0)
 100102e:	0030                	addi	a2,sp,8
 1001030:	0000                	unimp
 1001032:	0300                	addi	s0,sp,384
 1001034:	0000                	unimp
 1001036:	1300                	addi	s0,sp,416
 1001038:	0000                	unimp
 100103a:	1b00                	addi	s0,sp,432
 100103c:	7465                	lui	s0,0xffff9
 100103e:	2c68                	fld	fa0,216(s0)
 1001040:	74696e73          	csrrsi	t3,0x746,18
 1001044:	632d6863          	bltu	s10,s2,1001674 <__spl_start+0x184>
 1001048:	756c                	ld	a1,232(a0)
 100104a:	72657473          	csrrci	s0,0x726,10
 100104e:	0000                	unimp
 1001050:	0000                	unimp
 1001052:	0300                	addi	s0,sp,384
 1001054:	0000                	unimp
 1001056:	1000                	addi	s0,sp,32
 1001058:	0000                	unimp
 100105a:	eb00                	sd	s0,16(a4)
 100105c:	6374                	ld	a3,192(a4)
 100105e:	6d64                	ld	s1,216(a0)
 1001060:	7000                	ld	s0,32(s0)
 1001062:	7265                	lui	tp,0xffff9
 1001064:	7069                	c.lui	zero,0xffffa
 1001066:	6568                	ld	a0,200(a0)
 1001068:	6172                	ld	sp,280(sp)
 100106a:	006c                	addi	a1,sp,12
 100106c:	0000                	unimp
 100106e:	0300                	addi	s0,sp,384
 1001070:	0000                	unimp
 1001072:	2000                	fld	fs0,0(s0)
 1001074:	0000                	unimp
 1001076:	5e00                	lw	s0,56(a2)
 1001078:	0000                	unimp
 100107a:	0000                	unimp
 100107c:	0010                	0x10
 100107e:	0000                	unimp
 1001080:	0000                	unimp
 1001082:	0000                	unimp
 1001084:	0200                	addi	s0,sp,256
 1001086:	0000                	unimp
 1001088:	0000                	unimp
 100108a:	0000                	unimp
 100108c:	0210                	addi	a2,sp,256
 100108e:	0000                	unimp
 1001090:	0000                	unimp
 1001092:	0000                	unimp
 1001094:	0200                	addi	s0,sp,256
 1001096:	0000                	unimp
 1001098:	0000                	unimp
 100109a:	0300                	addi	s0,sp,384
 100109c:	0000                	unimp
 100109e:	0400                	addi	s0,sp,512
 10010a0:	0000                	unimp
 10010a2:	00004c03          	lbu	s8,0(zero) # 0 <_start-0x1000000>
 10010a6:	0600                	addi	s0,sp,768
 10010a8:	0000                	unimp
 10010aa:	0300                	addi	s0,sp,384
 10010ac:	0000                	unimp
 10010ae:	0400                	addi	s0,sp,512
 10010b0:	0000                	unimp
 10010b2:	00005a03          	lhu	s4,0(zero) # 0 <_start-0x1000000>
 10010b6:	0800                	addi	s0,sp,16
 10010b8:	0000                	unimp
 10010ba:	0300                	addi	s0,sp,384
 10010bc:	0000                	unimp
 10010be:	0400                	addi	s0,sp,512
 10010c0:	0000                	unimp
 10010c2:	00006c03          	lwu	s8,0(zero) # 0 <_start-0x1000000>
 10010c6:	0100                	addi	s0,sp,128
 10010c8:	0000                	unimp
 10010ca:	0300                	addi	s0,sp,384
 10010cc:	0000                	unimp
 10010ce:	0400                	addi	s0,sp,512
 10010d0:	0000                	unimp
 10010d2:	00007903          	0x7903
 10010d6:	0000                	unimp
 10010d8:	0000                	unimp
 10010da:	0300                	addi	s0,sp,384
 10010dc:	0000                	unimp
 10010de:	0400                	addi	s0,sp,512
 10010e0:	0000                	unimp
 10010e2:	00008a03          	lb	s4,0(ra)
 10010e6:	0000                	unimp
 10010e8:	0000                	unimp
 10010ea:	0300                	addi	s0,sp,384
 10010ec:	0000                	unimp
 10010ee:	0400                	addi	s0,sp,512
 10010f0:	0000                	unimp
 10010f2:	00009a03          	lh	s4,0(ra)
 10010f6:	0700                	addi	s0,sp,896
 10010f8:	0000                	unimp
 10010fa:	0300                	addi	s0,sp,384
 10010fc:	0000                	unimp
 10010fe:	0400                	addi	s0,sp,512
 1001100:	0000                	unimp
 1001102:	0000a603          	lw	a2,0(ra)
 1001106:	0800                	addi	s0,sp,16
 1001108:	0000                	unimp
 100110a:	0300                	addi	s0,sp,384
 100110c:	0000                	unimp
 100110e:	0400                	addi	s0,sp,512
 1001110:	0000                	unimp
 1001112:	0000b803          	ld	a6,0(ra)
 1001116:	0900                	addi	s0,sp,144
 1001118:	0000                	unimp
 100111a:	0200                	addi	s0,sp,256
 100111c:	0000                	unimp
 100111e:	0200                	addi	s0,sp,256
 1001120:	0000                	unimp
 1001122:	0200                	addi	s0,sp,256
 1001124:	0000                	unimp
 1001126:	0900                	addi	s0,sp,144
 1001128:	64646123          	0x64646123
 100112c:	6572                	ld	a0,280(sp)
 100112e:	632d7373          	csrrci	t1,0x632,26
 1001132:	6c65                	lui	s8,0x19
 1001134:	736c                	ld	a1,224(a4)
 1001136:	2300                	fld	fs0,0(a4)
 1001138:	657a6973          	csrrsi	s2,0x657,20
 100113c:	632d                	lui	t1,0xb
 100113e:	6c65                	lui	s8,0x19
 1001140:	736c                	ld	a1,224(a4)
 1001142:	6300                	ld	s0,0(a4)
 1001144:	61706d6f          	jal	s10,1007f5a <__spl_start+0x6a6a>
 1001148:	6974                	ld	a3,208(a0)
 100114a:	6c62                	ld	s8,24(sp)
 100114c:	0065                	c.nop	25
 100114e:	6f6d                	lui	t5,0x1b
 1001150:	6564                	ld	s1,200(a0)
 1001152:	006c                	addi	a1,sp,12
 1001154:	2d75                	addiw	s10,s10,29
 1001156:	6f62                	ld	t5,24(sp)
 1001158:	732c746f          	jal	s0,10c888a <__spl_src_start+0xbb7a2>
 100115c:	6c70                	ld	a2,216(s0)
 100115e:	702d                	c.lui	zero,0xfffeb
 1001160:	7961                	lui	s2,0xffff8
 1001162:	6f6c                	ld	a1,216(a4)
 1001164:	6461                	lui	s0,0x18
 1001166:	6f2d                	lui	t5,0xb
 1001168:	6666                	ld	a2,88(sp)
 100116a:	00746573          	csrrsi	a0,0x7,8
 100116e:	6f647473          	csrrci	s0,0x6f6,8
 1001172:	7475                	lui	s0,0xffffd
 1001174:	702d                	c.lui	zero,0xfffeb
 1001176:	7461                	lui	s0,0xffff8
 1001178:	0068                	addi	a0,sp,12
 100117a:	6564                	ld	s1,200(a0)
 100117c:	6976                	ld	s2,344(sp)
 100117e:	745f6563          	bltu	t5,t0,10018c8 <__spl_start+0x3d8>
 1001182:	7079                	c.lui	zero,0xffffe
 1001184:	0065                	c.nop	25
 1001186:	6572                	ld	a0,280(sp)
 1001188:	61720067          	jr	1559(tp) # 0 <_start-0x1000000>
 100118c:	676e                	ld	a4,216(sp)
 100118e:	7365                	lui	t1,0xffff9
 1001190:	7000                	ld	s0,32(s0)
 1001192:	6168                	ld	a0,192(a0)
 1001194:	646e                	ld	s0,216(sp)
 1001196:	656c                	ld	a1,200(a0)
 1001198:	7400                	ld	s0,40(s0)
 100119a:	6d69                	lui	s10,0x1a
 100119c:	6265                	lui	tp,0x19
 100119e:	7361                	lui	t1,0xffff8
 10011a0:	2d65                	addiw	s10,s10,25
 10011a2:	7266                	ld	tp,120(sp)
 10011a4:	7165                	addi	sp,sp,-400
 10011a6:	6575                	lui	a0,0x1d
 10011a8:	636e                	ld	t1,216(sp)
 10011aa:	0079                	c.nop	30
 10011ac:	74617473          	csrrci	s0,0x746,2
 10011b0:	7375                	lui	t1,0xffffd
 10011b2:	6300                	ld	s0,0(a4)
 10011b4:	6f6c                	ld	a1,216(a4)
 10011b6:	662d6b63          	bltu	s10,sp,100182c <__spl_start+0x33c>
 10011ba:	6572                	ld	a0,280(sp)
 10011bc:	7571                	lui	a0,0xffffc
 10011be:	6e65                	lui	t3,0x19
 10011c0:	72007963          	bgeu	zero,zero,10018f2 <__spl_start+0x402>
 10011c4:	7369                	lui	t1,0xffffa
 10011c6:	692c7663          	bgeu	s8,s2,1001852 <__spl_start+0x362>
 10011ca:	6d006173          	csrrsi	sp,0x6d0,0
 10011ce:	756d                	lui	a0,0xffffb
 10011d0:	742d                	lui	s0,0xfffeb
 10011d2:	7079                	c.lui	zero,0xffffe
 10011d4:	0065                	c.nop	25
 10011d6:	6c74                	ld	a3,216(s0)
 10011d8:	2d62                	fld	fs10,24(sp)
 10011da:	696c7073          	csrci	0x696,24
 10011de:	0074                	addi	a3,sp,12
 10011e0:	746e6923          	0x746e6923
 10011e4:	7265                	lui	tp,0xffff9
 10011e6:	7572                	ld	a0,312(sp)
 10011e8:	7470                	ld	a2,232(s0)
 10011ea:	632d                	lui	t1,0xb
 10011ec:	6c65                	lui	s8,0x19
 10011ee:	736c                	ld	a1,224(a4)
 10011f0:	6900                	ld	s0,16(a0)
 10011f2:	746e                	ld	s0,248(sp)
 10011f4:	7265                	lui	tp,0xffff9
 10011f6:	7572                	ld	a0,312(sp)
 10011f8:	7470                	ld	a2,232(s0)
 10011fa:	632d                	lui	t1,0xb
 10011fc:	72746e6f          	jal	t3,1048122 <__spl_src_start+0x3b03a>
 1001200:	656c6c6f          	jal	s8,10c7856 <__spl_src_start+0xba76e>
 1001204:	0072                	c.slli	zero,0x1c
 1001206:	6f6c6323          	0x6f6c6323
 100120a:	632d6b63          	bltu	s10,s2,1001840 <__spl_start+0x350>
 100120e:	6c65                	lui	s8,0x19
 1001210:	736c                	ld	a1,224(a4)
 1001212:	7200                	ld	s0,32(a2)
 1001214:	6765                	lui	a4,0x19
 1001216:	6e2d                	lui	t3,0xb
 1001218:	6d61                	lui	s10,0x18
 100121a:	7365                	lui	t1,0xffff9
 100121c:	6300                	ld	s0,0(a4)
 100121e:	7275                	lui	tp,0xffffd
 1001220:	6572                	ld	a0,280(sp)
 1001222:	746e                	ld	s0,248(sp)
 1001224:	732d                	lui	t1,0xfffeb
 1001226:	6570                	ld	a2,200(a0)
 1001228:	6465                	lui	s0,0x19
 100122a:	6900                	ld	s0,16(a0)
 100122c:	746e                	ld	s0,248(sp)
 100122e:	7265                	lui	tp,0xffff9
 1001230:	7572                	ld	a0,312(sp)
 1001232:	7470                	ld	a2,232(s0)
 1001234:	702d                	c.lui	zero,0xfffeb
 1001236:	7261                	lui	tp,0xffff8
 1001238:	6e65                	lui	t3,0x19
 100123a:	0074                	addi	a3,sp,12
 100123c:	6e69                	lui	t3,0x1a
 100123e:	6574                	ld	a3,200(a0)
 1001240:	7272                	ld	tp,312(sp)
 1001242:	7075                	c.lui	zero,0xffffd
 1001244:	7374                	ld	a3,224(a4)
 1001246:	7200                	ld	s0,32(a2)
 1001248:	6765                	lui	a4,0x19
 100124a:	6f2d                	lui	t5,0xb
 100124c:	6666                	ld	a2,88(sp)
 100124e:	00746573          	csrrsi	a0,0x7,8
 1001252:	6572                	ld	a0,280(sp)
 1001254:	68732d67          	0x68732d67
 1001258:	6669                	lui	a2,0x1a
 100125a:	0074                	addi	a3,sp,12
 100125c:	6572                	ld	a0,280(sp)
 100125e:	6f692d67          	0x6f692d67
 1001262:	772d                	lui	a4,0xfffeb
 1001264:	6469                	lui	s0,0x1a
 1001266:	6874                	ld	a3,208(s0)
 1001268:	6900                	ld	s0,16(a0)
 100126a:	746e                	ld	s0,248(sp)
 100126c:	7265                	lui	tp,0xffff9
 100126e:	7572                	ld	a0,312(sp)
 1001270:	7470                	ld	a2,232(s0)
 1001272:	78652d73          	csrrs	s10,0x786,a0
 1001276:	6574                	ld	a3,200(a0)
 1001278:	646e                	ld	s0,216(sp)
 100127a:	6465                	lui	s0,0x19
 100127c:	6300                	ld	s0,0(a4)
 100127e:	6f6c                	ld	a1,216(a4)
 1001280:	00736b63          	bltu	t1,t2,1001296 <device_tree+0x1206>
 1001284:	6c78                	ld	a4,216(s0)
 1001286:	786e                	ld	a6,248(sp)
 1001288:	6e2c                	ld	a1,88(a2)
 100128a:	6d75                	lui	s10,0x1d
 100128c:	732d                	lui	t1,0xfffeb
 100128e:	69622d73          	csrrs	s10,0x696,tp
 1001292:	7374                	ld	a3,224(a4)
 1001294:	7800                	ld	s0,48(s0)
 1001296:	6e6c                	ld	a1,216(a2)
 1001298:	2c78                	fld	fa4,216(s0)
 100129a:	756e                	ld	a0,248(sp)
 100129c:	2d6d                	addiw	s10,s10,27
 100129e:	7274                	ld	a3,224(a2)
 10012a0:	6e61                	lui	t3,0x18
 10012a2:	72656673          	csrrsi	a2,0x726,10
 10012a6:	622d                	lui	tp,0xb
 10012a8:	7469                	lui	s0,0xffffa
 10012aa:	69660073          	0x69660073
 10012ae:	6f66                	ld	t5,88(sp)
 10012b0:	732d                	lui	t1,0xfffeb
 10012b2:	7a69                	lui	s4,0xffffa
 10012b4:	0065                	c.nop	25
 10012b6:	2d697073          	csrci	0x2d6,18
 10012ba:	616d                	addi	sp,sp,240
 10012bc:	2d78                	fld	fa4,216(a0)
 10012be:	7266                	ld	tp,120(sp)
 10012c0:	7165                	addi	sp,sp,-400
 10012c2:	6575                	lui	a0,0x1d
 10012c4:	636e                	ld	t1,216(sp)
 10012c6:	0079                	c.nop	30
 10012c8:	2d697073          	csrci	0x2d6,18
 10012cc:	7872                	ld	a6,312(sp)
 10012ce:	622d                	lui	tp,0xb
 10012d0:	7375                	lui	t1,0xffffd
 10012d2:	772d                	lui	a4,0xfffeb
 10012d4:	6469                	lui	s0,0x1a
 10012d6:	6874                	ld	a3,208(s0)
 10012d8:	7300                	ld	s0,32(a4)
 10012da:	6970                	ld	a2,208(a0)
 10012dc:	742d                	lui	s0,0xfffeb
 10012de:	2d78                	fld	fa4,216(a0)
 10012e0:	7562                	ld	a0,56(sp)
 10012e2:	69772d73          	csrrs	s10,0x697,a4
 10012e6:	7464                	ld	s1,232(s0)
 10012e8:	0068                	addi	a0,sp,12
 10012ea:	326d                	addiw	tp,tp,-5
 10012ec:	7035                	c.lui	zero,0xfffed
 10012ee:	662c                	ld	a1,72(a2)
 10012f0:	7361                	lui	t1,0xffff8
 10012f2:	2d74                	fld	fa3,216(a0)
 10012f4:	6572                	ld	a0,280(sp)
 10012f6:	6461                	lui	s0,0x18
 10012f8:	6c00                	ld	s0,24(s0)
 10012fa:	6261                	lui	tp,0x18
 10012fc:	6c65                	lui	s8,0x19
 10012fe:	7200                	ld	s0,32(a2)
 1001300:	6165                	addi	sp,sp,112
 1001302:	2d64                	fld	fs1,216(a0)
 1001304:	796c6e6f          	jal	t3,10c7a9a <__spl_src_start+0xba9b2>
 1001308:	7200                	ld	s0,32(a2)
 100130a:	7369                	lui	t1,0xffffa
 100130c:	6d2c7663          	bgeu	s8,s2,10019d8 <__spl_start+0x4e8>
 1001310:	7861                	lui	a6,0xffff8
 1001312:	702d                	c.lui	zero,0xfffeb
 1001314:	6972                	ld	s2,280(sp)
 1001316:	7469726f          	jal	tp,1098a5c <__spl_src_start+0x8b974>
 100131a:	0079                	c.nop	30
 100131c:	6972                	ld	s2,280(sp)
 100131e:	2c766373          	csrrsi	t1,0x2c7,12
 1001322:	646e                	ld	s0,216(sp)
 1001324:	7665                	lui	a2,0xffff9
 1001326:	2300                	fld	fs0,0(a4)
 1001328:	6d64                	ld	s1,216(a0)
 100132a:	2d61                	addiw	s10,s10,24
 100132c:	6c6c6563          	bltu	s8,t1,10019f6 <__spl_start+0x506>
 1001330:	6c780073          	0x6c780073
 1001334:	786e                	ld	a6,248(sp)
 1001336:	612c                	ld	a1,64(a0)
 1001338:	6464                	ld	s1,200(s0)
 100133a:	7772                	ld	a4,312(sp)
 100133c:	6469                	lui	s0,0x1a
 100133e:	6874                	ld	a3,208(s0)
 1001340:	7800                	ld	s0,48(s0)
 1001342:	6e6c                	ld	a1,216(a2)
 1001344:	2c78                	fld	fa4,216(s0)
 1001346:	6e69                	lui	t3,0x1a
 1001348:	64756c63          	bltu	a0,t2,10019a0 <__spl_start+0x4b0>
 100134c:	2d65                	addiw	s10,s10,25
 100134e:	64006773          	csrrsi	a4,0x640,0
 1001352:	616d                	addi	sp,sp,240
 1001354:	632d                	lui	t1,0xb
 1001356:	6168                	ld	a0,192(a0)
 1001358:	6e6e                	ld	t3,216(sp)
 100135a:	6c65                	lui	s8,0x19
 100135c:	6c780073          	0x6c780073
 1001360:	786e                	ld	a6,248(sp)
 1001362:	642c                	ld	a1,72(s0)
 1001364:	7461                	lui	s0,0xffff8
 1001366:	7761                	lui	a4,0xffff8
 1001368:	6469                	lui	s0,0x1a
 100136a:	6874                	ld	a3,208(s0)
 100136c:	7800                	ld	s0,48(s0)
 100136e:	6e6c                	ld	a1,216(a2)
 1001370:	2c78                	fld	fa4,216(s0)
 1001372:	6564                	ld	s1,200(a0)
 1001374:	6976                	ld	s2,344(sp)
 1001376:	692d6563          	bltu	s10,s2,1001a00 <__spl_start+0x510>
 100137a:	0064                	addi	s1,sp,12
 100137c:	6c78                	ld	a4,216(s0)
 100137e:	786e                	ld	a6,248(sp)
 1001380:	692c                	ld	a1,80(a0)
 1001382:	636e                	ld	t1,216(sp)
 1001384:	756c                	ld	a1,232(a0)
 1001386:	6564                	ld	s1,200(a0)
 1001388:	642d                	lui	s0,0xb
 100138a:	6572                	ld	a0,280(sp)
 100138c:	6300                	ld	s0,0(a4)
 100138e:	6f6c                	ld	a1,216(a4)
 1001390:	6e2d6b63          	bltu	s10,sp,1001a86 <__spl_start+0x596>
 1001394:	6d61                	lui	s10,0x18
 1001396:	7365                	lui	t1,0xffff9
 1001398:	6c00                	ld	s0,24(s0)
 100139a:	6c61636f          	jal	t1,1017a60 <__spl_src_start+0xa978>
 100139e:	6d2d                	lui	s10,0xb
 10013a0:	6361                	lui	t1,0x18
 10013a2:	612d                	addi	sp,sp,224
 10013a4:	6464                	ld	s1,200(s0)
 10013a6:	6572                	ld	a0,280(sp)
 10013a8:	61007373          	csrrci	t1,0x610,0
 10013ac:	6978                	ld	a4,208(a0)
 10013ae:	65727473          	csrrci	s0,0x657,4
 10013b2:	6d61                	lui	s10,0x18
 10013b4:	632d                	lui	t1,0xb
 10013b6:	656e6e6f          	jal	t3,10e7a0c <__spl_src_start+0xda924>
 10013ba:	64657463          	bgeu	a0,t1,1001a02 <__spl_start+0x512>
 10013be:	6100                	ld	s0,0(a0)
 10013c0:	6978                	ld	a4,208(a0)
 10013c2:	65727473          	csrrci	s0,0x657,4
 10013c6:	6d61                	lui	s10,0x18
 10013c8:	632d                	lui	t1,0xb
 10013ca:	72746e6f          	jal	t3,10482f0 <__spl_src_start+0x3b208>
 10013ce:	632d6c6f          	jal	s8,10d7a00 <__spl_src_start+0xca918>
 10013d2:	656e6e6f          	jal	t3,10e7a28 <__spl_src_start+0xda940>
 10013d6:	64657463          	bgeu	a0,t1,1001a1e <__spl_start+0x52e>
 10013da:	7000                	ld	s0,32(s0)
 10013dc:	7968                	ld	a0,240(a0)
 10013de:	682d                	lui	a6,0xb
 10013e0:	6e61                	lui	t3,0x18
 10013e2:	6c64                	ld	s1,216(s0)
 10013e4:	0065                	c.nop	25
 10013e6:	6870                	ld	a2,208(s0)
 10013e8:	2d79                	addiw	s10,s10,30
 10013ea:	6f6d                	lui	t5,0x1b
 10013ec:	6564                	ld	s1,200(a0)
 10013ee:	7800                	ld	s0,48(s0)
 10013f0:	6e6c                	ld	a1,216(a2)
 10013f2:	2c78                	fld	fa4,216(s0)
 10013f4:	6870                	ld	a2,208(s0)
 10013f6:	6179                	addi	sp,sp,464
 10013f8:	6464                	ld	s1,200(s0)
 10013fa:	0072                	c.slli	zero,0x1c
 10013fc:	6c78                	ld	a4,216(s0)
 10013fe:	786e                	ld	a6,248(sp)
 1001400:	722c                	ld	a1,96(a2)
 1001402:	6378                	ld	a4,192(a4)
 1001404:	006d7573          	csrrci	a0,0x6,26
 1001408:	6c78                	ld	a4,216(s0)
 100140a:	786e                	ld	a6,248(sp)
 100140c:	722c                	ld	a1,96(a2)
 100140e:	6d78                	ld	a4,216(a0)
 1001410:	6d65                	lui	s10,0x19
 1001412:	7800                	ld	s0,48(s0)
 1001414:	6e6c                	ld	a1,216(a2)
 1001416:	2c78                	fld	fa4,216(s0)
 1001418:	7874                	ld	a3,240(s0)
 100141a:	6d757363          	bgeu	a0,s7,1001ae0 <__spl_start+0x5f0>
 100141e:	7800                	ld	s0,48(s0)
 1001420:	6e6c                	ld	a1,216(a2)
 1001422:	2c78                	fld	fa4,216(s0)
 1001424:	7874                	ld	a3,240(s0)
 1001426:	656d                	lui	a0,0x1b
 1001428:	006d                	c.nop	27
 100142a:	79687023          	0x79687023
 100142e:	632d                	lui	t1,0xb
 1001430:	6c65                	lui	s8,0x19
 1001432:	736c                	ld	a1,224(a4)
 1001434:	7400                	ld	s0,40(s0)
 1001436:	2c69                	addiw	s8,s8,26
 1001438:	696d6773          	csrrsi	a4,0x696,26
 100143c:	2d69                	addiw	s10,s10,26
 100143e:	6572                	ld	a0,280(sp)
 1001440:	2d66                	fld	fs10,88(sp)
 1001442:	636f6c63          	bltu	t5,s6,1001a7a <__spl_start+0x58a>
 1001446:	756f2d6b          	0x756f2d6b
 100144a:	7074                	ld	a3,224(s0)
 100144c:	7475                	lui	s0,0xffffd
 100144e:	652d                	lui	a0,0xb
 1001450:	616e                	ld	sp,216(sp)
 1001452:	6c62                	ld	s8,24(sp)
 1001454:	0065                	c.nop	25
 1001456:	6974                	ld	a3,208(a0)
 1001458:	642c                	ld	a1,72(s0)
 100145a:	3870                	fld	fa2,240(s0)
 100145c:	37363833          	0x37363833
 1001460:	722d                	lui	tp,0xfffeb
 1001462:	6378                	ld	a4,192(a4)
 1001464:	7274                	ld	a3,224(a2)
 1001466:	2d6c                	fld	fa1,216(a0)
 1001468:	61727473          	csrrci	s0,0x617,4
 100146c:	2d70                	fld	fa2,216(a0)
 100146e:	7571                	lui	a0,0xffffc
 1001470:	7269                	lui	tp,0xffffa
 1001472:	656d006b          	0x656d006b
 1001476:	6f6d                	lui	t5,0x1b
 1001478:	7972                	ld	s2,312(sp)
 100147a:	722d                	lui	tp,0xfffeb
 100147c:	6765                	lui	a4,0x19
 100147e:	6f69                	lui	t5,0x1a
 1001480:	006e                	c.slli	zero,0x1b
 1001482:	7465                	lui	s0,0xffff9
 1001484:	2c68                	fld	fa0,216(s0)
 1001486:	706d6f63          	bltu	s10,t1,1001ba4 <__spl_start+0x6b4>
 100148a:	7475                	lui	s0,0xffffd
 100148c:	2d65                	addiw	s10,s10,25
 100148e:	65726f63          	bltu	tp,s7,1001aec <__spl_start+0x5fc>
 1001492:	74650073          	0x74650073
 1001496:	2c68                	fld	fa0,216(s0)
 1001498:	6d64                	ld	s1,216(a0)
 100149a:	632d                	lui	t1,0xb
 100149c:	7365726f          	jal	tp,1058bd2 <__spl_src_start+0x4baea>
 10014a0:	6500                	ld	s0,8(a0)
 10014a2:	6874                	ld	a3,208(s0)
 10014a4:	712c                	ld	a1,96(a0)
 10014a6:	6175                	addi	sp,sp,368
 10014a8:	7264                	ld	s1,224(a2)
 10014aa:	6e61                	lui	t3,0x18
 10014ac:	2d74                	fld	fa3,216(a0)
 10014ae:	6469                	lui	s0,0x1a
 10014b0:	0078                	addi	a4,sp,12
 10014b2:	7465                	lui	s0,0xffff9
 10014b4:	2c68                	fld	fa0,216(s0)
 10014b6:	73756c63          	bltu	a0,s7,1001bee <__spl_start+0x6fe>
 10014ba:	6574                	ld	a3,200(a0)
 10014bc:	2d72                	fld	fs10,280(sp)
 10014be:	6469                	lui	s0,0x1a
 10014c0:	0078                	addi	a4,sp,12
 10014c2:	7465                	lui	s0,0xffff9
 10014c4:	2c68                	fld	fa0,216(s0)
 10014c6:	2d636f73          	csrrsi	t5,0x2d6,6
 10014ca:	006c7463          	bgeu	s8,t1,10014d2 <device_tree+0x1442>
 10014ce:	7465                	lui	s0,0xffff9
 10014d0:	2c68                	fld	fa0,216(s0)
 10014d2:	7571                	lui	a0,0xffffc
 10014d4:	6461                	lui	s0,0x18
 10014d6:	6172                	ld	sp,280(sp)
 10014d8:	746e                	ld	s0,248(sp)
 10014da:	632d                	lui	t1,0xb
 10014dc:	7274                	ld	a3,224(a2)
 10014de:	006c                	addi	a1,sp,12
 10014e0:	7465                	lui	s0,0xffff9
 10014e2:	2c68                	fld	fa0,216(s0)
 10014e4:	6e696c63          	bltu	s2,t1,1001bdc <__spl_start+0x6ec>
 10014e8:	0074                	addi	a3,sp,12
 10014ea:	0000                	unimp
 10014ec:	0000                	unimp
	...

00000000010014f0 <__spl_start>:
 10014f0:	f1402573          	csrr	a0,mhartid
 10014f4:	822a                	mv	tp,a0
 10014f6:	84ae                	mv	s1,a1
 10014f8:	00000193          	li	gp,0
 10014fc:	0000b297          	auipc	t0,0xb
 1001500:	c8c2b283          	ld	t0,-884(t0) # 100c188 <__spl_start+0xac98>
 1001504:	30529073          	csrw	mtvec,t0
 1001508:	30401073          	csrw	mie,zero
 100150c:	42a1                	li	t0,8
 100150e:	22525c63          	bge	tp,t0,1001746 <__spl_start+0x256>
 1001512:	42a1                	li	t0,8
 1001514:	3042a073          	csrs	mie,t0
 1001518:	52c1                	li	t0,-16
 100151a:	70018337          	lui	t1,0x70018
 100151e:	00537133          	and	sp,t1,t0
 1001522:	850a                	mv	a0,sp
 1001524:	5f8010ef          	jal	ra,1002b1c <__spl_start+0x162c>
 1001528:	842a                	mv	s0,a0
 100152a:	00e21293          	slli	t0,tp,0xe
 100152e:	40550133          	sub	sp,a0,t0
 1001532:	2f2000ef          	jal	ra,1001824 <__spl_start+0x334>
 1001536:	0000b297          	auipc	t0,0xb
 100153a:	cb22b283          	ld	t0,-846(t0) # 100c1e8 <__spl_start+0xacf8>
 100153e:	4305                	li	t1,1
 1001540:	0862a92f          	amoswap.w	s2,t1,(t0)
 1001544:	02091463          	bnez	s2,100156c <__spl_start+0x7c>
 1001548:	0000b297          	auipc	t0,0xb
 100154c:	c782b283          	ld	t0,-904(t0) # 100c1c0 <__spl_start+0xacd0>
 1001550:	0092b023          	sd	s1,0(t0)
 1001554:	5d4010ef          	jal	ra,1002b28 <__spl_start+0x1638>
 1001558:	1491b423          	sd	s1,328(gp)
 100155c:	1441b023          	sd	tp,320(gp)
 1001560:	0000b297          	auipc	t0,0xb
 1001564:	b882b283          	ld	t0,-1144(t0) # 100c0e8 <__spl_start+0xabf8>
 1001568:	0a02a02f          	amoswap.w.rl	zero,zero,(t0)
 100156c:	0000b297          	auipc	t0,0xb
 1001570:	b7c2b283          	ld	t0,-1156(t0) # 100c0e8 <__spl_start+0xabf8>
 1001574:	4305                	li	t1,1
 1001576:	0c62a32f          	amoswap.w.aq	t1,t1,(t0)
 100157a:	fe031ee3          	bnez	t1,1001576 <__spl_start+0x86>
 100157e:	81a2                	mv	gp,s0
 1001580:	4305                	li	t1,1
 1001582:	00431333          	sll	t1,t1,tp
 1001586:	2581b383          	ld	t2,600(gp)
 100158a:	0063e3b3          	or	t2,t2,t1
 100158e:	2471bc23          	sd	t2,600(gp)
 1001592:	0a02a02f          	amoswap.w.rl	zero,zero,(t0)
 1001596:	1c091063          	bnez	s2,1001756 <__spl_start+0x266>
 100159a:	332000ef          	jal	ra,10018cc <__spl_start+0x3dc>
 100159e:	330000ef          	jal	ra,10018ce <__spl_start+0x3de>
 10015a2:	00000513          	li	a0,0
 10015a6:	0000bf17          	auipc	t5,0xb
 10015aa:	bfaf3f03          	ld	t5,-1030(t5) # 100c1a0 <__spl_start+0xacb0>
 10015ae:	9f02                	jalr	t5
 10015b0:	0000b297          	auipc	t0,0xb
 10015b4:	bd02b283          	ld	t0,-1072(t0) # 100c180 <__spl_start+0xac90>
 10015b8:	0000b317          	auipc	t1,0xb
 10015bc:	b9033303          	ld	t1,-1136(t1) # 100c148 <__spl_start+0xac58>
 10015c0:	00628763          	beq	t0,t1,10015ce <__spl_start+0xde>
 10015c4:	0002b023          	sd	zero,0(t0)
 10015c8:	02a1                	addi	t0,t0,8
 10015ca:	fe62cde3          	blt	t0,t1,10015c4 <__spl_start+0xd4>
 10015ce:	457000ef          	jal	ra,1002224 <__spl_start+0xd34>
 10015d2:	c91d                	beqz	a0,1001608 <__spl_start+0x118>
 10015d4:	842a                	mv	s0,a0
 10015d6:	00e21293          	slli	t0,tp,0xe
 10015da:	40540133          	sub	sp,s0,t0
 10015de:	0000b517          	auipc	a0,0xb
 10015e2:	ada53503          	ld	a0,-1318(a0) # 100c0b8 <__spl_start+0xabc8>
 10015e6:	85a2                	mv	a1,s0
 10015e8:	8622                	mv	a2,s0
 10015ea:	00000693          	li	a3,0
 10015ee:	4f2000ef          	jal	ra,1001ae0 <__spl_start+0x5f0>
 10015f2:	c911                	beqz	a0,1001606 <__spl_start+0x116>
 10015f4:	85aa                	mv	a1,a0
 10015f6:	0000b517          	auipc	a0,0xb
 10015fa:	aba53503          	ld	a0,-1350(a0) # 100c0b0 <__spl_start+0xabc0>
 10015fe:	096040ef          	jal	ra,1005694 <__spl_start+0x41a4>
 1001602:	2d9030ef          	jal	ra,10050da <__spl_start+0x3bea>
 1001606:	81a2                	mv	gp,s0
 1001608:	00000513          	li	a0,0
 100160c:	00000593          	li	a1,0
 1001610:	299000ef          	jal	ra,10020a8 <__spl_start+0xbb8>
 1001614:	892a                	mv	s2,a0
 1001616:	89ae                	mv	s3,a1
 1001618:	8a32                	mv	s4,a2
 100161a:	00e21293          	slli	t0,tp,0xe
 100161e:	40590133          	sub	sp,s2,t0
 1001622:	0000b297          	auipc	t0,0xb
 1001626:	b3e2b283          	ld	t0,-1218(t0) # 100c160 <__spl_start+0xac70>
 100162a:	405a0fb3          	sub	t6,s4,t0
 100162e:	0b428663          	beq	t0,s4,10016da <__spl_start+0x1ea>
 1001632:	8352                	mv	t1,s4
 1001634:	0000be17          	auipc	t3,0xb
 1001638:	b4ce3e03          	ld	t3,-1204(t3) # 100c180 <__spl_start+0xac90>
 100163c:	405e0e33          	sub	t3,t3,t0
 1001640:	01c283b3          	add	t2,t0,t3
 1001644:	0002bf03          	ld	t5,0(t0)
 1001648:	02a1                	addi	t0,t0,8
 100164a:	01e33023          	sd	t5,0(t1)
 100164e:	0321                	addi	t1,t1,8
 1001650:	fe72cae3          	blt	t0,t2,1001644 <__spl_start+0x154>
 1001654:	0000b317          	auipc	t1,0xb
 1001658:	a7c33303          	ld	t1,-1412(t1) # 100c0d0 <__spl_start+0xabe0>
 100165c:	0000b397          	auipc	t2,0xb
 1001660:	b7c3b383          	ld	t2,-1156(t2) # 100c1d8 <__spl_start+0xace8>
 1001664:	06730b63          	beq	t1,t2,10016da <__spl_start+0x1ea>
 1001668:	937e                	add	t1,t1,t6
 100166a:	93fe                	add	t2,t2,t6
 100166c:	a8a9                	j	10016c6 <__spl_start+0x1d6>
 100166e:	ff033f03          	ld	t5,-16(t1)
 1001672:	4e0d                	li	t3,3
 1001674:	01cf1b63          	bne	t5,t3,100168a <__spl_start+0x19a>
 1001678:	fe833e03          	ld	t3,-24(t1)
 100167c:	ff833f03          	ld	t5,-8(t1)
 1001680:	9f7e                	add	t5,t5,t6
 1001682:	9e7e                	add	t3,t3,t6
 1001684:	01ee3023          	sd	t5,0(t3)
 1001688:	a83d                	j	10016c6 <__spl_start+0x1d6>
 100168a:	0000be97          	auipc	t4,0xb
 100168e:	b56ebe83          	ld	t4,-1194(t4) # 100c1e0 <__spl_start+0xacf0>
 1001692:	9efe                	add	t4,t4,t6
 1001694:	ff033f03          	ld	t5,-16(t1)
 1001698:	020f5293          	srli	t0,t5,0x20
 100169c:	0fff7f13          	andi	t5,t5,255
 10016a0:	4e09                	li	t3,2
 10016a2:	03cf1263          	bne	t5,t3,10016c6 <__spl_start+0x1d6>
 10016a6:	fe833e03          	ld	t3,-24(t1)
 10016aa:	4f61                	li	t5,24
 10016ac:	03e282b3          	mul	t0,t0,t5
 10016b0:	005e8ab3          	add	s5,t4,t0
 10016b4:	ff833283          	ld	t0,-8(t1)
 10016b8:	008abf03          	ld	t5,8(s5)
 10016bc:	9f16                	add	t5,t5,t0
 10016be:	9f7e                	add	t5,t5,t6
 10016c0:	9e7e                	add	t3,t3,t6
 10016c2:	01ee3023          	sd	t5,0(t3)
 10016c6:	0361                	addi	t1,t1,24
 10016c8:	fa63d3e3          	bge	t2,t1,100166e <__spl_start+0x17e>
 10016cc:	0000b297          	auipc	t0,0xb
 10016d0:	abc2b283          	ld	t0,-1348(t0) # 100c188 <__spl_start+0xac98>
 10016d4:	92fe                	add	t0,t0,t6
 10016d6:	30529073          	csrw	mtvec,t0
 10016da:	0000b297          	auipc	t0,0xb
 10016de:	aa62b283          	ld	t0,-1370(t0) # 100c180 <__spl_start+0xac90>
 10016e2:	92fe                	add	t0,t0,t6
 10016e4:	0000b317          	auipc	t1,0xb
 10016e8:	a6433303          	ld	t1,-1436(t1) # 100c148 <__spl_start+0xac58>
 10016ec:	937e                	add	t1,t1,t6
 10016ee:	00628763          	beq	t0,t1,10016fc <__spl_start+0x20c>
 10016f2:	0002b023          	sd	zero,0(t0)
 10016f6:	02a1                	addi	t0,t0,8
 10016f8:	fe62cde3          	blt	t0,t1,10016f2 <__spl_start+0x202>
 10016fc:	0000b297          	auipc	t0,0xb
 1001700:	9bc2b283          	ld	t0,-1604(t0) # 100c0b8 <__spl_start+0xabc8>
 1001704:	01f28533          	add	a0,t0,t6
 1001708:	8afe                	mv	s5,t6
 100170a:	85ca                	mv	a1,s2
 100170c:	864e                	mv	a2,s3
 100170e:	00000693          	li	a3,0
 1001712:	3ce000ef          	jal	ra,1001ae0 <__spl_start+0x5f0>
 1001716:	c911                	beqz	a0,100172a <__spl_start+0x23a>
 1001718:	85aa                	mv	a1,a0
 100171a:	0000b517          	auipc	a0,0xb
 100171e:	99653503          	ld	a0,-1642(a0) # 100c0b0 <__spl_start+0xabc0>
 1001722:	773030ef          	jal	ra,1005694 <__spl_start+0x41a4>
 1001726:	1b5030ef          	jal	ra,10050da <__spl_start+0x3bea>
 100172a:	8fd6                	mv	t6,s5
 100172c:	196000ef          	jal	ra,10018c2 <__spl_start+0x3d2>
 1001730:	198000ef          	jal	ra,10018c8 <__spl_start+0x3d8>
 1001734:	0000b297          	auipc	t0,0xb
 1001738:	a1c2b283          	ld	t0,-1508(t0) # 100c150 <__spl_start+0xac60>
 100173c:	01f28eb3          	add	t4,t0,t6
 1001740:	854e                	mv	a0,s3
 1001742:	85d2                	mv	a1,s4
 1001744:	8e82                	jr	t4
 1001746:	10500073          	wfi
 100174a:	bff5                	j	1001746 <__spl_start+0x256>
 100174c:	00e21293          	slli	t0,tp,0xe
 1001750:	40558133          	sub	sp,a1,t0
 1001754:	81b2                	mv	gp,a2
 1001756:	10500073          	wfi
 100175a:	344022f3          	csrr	t0,mip
 100175e:	0082f293          	andi	t0,t0,8
 1001762:	fe028ae3          	beqz	t0,1001756 <__spl_start+0x266>
 1001766:	8512                	mv	a0,tp
 1001768:	2ec000ef          	jal	ra,1001a54 <__spl_start+0x564>
 100176c:	b7ed                	j	1001756 <__spl_start+0x266>
 100176e:	8082                	ret
 1001770:	7139                	addi	sp,sp,-64
 1001772:	fc06                	sd	ra,56(sp)
 1001774:	f822                	sd	s0,48(sp)
 1001776:	5c7060ef          	jal	ra,100853c <__spl_start+0x704c>
 100177a:	e14d                	bnez	a0,100181c <__spl_start+0x32c>
 100177c:	0020                	addi	s0,sp,8
 100177e:	85a2                	mv	a1,s0
 1001780:	456d                	li	a0,27
 1001782:	255040ef          	jal	ra,10061d6 <__spl_start+0x4ce6>
 1001786:	6522                	ld	a0,8(sp)
 1001788:	e939                	bnez	a0,10017de <__spl_start+0x2ee>
 100178a:	85a2                	mv	a1,s0
 100178c:	456d                	li	a0,27
 100178e:	249040ef          	jal	ra,10061d6 <__spl_start+0x4ce6>
 1001792:	6522                	ld	a0,8(sp)
 1001794:	e53d                	bnez	a0,1001802 <__spl_start+0x312>
 1001796:	3063d073          	csrwi	mcounteren,7
 100179a:	456d                	li	a0,27
 100179c:	85a2                	mv	a1,s0
 100179e:	239040ef          	jal	ra,10061d6 <__spl_start+0x4ce6>
 10017a2:	6522                	ld	a0,8(sp)
 10017a4:	cd19                	beqz	a0,10017c2 <__spl_start+0x2d2>
 10017a6:	02000613          	li	a2,32
 10017aa:	080c                	addi	a1,sp,16
 10017ac:	629060ef          	jal	ra,10085d4 <__spl_start+0x70e4>
 10017b0:	e909                	bnez	a0,10017c2 <__spl_start+0x2d2>
 10017b2:	07300593          	li	a1,115
 10017b6:	0848                	addi	a0,sp,20
 10017b8:	1e1030ef          	jal	ra,1005198 <__spl_start+0x3ca8>
 10017bc:	c119                	beqz	a0,10017c2 <__spl_start+0x2d2>
 10017be:	18005073          	csrwi	satp,0
 10017c2:	10e000ef          	jal	ra,10018d0 <__spl_start+0x3e0>
 10017c6:	e939                	bnez	a0,100181c <__spl_start+0x32c>
 10017c8:	7442                	ld	s0,48(sp)
 10017ca:	70e2                	ld	ra,56(sp)
 10017cc:	4681                	li	a3,0
 10017ce:	4601                	li	a2,0
 10017d0:	4581                	li	a1,0
 10017d2:	00000517          	auipc	a0,0x0
 10017d6:	f9c50513          	addi	a0,a0,-100 # 100176e <__spl_start+0x27e>
 10017da:	6121                	addi	sp,sp,64
 10017dc:	a611                	j	1001ae0 <__spl_start+0x5f0>
 10017de:	02000613          	li	a2,32
 10017e2:	080c                	addi	a1,sp,16
 10017e4:	5f1060ef          	jal	ra,10085d4 <__spl_start+0x70e4>
 10017e8:	f14d                	bnez	a0,100178a <__spl_start+0x29a>
 10017ea:	06400593          	li	a1,100
 10017ee:	0848                	addi	a0,sp,20
 10017f0:	1a9030ef          	jal	ra,1005198 <__spl_start+0x3ca8>
 10017f4:	d959                	beqz	a0,100178a <__spl_start+0x29a>
 10017f6:	6799                	lui	a5,0x6
 10017f8:	3007a073          	csrs	mstatus,a5
 10017fc:	00305073          	csrwi	fcsr,0
 1001800:	bf59                	j	1001796 <__spl_start+0x2a6>
 1001802:	02000613          	li	a2,32
 1001806:	080c                	addi	a1,sp,16
 1001808:	5cd060ef          	jal	ra,10085d4 <__spl_start+0x70e4>
 100180c:	f549                	bnez	a0,1001796 <__spl_start+0x2a6>
 100180e:	06600593          	li	a1,102
 1001812:	0848                	addi	a0,sp,20
 1001814:	185030ef          	jal	ra,1005198 <__spl_start+0x3ca8>
 1001818:	fd79                	bnez	a0,10017f6 <__spl_start+0x306>
 100181a:	bfb5                	j	1001796 <__spl_start+0x2a6>
 100181c:	70e2                	ld	ra,56(sp)
 100181e:	7442                	ld	s0,48(sp)
 1001820:	6121                	addi	sp,sp,64
 1001822:	8082                	ret
 1001824:	8082                	ret
 1001826:	0000                	unimp
 1001828:	7111                	addi	sp,sp,-256
 100182a:	e406                	sd	ra,8(sp)
 100182c:	e80a                	sd	sp,16(sp)
 100182e:	ec0e                	sd	gp,24(sp)
 1001830:	f012                	sd	tp,32(sp)
 1001832:	f416                	sd	t0,40(sp)
 1001834:	f81a                	sd	t1,48(sp)
 1001836:	fc1e                	sd	t2,56(sp)
 1001838:	e0a2                	sd	s0,64(sp)
 100183a:	e4a6                	sd	s1,72(sp)
 100183c:	e8aa                	sd	a0,80(sp)
 100183e:	ecae                	sd	a1,88(sp)
 1001840:	f0b2                	sd	a2,96(sp)
 1001842:	f4b6                	sd	a3,104(sp)
 1001844:	f8ba                	sd	a4,112(sp)
 1001846:	fcbe                	sd	a5,120(sp)
 1001848:	e142                	sd	a6,128(sp)
 100184a:	e546                	sd	a7,136(sp)
 100184c:	e94a                	sd	s2,144(sp)
 100184e:	ed4e                	sd	s3,152(sp)
 1001850:	f152                	sd	s4,160(sp)
 1001852:	f556                	sd	s5,168(sp)
 1001854:	f95a                	sd	s6,176(sp)
 1001856:	fd5e                	sd	s7,184(sp)
 1001858:	e1e2                	sd	s8,192(sp)
 100185a:	e5e6                	sd	s9,200(sp)
 100185c:	e9ea                	sd	s10,208(sp)
 100185e:	edee                	sd	s11,216(sp)
 1001860:	f1f2                	sd	t3,224(sp)
 1001862:	f5f6                	sd	t4,232(sp)
 1001864:	f9fa                	sd	t5,240(sp)
 1001866:	fdfe                	sd	t6,248(sp)
 1001868:	34202573          	csrr	a0,mcause
 100186c:	341025f3          	csrr	a1,mepc
 1001870:	34302673          	csrr	a2,mtval
 1001874:	868a                	mv	a3,sp
 1001876:	15c000ef          	jal	ra,10019d2 <__spl_start+0x4e2>
 100187a:	34151073          	csrw	mepc,a0
 100187e:	60a2                	ld	ra,8(sp)
 1001880:	61e2                	ld	gp,24(sp)
 1001882:	7202                	ld	tp,32(sp)
 1001884:	72a2                	ld	t0,40(sp)
 1001886:	7342                	ld	t1,48(sp)
 1001888:	73e2                	ld	t2,56(sp)
 100188a:	6406                	ld	s0,64(sp)
 100188c:	64a6                	ld	s1,72(sp)
 100188e:	6546                	ld	a0,80(sp)
 1001890:	65e6                	ld	a1,88(sp)
 1001892:	7606                	ld	a2,96(sp)
 1001894:	76a6                	ld	a3,104(sp)
 1001896:	7746                	ld	a4,112(sp)
 1001898:	77e6                	ld	a5,120(sp)
 100189a:	680a                	ld	a6,128(sp)
 100189c:	68aa                	ld	a7,136(sp)
 100189e:	694a                	ld	s2,144(sp)
 10018a0:	69ea                	ld	s3,152(sp)
 10018a2:	7a0a                	ld	s4,160(sp)
 10018a4:	7aaa                	ld	s5,168(sp)
 10018a6:	7b4a                	ld	s6,176(sp)
 10018a8:	7bea                	ld	s7,184(sp)
 10018aa:	6c0e                	ld	s8,192(sp)
 10018ac:	6cae                	ld	s9,200(sp)
 10018ae:	6d4e                	ld	s10,208(sp)
 10018b0:	6dee                	ld	s11,216(sp)
 10018b2:	7e0e                	ld	t3,224(sp)
 10018b4:	7eae                	ld	t4,232(sp)
 10018b6:	7f4e                	ld	t5,240(sp)
 10018b8:	7fee                	ld	t6,248(sp)
 10018ba:	6142                	ld	sp,16(sp)
 10018bc:	6111                	addi	sp,sp,256
 10018be:	30200073          	mret
 10018c2:	0000100f          	fence.i
 10018c6:	8082                	ret
 10018c8:	8082                	ret
 10018ca:	8082                	ret
 10018cc:	8082                	ret
 10018ce:	8082                	ret
 10018d0:	7179                	addi	sp,sp,-48
 10018d2:	0030                	addi	a2,sp,8
 10018d4:	0000b597          	auipc	a1,0xb
 10018d8:	81c5b583          	ld	a1,-2020(a1) # 100c0f0 <__spl_start+0xac00>
 10018dc:	06300513          	li	a0,99
 10018e0:	f022                	sd	s0,32(sp)
 10018e2:	f406                	sd	ra,40(sp)
 10018e4:	ec26                	sd	s1,24(sp)
 10018e6:	285040ef          	jal	ra,100636a <__spl_start+0x4e7a>
 10018ea:	842a                	mv	s0,a0
 10018ec:	e919                	bnez	a0,1001902 <__spl_start+0x412>
 10018ee:	6522                	ld	a0,8(sp)
 10018f0:	848e                	mv	s1,gp
 10018f2:	32a040ef          	jal	ra,1005c1c <__spl_start+0x472c>
 10018f6:	14a4b823          	sd	a0,336(s1)
 10018fa:	1501b783          	ld	a5,336(gp)
 10018fe:	e391                	bnez	a5,1001902 <__spl_start+0x412>
 1001900:	5429                	li	s0,-22
 1001902:	70a2                	ld	ra,40(sp)
 1001904:	8522                	mv	a0,s0
 1001906:	7402                	ld	s0,32(sp)
 1001908:	64e2                	ld	s1,24(sp)
 100190a:	6145                	addi	sp,sp,48
 100190c:	8082                	ret
 100190e:	1501b783          	ld	a5,336(gp)
 1001912:	0025151b          	slliw	a0,a0,0x2
 1001916:	97aa                	add	a5,a5,a0
 1001918:	0550000f          	fence	ow,ow
 100191c:	4705                	li	a4,1
 100191e:	c398                	sw	a4,0(a5)
 1001920:	4501                	li	a0,0
 1001922:	8082                	ret
 1001924:	1501b783          	ld	a5,336(gp)
 1001928:	0025151b          	slliw	a0,a0,0x2
 100192c:	97aa                	add	a5,a5,a0
 100192e:	0550000f          	fence	ow,ow
 1001932:	4501                	li	a0,0
 1001934:	0007a023          	sw	zero,0(a5) # 6000 <_start-0xffa000>
 1001938:	8082                	ret
 100193a:	1501b783          	ld	a5,336(gp)
 100193e:	0025151b          	slliw	a0,a0,0x2
 1001942:	97aa                	add	a5,a5,a0
 1001944:	439c                	lw	a5,0(a5)
 1001946:	0aa0000f          	fence	ir,ir
 100194a:	4501                	li	a0,0
 100194c:	c19c                	sw	a5,0(a1)
 100194e:	8082                	ret
 1001950:	1101                	addi	sp,sp,-32
 1001952:	e822                	sd	s0,16(sp)
 1001954:	e426                	sd	s1,8(sp)
 1001956:	e04a                	sd	s2,0(sp)
 1001958:	ec06                	sd	ra,24(sp)
 100195a:	47bd                	li	a5,15
 100195c:	842e                	mv	s0,a1
 100195e:	8932                	mv	s2,a2
 1001960:	84b6                	mv	s1,a3
 1001962:	06a7e063          	bltu	a5,a0,10019c2 <__spl_start+0x4d2>
 1001966:	050e                	slli	a0,a0,0x3
 1001968:	0000a797          	auipc	a5,0xa
 100196c:	9e878793          	addi	a5,a5,-1560 # 100b350 <__spl_start+0x9e60>
 1001970:	97aa                	add	a5,a5,a0
 1001972:	638c                	ld	a1,0(a5)
 1001974:	00007517          	auipc	a0,0x7
 1001978:	00450513          	addi	a0,a0,4 # 1008978 <__spl_start+0x7488>
 100197c:	519030ef          	jal	ra,1005694 <__spl_start+0x41a4>
 1001980:	6490                	ld	a2,8(s1)
 1001982:	86ca                	mv	a3,s2
 1001984:	85a2                	mv	a1,s0
 1001986:	00007517          	auipc	a0,0x7
 100198a:	03250513          	addi	a0,a0,50 # 10089b8 <__spl_start+0x74c8>
 100198e:	507030ef          	jal	ra,1005694 <__spl_start+0x41a4>
 1001992:	02018263          	beqz	gp,10019b6 <__spl_start+0x4c6>
 1001996:	0081b703          	ld	a4,8(gp)
 100199a:	8b05                	andi	a4,a4,1
 100199c:	cf09                	beqz	a4,10019b6 <__spl_start+0x4c6>
 100199e:	0981b583          	ld	a1,152(gp)
 10019a2:	6490                	ld	a2,8(s1)
 10019a4:	00007517          	auipc	a0,0x7
 10019a8:	03c50513          	addi	a0,a0,60 # 10089e0 <__spl_start+0x74f0>
 10019ac:	8e0d                	sub	a2,a2,a1
 10019ae:	40b405b3          	sub	a1,s0,a1
 10019b2:	4e3030ef          	jal	ra,1005694 <__spl_start+0x41a4>
 10019b6:	00007517          	auipc	a0,0x7
 10019ba:	4aa50513          	addi	a0,a0,1194 # 1008e60 <__spl_start+0x7970>
 10019be:	1b5030ef          	jal	ra,1005372 <__spl_start+0x3e82>
 10019c2:	85aa                	mv	a1,a0
 10019c4:	00007517          	auipc	a0,0x7
 10019c8:	fd450513          	addi	a0,a0,-44 # 1008998 <__spl_start+0x74a8>
 10019cc:	bf45                	j	100197c <__spl_start+0x48c>
 10019ce:	8082                	ret
 10019d0:	8082                	ret
 10019d2:	1141                	addi	sp,sp,-16
 10019d4:	e406                	sd	ra,8(sp)
 10019d6:	e022                	sd	s0,0(sp)
 10019d8:	04055c63          	bgez	a0,1001a30 <__spl_start+0x540>
 10019dc:	00151713          	slli	a4,a0,0x1
 10019e0:	88b6                	mv	a7,a3
 10019e2:	8305                	srli	a4,a4,0x1
 10019e4:	46a5                	li	a3,9
 10019e6:	842e                	mv	s0,a1
 10019e8:	02d70563          	beq	a4,a3,1001a12 <__spl_start+0x522>
 10019ec:	87aa                	mv	a5,a0
 10019ee:	8832                	mv	a6,a2
 10019f0:	00e6ee63          	bltu	a3,a4,1001a0c <__spl_start+0x51c>
 10019f4:	576d                	li	a4,-5
 10019f6:	8305                	srli	a4,a4,0x1
 10019f8:	8f69                	and	a4,a4,a0
 10019fa:	4695                	li	a3,5
 10019fc:	02d71663          	bne	a4,a3,1001a28 <__spl_start+0x538>
 1001a00:	4501                	li	a0,0
 1001a02:	0000a317          	auipc	t1,0xa
 1001a06:	7ae33303          	ld	t1,1966(t1) # 100c1b0 <__spl_start+0xacc0>
 1001a0a:	a809                	j	1001a1c <__spl_start+0x52c>
 1001a0c:	46ad                	li	a3,11
 1001a0e:	00d71d63          	bne	a4,a3,1001a28 <__spl_start+0x538>
 1001a12:	4501                	li	a0,0
 1001a14:	0000a317          	auipc	t1,0xa
 1001a18:	6ec33303          	ld	t1,1772(t1) # 100c100 <__spl_start+0xac10>
 1001a1c:	9302                	jalr	t1
 1001a1e:	60a2                	ld	ra,8(sp)
 1001a20:	8522                	mv	a0,s0
 1001a22:	6402                	ld	s0,0(sp)
 1001a24:	0141                	addi	sp,sp,16
 1001a26:	8082                	ret
 1001a28:	86c6                	mv	a3,a7
 1001a2a:	8642                	mv	a2,a6
 1001a2c:	85a2                	mv	a1,s0
 1001a2e:	853e                	mv	a0,a5
 1001a30:	f21ff0ef          	jal	ra,1001950 <__spl_start+0x460>
 1001a34:	1141                	addi	sp,sp,-16
 1001a36:	00007517          	auipc	a0,0x7
 1001a3a:	14250513          	addi	a0,a0,322 # 1008b78 <__spl_start+0x7688>
 1001a3e:	e406                	sd	ra,8(sp)
 1001a40:	455030ef          	jal	ra,1005694 <__spl_start+0x41a4>
 1001a44:	00007517          	auipc	a0,0x7
 1001a48:	14450513          	addi	a0,a0,324 # 1008b88 <__spl_start+0x7698>
 1001a4c:	449030ef          	jal	ra,1005694 <__spl_start+0x41a4>
 1001a50:	68a030ef          	jal	ra,10050da <__spl_start+0x3bea>
 1001a54:	479d                	li	a5,7
 1001a56:	08a7e463          	bltu	a5,a0,1001ade <__spl_start+0x5ee>
 1001a5a:	7179                	addi	sp,sp,-48
 1001a5c:	ec26                	sd	s1,24(sp)
 1001a5e:	00b50493          	addi	s1,a0,11
 1001a62:	0496                	slli	s1,s1,0x5
 1001a64:	f022                	sd	s0,32(sp)
 1001a66:	f406                	sd	ra,40(sp)
 1001a68:	e84a                	sd	s2,16(sp)
 1001a6a:	e44e                	sd	s3,8(sp)
 1001a6c:	009187b3          	add	a5,gp,s1
 1001a70:	4b9c                	lw	a5,16(a5)
 1001a72:	842a                	mv	s0,a0
 1001a74:	2781                	sext.w	a5,a5
 1001a76:	0230000f          	fence	r,rw
 1001a7a:	cbb9                	beqz	a5,1001ad0 <__spl_start+0x5e0>
 1001a7c:	00551913          	slli	s2,a0,0x5
 1001a80:	003907b3          	add	a5,s2,gp
 1001a84:	1587b983          	ld	s3,344(a5)
 1001a88:	e3bff0ef          	jal	ra,10018c2 <__spl_start+0x3d2>
 1001a8c:	0004051b          	sext.w	a0,s0
 1001a90:	e95ff0ef          	jal	ra,1001924 <__spl_start+0x434>
 1001a94:	862a                	mv	a2,a0
 1001a96:	cd11                	beqz	a0,1001ab2 <__spl_start+0x5c2>
 1001a98:	85a2                	mv	a1,s0
 1001a9a:	7402                	ld	s0,32(sp)
 1001a9c:	70a2                	ld	ra,40(sp)
 1001a9e:	64e2                	ld	s1,24(sp)
 1001aa0:	6942                	ld	s2,16(sp)
 1001aa2:	69a2                	ld	s3,8(sp)
 1001aa4:	00007517          	auipc	a0,0x7
 1001aa8:	36450513          	addi	a0,a0,868 # 1008e08 <__spl_start+0x7918>
 1001aac:	6145                	addi	sp,sp,48
 1001aae:	3e70306f          	j	1005694 <__spl_start+0x41a4>
 1001ab2:	012187b3          	add	a5,gp,s2
 1001ab6:	948e                	add	s1,s1,gp
 1001ab8:	8522                	mv	a0,s0
 1001aba:	7402                	ld	s0,32(sp)
 1001abc:	6490                	ld	a2,8(s1)
 1001abe:	1607b583          	ld	a1,352(a5)
 1001ac2:	70a2                	ld	ra,40(sp)
 1001ac4:	64e2                	ld	s1,24(sp)
 1001ac6:	6942                	ld	s2,16(sp)
 1001ac8:	87ce                	mv	a5,s3
 1001aca:	69a2                	ld	s3,8(sp)
 1001acc:	6145                	addi	sp,sp,48
 1001ace:	8782                	jr	a5
 1001ad0:	70a2                	ld	ra,40(sp)
 1001ad2:	7402                	ld	s0,32(sp)
 1001ad4:	64e2                	ld	s1,24(sp)
 1001ad6:	6942                	ld	s2,16(sp)
 1001ad8:	69a2                	ld	s3,8(sp)
 1001ada:	6145                	addi	sp,sp,48
 1001adc:	8082                	ret
 1001ade:	8082                	ret
 1001ae0:	7175                	addi	sp,sp,-144
 1001ae2:	fca6                	sd	s1,120(sp)
 1001ae4:	84aa                	mv	s1,a0
 1001ae6:	00007517          	auipc	a0,0x7
 1001aea:	49a50513          	addi	a0,a0,1178 # 1008f80 <__spl_start+0x7a90>
 1001aee:	f8ca                	sd	s2,112(sp)
 1001af0:	f4ce                	sd	s3,104(sp)
 1001af2:	f0d2                	sd	s4,96(sp)
 1001af4:	e506                	sd	ra,136(sp)
 1001af6:	e122                	sd	s0,128(sp)
 1001af8:	ecd6                	sd	s5,88(sp)
 1001afa:	e8da                	sd	s6,80(sp)
 1001afc:	e4de                	sd	s7,72(sp)
 1001afe:	e0e2                	sd	s8,64(sp)
 1001b00:	fc66                	sd	s9,56(sp)
 1001b02:	f86a                	sd	s10,48(sp)
 1001b04:	f46e                	sd	s11,40(sp)
 1001b06:	892e                	mv	s2,a1
 1001b08:	89b2                	mv	s3,a2
 1001b0a:	8a36                	mv	s4,a3
 1001b0c:	3eb040ef          	jal	ra,10066f6 <__spl_start+0x5206>
 1001b10:	02055963          	bgez	a0,1001b42 <__spl_start+0x652>
 1001b14:	00007517          	auipc	a0,0x7
 1001b18:	47450513          	addi	a0,a0,1140 # 1008f88 <__spl_start+0x7a98>
 1001b1c:	379030ef          	jal	ra,1005694 <__spl_start+0x41a4>
 1001b20:	57a9                	li	a5,-22
 1001b22:	60aa                	ld	ra,136(sp)
 1001b24:	640a                	ld	s0,128(sp)
 1001b26:	74e6                	ld	s1,120(sp)
 1001b28:	7946                	ld	s2,112(sp)
 1001b2a:	79a6                	ld	s3,104(sp)
 1001b2c:	7a06                	ld	s4,96(sp)
 1001b2e:	6ae6                	ld	s5,88(sp)
 1001b30:	6b46                	ld	s6,80(sp)
 1001b32:	6ba6                	ld	s7,72(sp)
 1001b34:	6c06                	ld	s8,64(sp)
 1001b36:	7ce2                	ld	s9,56(sp)
 1001b38:	7d42                	ld	s10,48(sp)
 1001b3a:	7da2                	ld	s11,40(sp)
 1001b3c:	853e                	mv	a0,a5
 1001b3e:	6149                	addi	sp,sp,144
 1001b40:	8082                	ret
 1001b42:	0005059b          	sext.w	a1,a0
 1001b46:	0d81b503          	ld	a0,216(gp)
 1001b4a:	356020ef          	jal	ra,1003ea0 <__spl_start+0x29b0>
 1001b4e:	0005041b          	sext.w	s0,a0
 1001b52:	00055363          	bgez	a0,1001b58 <__spl_start+0x668>
 1001b56:	547d                	li	s0,-1
 1001b58:	01810b13          	addi	s6,sp,24 # 30303018 <__soc_ctrl_scratch1+0x2e303000>
 1001b5c:	00007b97          	auipc	s7,0x7
 1001b60:	444b8b93          	addi	s7,s7,1092 # 1008fa0 <__spl_start+0x7ab0>
 1001b64:	4c1d                	li	s8,7
 1001b66:	4c85                	li	s9,1
 1001b68:	4a85                	li	s5,1
 1001b6a:	01c10d13          	addi	s10,sp,28
 1001b6e:	00007d97          	auipc	s11,0x7
 1001b72:	43ad8d93          	addi	s11,s11,1082 # 1008fa8 <__spl_start+0x7ab8>
 1001b76:	57fd                	li	a5,-1
 1001b78:	00f41463          	bne	s0,a5,1001b80 <__spl_start+0x690>
 1001b7c:	4781                	li	a5,0
 1001b7e:	b755                	j	1001b22 <__spl_start+0x632>
 1001b80:	8522                	mv	a0,s0
 1001b82:	3f5040ef          	jal	ra,1006776 <__spl_start+0x5286>
 1001b86:	c505                	beqz	a0,1001bae <__spl_start+0x6be>
 1001b88:	865a                	mv	a2,s6
 1001b8a:	85de                	mv	a1,s7
 1001b8c:	8522                	mv	a0,s0
 1001b8e:	2cd040ef          	jal	ra,100665a <__spl_start+0x516a>
 1001b92:	ed11                	bnez	a0,1001bae <__spl_start+0x6be>
 1001b94:	45e2                	lw	a1,24(sp)
 1001b96:	1401b683          	ld	a3,320(gp)
 1001b9a:	02059793          	slli	a5,a1,0x20
 1001b9e:	9381                	srli	a5,a5,0x20
 1001ba0:	00d78763          	beq	a5,a3,1001bae <__spl_start+0x6be>
 1001ba4:	02bc7063          	bgeu	s8,a1,1001bc4 <__spl_start+0x6d4>
 1001ba8:	856e                	mv	a0,s11
 1001baa:	2eb030ef          	jal	ra,1005694 <__spl_start+0x41a4>
 1001bae:	0d81b503          	ld	a0,216(gp)
 1001bb2:	85a2                	mv	a1,s0
 1001bb4:	30c020ef          	jal	ra,1003ec0 <__spl_start+0x29d0>
 1001bb8:	0005041b          	sext.w	s0,a0
 1001bbc:	fa055de3          	bgez	a0,1001b76 <__spl_start+0x686>
 1001bc0:	547d                	li	s0,-1
 1001bc2:	bf55                	j	1001b76 <__spl_start+0x686>
 1001bc4:	2581b683          	ld	a3,600(gp)
 1001bc8:	00bc95bb          	sllw	a1,s9,a1
 1001bcc:	8df5                	and	a1,a1,a3
 1001bce:	d1e5                	beqz	a1,1001bae <__spl_start+0x6be>
 1001bd0:	00579693          	slli	a3,a5,0x5
 1001bd4:	07ad                	addi	a5,a5,11
 1001bd6:	968e                	add	a3,a3,gp
 1001bd8:	0796                	slli	a5,a5,0x5
 1001bda:	1496bc23          	sd	s1,344(a3)
 1001bde:	1726b023          	sd	s2,352(a3)
 1001be2:	00f18733          	add	a4,gp,a5
 1001be6:	01373423          	sd	s3,8(a4) # 19008 <_start-0xfe6ff8>
 1001bea:	0310000f          	fence	rw,w
 1001bee:	4562                	lw	a0,24(sp)
 1001bf0:	02051713          	slli	a4,a0,0x20
 1001bf4:	01b75793          	srli	a5,a4,0x1b
 1001bf8:	16078793          	addi	a5,a5,352
 1001bfc:	978e                	add	a5,a5,gp
 1001bfe:	0157a823          	sw	s5,16(a5)
 1001c02:	d0dff0ef          	jal	ra,100190e <__spl_start+0x41e>
 1001c06:	c919                	beqz	a0,1001c1c <__spl_start+0x72c>
 1001c08:	45e2                	lw	a1,24(sp)
 1001c0a:	e42a                	sd	a0,8(sp)
 1001c0c:	00007517          	auipc	a0,0x7
 1001c10:	3d450513          	addi	a0,a0,980 # 1008fe0 <__spl_start+0x7af0>
 1001c14:	281030ef          	jal	ra,1005694 <__spl_start+0x41a4>
 1001c18:	67a2                	ld	a5,8(sp)
 1001c1a:	b721                	j	1001b22 <__spl_start+0x632>
 1001c1c:	f80a09e3          	beqz	s4,1001bae <__spl_start+0x6be>
 1001c20:	ce56                	sw	s5,28(sp)
 1001c22:	4562                	lw	a0,24(sp)
 1001c24:	85ea                	mv	a1,s10
 1001c26:	d15ff0ef          	jal	ra,100193a <__spl_start+0x44a>
 1001c2a:	87aa                	mv	a5,a0
 1001c2c:	ee051be3          	bnez	a0,1001b22 <__spl_start+0x632>
 1001c30:	47f2                	lw	a5,28(sp)
 1001c32:	fbe5                	bnez	a5,1001c22 <__spl_start+0x732>
 1001c34:	bfad                	j	1001bae <__spl_start+0x6be>
 1001c36:	1141                	addi	sp,sp,-16
 1001c38:	e406                	sd	ra,8(sp)
 1001c3a:	404000ef          	jal	ra,100203e <__spl_start+0xb4e>
 1001c3e:	c901                	beqz	a0,1001c4e <__spl_start+0x75e>
 1001c40:	85aa                	mv	a1,a0
 1001c42:	00007517          	auipc	a0,0x7
 1001c46:	e0650513          	addi	a0,a0,-506 # 1008a48 <__spl_start+0x7558>
 1001c4a:	728030ef          	jal	ra,1005372 <__spl_start+0x3e82>
 1001c4e:	b23ff0ef          	jal	ra,1001770 <__spl_start+0x280>
 1001c52:	5aa000ef          	jal	ra,10021fc <__spl_start+0xd0c>
 1001c56:	0000a317          	auipc	t1,0xa
 1001c5a:	4a233303          	ld	t1,1186(t1) # 100c0f8 <__spl_start+0xac08>
 1001c5e:	9302                	jalr	t1
 1001c60:	85aa                	mv	a1,a0
 1001c62:	c511                	beqz	a0,1001c6e <__spl_start+0x77e>
 1001c64:	00007517          	auipc	a0,0x7
 1001c68:	e0450513          	addi	a0,a0,-508 # 1008a68 <__spl_start+0x7578>
 1001c6c:	bff9                	j	1001c4a <__spl_start+0x75a>
 1001c6e:	60a2                	ld	ra,8(sp)
 1001c70:	0141                	addi	sp,sp,16
 1001c72:	8082                	ret
 1001c74:	1101                	addi	sp,sp,-32
 1001c76:	e822                	sd	s0,16(sp)
 1001c78:	ec06                	sd	ra,24(sp)
 1001c7a:	e426                	sd	s1,8(sp)
 1001c7c:	e04a                	sd	s2,0(sp)
 1001c7e:	7104                	ld	s1,32(a0)
 1001c80:	01853903          	ld	s2,24(a0)
 1001c84:	842a                	mv	s0,a0
 1001c86:	c3dff0ef          	jal	ra,10018c2 <__spl_start+0x3d2>
 1001c8a:	6c08                	ld	a0,24(s0)
 1001c8c:	4681                	li	a3,0
 1001c8e:	4601                	li	a2,0
 1001c90:	85a6                	mv	a1,s1
 1001c92:	e4fff0ef          	jal	ra,1001ae0 <__spl_start+0x5f0>
 1001c96:	c119                	beqz	a0,1001c9c <__spl_start+0x7ac>
 1001c98:	442030ef          	jal	ra,10050da <__spl_start+0x3bea>
 1001c9c:	1401b503          	ld	a0,320(gp)
 1001ca0:	85a6                	mv	a1,s1
 1001ca2:	9902                	jalr	s2
	...
 1001cb0:	82aa                	mv	t0,a0
 1001cb2:	01063693          	sltiu	a3,a2,16
 1001cb6:	e2f5                	bnez	a3,1001d9a <__spl_start+0x8aa>
 1001cb8:	00728693          	addi	a3,t0,7
 1001cbc:	9ae1                	andi	a3,a3,-8
 1001cbe:	00568a63          	beq	a3,t0,1001cd2 <__spl_start+0x7e2>
 1001cc2:	40568733          	sub	a4,a3,t0
 1001cc6:	00b28023          	sb	a1,0(t0)
 1001cca:	0285                	addi	t0,t0,1
 1001ccc:	fed2ede3          	bltu	t0,a3,1001cc6 <__spl_start+0x7d6>
 1001cd0:	8e19                	sub	a2,a2,a4
 1001cd2:	0ff5f593          	andi	a1,a1,255
 1001cd6:	00859693          	slli	a3,a1,0x8
 1001cda:	8dd5                	or	a1,a1,a3
 1001cdc:	01059693          	slli	a3,a1,0x10
 1001ce0:	8dd5                	or	a1,a1,a3
 1001ce2:	02059693          	slli	a3,a1,0x20
 1001ce6:	8dd5                	or	a1,a1,a3
 1001ce8:	ff867713          	andi	a4,a2,-8
 1001cec:	00e286b3          	add	a3,t0,a4
 1001cf0:	0f877713          	andi	a4,a4,248
 1001cf4:	cf11                	beqz	a4,1001d10 <__spl_start+0x820>
 1001cf6:	40e00733          	neg	a4,a4
 1001cfa:	10070713          	addi	a4,a4,256
 1001cfe:	40e282b3          	sub	t0,t0,a4
 1001d02:	0000a797          	auipc	a5,0xa
 1001d06:	3be7b783          	ld	a5,958(a5) # 100c0c0 <__spl_start+0xabd0>
 1001d0a:	8305                	srli	a4,a4,0x1
 1001d0c:	97ba                	add	a5,a5,a4
 1001d0e:	8782                	jr	a5
 1001d10:	00b2b023          	sd	a1,0(t0)
 1001d14:	00b2b423          	sd	a1,8(t0)
 1001d18:	00b2b823          	sd	a1,16(t0)
 1001d1c:	00b2bc23          	sd	a1,24(t0)
 1001d20:	02b2b023          	sd	a1,32(t0)
 1001d24:	02b2b423          	sd	a1,40(t0)
 1001d28:	02b2b823          	sd	a1,48(t0)
 1001d2c:	02b2bc23          	sd	a1,56(t0)
 1001d30:	04b2b023          	sd	a1,64(t0)
 1001d34:	04b2b423          	sd	a1,72(t0)
 1001d38:	04b2b823          	sd	a1,80(t0)
 1001d3c:	04b2bc23          	sd	a1,88(t0)
 1001d40:	06b2b023          	sd	a1,96(t0)
 1001d44:	06b2b423          	sd	a1,104(t0)
 1001d48:	06b2b823          	sd	a1,112(t0)
 1001d4c:	06b2bc23          	sd	a1,120(t0)
 1001d50:	08b2b023          	sd	a1,128(t0)
 1001d54:	08b2b423          	sd	a1,136(t0)
 1001d58:	08b2b823          	sd	a1,144(t0)
 1001d5c:	08b2bc23          	sd	a1,152(t0)
 1001d60:	0ab2b023          	sd	a1,160(t0)
 1001d64:	0ab2b423          	sd	a1,168(t0)
 1001d68:	0ab2b823          	sd	a1,176(t0)
 1001d6c:	0ab2bc23          	sd	a1,184(t0)
 1001d70:	0cb2b023          	sd	a1,192(t0)
 1001d74:	0cb2b423          	sd	a1,200(t0)
 1001d78:	0cb2b823          	sd	a1,208(t0)
 1001d7c:	0cb2bc23          	sd	a1,216(t0)
 1001d80:	0eb2b023          	sd	a1,224(t0)
 1001d84:	0eb2b423          	sd	a1,232(t0)
 1001d88:	0eb2b823          	sd	a1,240(t0)
 1001d8c:	0eb2bc23          	sd	a1,248(t0)
 1001d90:	10028293          	addi	t0,t0,256
 1001d94:	f6d2eee3          	bltu	t0,a3,1001d10 <__spl_start+0x820>
 1001d98:	8a1d                	andi	a2,a2,7
 1001d9a:	ca01                	beqz	a2,1001daa <__spl_start+0x8ba>
 1001d9c:	00c286b3          	add	a3,t0,a2
 1001da0:	00b28023          	sb	a1,0(t0)
 1001da4:	0285                	addi	t0,t0,1
 1001da6:	fed2ede3          	bltu	t0,a3,1001da0 <__spl_start+0x8b0>
 1001daa:	8082                	ret
	...
 1001dc0:	40b502b3          	sub	t0,a0,a1
 1001dc4:	00c2e363          	bltu	t0,a2,1001dca <__spl_start+0x8da>
 1001dc8:	a061                	j	1001e50 <__spl_start+0x960>
 1001dca:	82aa                	mv	t0,a0
 1001dcc:	9532                	add	a0,a0,a2
 1001dce:	95b2                	add	a1,a1,a2
 1001dd0:	46c1                	li	a3,16
 1001dd2:	02d66b63          	bltu	a2,a3,1001e08 <__spl_start+0x918>
 1001dd6:	ff857613          	andi	a2,a0,-8
 1001dda:	00c50a63          	beq	a0,a2,1001dee <__spl_start+0x8fe>
 1001dde:	15fd                	addi	a1,a1,-1
 1001de0:	00058783          	lb	a5,0(a1)
 1001de4:	157d                	addi	a0,a0,-1
 1001de6:	00f50023          	sb	a5,0(a0)
 1001dea:	fec51ae3          	bne	a0,a2,1001dde <__spl_start+0x8ee>
 1001dee:	0075f693          	andi	a3,a1,7
 1001df2:	e69d                	bnez	a3,1001e20 <__spl_start+0x930>
 1001df4:	029d                	addi	t0,t0,7
 1001df6:	00a2f863          	bgeu	t0,a0,1001e06 <__spl_start+0x916>
 1001dfa:	15e1                	addi	a1,a1,-8
 1001dfc:	619c                	ld	a5,0(a1)
 1001dfe:	1561                	addi	a0,a0,-8
 1001e00:	e11c                	sd	a5,0(a0)
 1001e02:	fea2ece3          	bltu	t0,a0,1001dfa <__spl_start+0x90a>
 1001e06:	12e5                	addi	t0,t0,-7
 1001e08:	00550a63          	beq	a0,t0,1001e1c <__spl_start+0x92c>
 1001e0c:	15fd                	addi	a1,a1,-1
 1001e0e:	00058783          	lb	a5,0(a1)
 1001e12:	157d                	addi	a0,a0,-1
 1001e14:	00f50023          	sb	a5,0(a0)
 1001e18:	fe551ae3          	bne	a0,t0,1001e0c <__spl_start+0x91c>
 1001e1c:	8516                	mv	a0,t0
 1001e1e:	8082                	ret
 1001e20:	00369e13          	slli	t3,a3,0x3
 1001e24:	41c00eb3          	neg	t4,t3
 1001e28:	99e1                	andi	a1,a1,-8
 1001e2a:	619c                	ld	a5,0(a1)
 1001e2c:	029d                	addi	t0,t0,7
 1001e2e:	01d79733          	sll	a4,a5,t4
 1001e32:	15e1                	addi	a1,a1,-8
 1001e34:	619c                	ld	a5,0(a1)
 1001e36:	01c7d633          	srl	a2,a5,t3
 1001e3a:	8e59                	or	a2,a2,a4
 1001e3c:	1561                	addi	a0,a0,-8
 1001e3e:	e110                	sd	a2,0(a0)
 1001e40:	fea2e7e3          	bltu	t0,a0,1001e2e <__spl_start+0x93e>
 1001e44:	12e5                	addi	t0,t0,-7
 1001e46:	95b6                	add	a1,a1,a3
 1001e48:	b7c1                	j	1001e08 <__spl_start+0x918>
 1001e4a:	0000                	unimp
 1001e4c:	0000                	unimp
 1001e4e:	0000                	unimp
 1001e50:	8faa                	mv	t6,a0
 1001e52:	00c502b3          	add	t0,a0,a2
 1001e56:	46c1                	li	a3,16
 1001e58:	0ad66763          	bltu	a2,a3,1001f06 <__spl_start+0xa16>
 1001e5c:	00750613          	addi	a2,a0,7
 1001e60:	9a61                	andi	a2,a2,-8
 1001e62:	00c50a63          	beq	a0,a2,1001e76 <__spl_start+0x986>
 1001e66:	00058783          	lb	a5,0(a1)
 1001e6a:	0585                	addi	a1,a1,1
 1001e6c:	00f50023          	sb	a5,0(a0)
 1001e70:	0505                	addi	a0,a0,1
 1001e72:	fec51ae3          	bne	a0,a2,1001e66 <__spl_start+0x976>
 1001e76:	0075f693          	andi	a3,a1,7
 1001e7a:	e2d5                	bnez	a3,1001f1e <__spl_start+0xa2e>
 1001e7c:	f8128293          	addi	t0,t0,-127
 1001e80:	06557863          	bgeu	a0,t0,1001ef0 <__spl_start+0xa00>
 1001e84:	6190                	ld	a2,0(a1)
 1001e86:	6594                	ld	a3,8(a1)
 1001e88:	6998                	ld	a4,16(a1)
 1001e8a:	6d9c                	ld	a5,24(a1)
 1001e8c:	0205b803          	ld	a6,32(a1)
 1001e90:	0285b883          	ld	a7,40(a1)
 1001e94:	0305b303          	ld	t1,48(a1)
 1001e98:	0385b383          	ld	t2,56(a1)
 1001e9c:	0405be03          	ld	t3,64(a1)
 1001ea0:	0485be83          	ld	t4,72(a1)
 1001ea4:	0505bf03          	ld	t5,80(a1)
 1001ea8:	e110                	sd	a2,0(a0)
 1001eaa:	e514                	sd	a3,8(a0)
 1001eac:	e918                	sd	a4,16(a0)
 1001eae:	ed1c                	sd	a5,24(a0)
 1001eb0:	03053023          	sd	a6,32(a0)
 1001eb4:	03153423          	sd	a7,40(a0)
 1001eb8:	02653823          	sd	t1,48(a0)
 1001ebc:	02753c23          	sd	t2,56(a0)
 1001ec0:	05c53023          	sd	t3,64(a0)
 1001ec4:	05d53423          	sd	t4,72(a0)
 1001ec8:	05e53823          	sd	t5,80(a0)
 1001ecc:	6db0                	ld	a2,88(a1)
 1001ece:	71b4                	ld	a3,96(a1)
 1001ed0:	75b8                	ld	a4,104(a1)
 1001ed2:	79bc                	ld	a5,112(a1)
 1001ed4:	0785b803          	ld	a6,120(a1)
 1001ed8:	08058593          	addi	a1,a1,128
 1001edc:	ed30                	sd	a2,88(a0)
 1001ede:	f134                	sd	a3,96(a0)
 1001ee0:	f538                	sd	a4,104(a0)
 1001ee2:	f93c                	sd	a5,112(a0)
 1001ee4:	07053c23          	sd	a6,120(a0)
 1001ee8:	08050513          	addi	a0,a0,128
 1001eec:	f8556ce3          	bltu	a0,t0,1001e84 <__spl_start+0x994>
 1001ef0:	07828293          	addi	t0,t0,120
 1001ef4:	00557863          	bgeu	a0,t0,1001f04 <__spl_start+0xa14>
 1001ef8:	619c                	ld	a5,0(a1)
 1001efa:	05a1                	addi	a1,a1,8
 1001efc:	e11c                	sd	a5,0(a0)
 1001efe:	0521                	addi	a0,a0,8
 1001f00:	fe556ce3          	bltu	a0,t0,1001ef8 <__spl_start+0xa08>
 1001f04:	029d                	addi	t0,t0,7
 1001f06:	00550a63          	beq	a0,t0,1001f1a <__spl_start+0xa2a>
 1001f0a:	00058783          	lb	a5,0(a1)
 1001f0e:	0585                	addi	a1,a1,1
 1001f10:	00f50023          	sb	a5,0(a0)
 1001f14:	0505                	addi	a0,a0,1
 1001f16:	fe551ae3          	bne	a0,t0,1001f0a <__spl_start+0xa1a>
 1001f1a:	857e                	mv	a0,t6
 1001f1c:	8082                	ret
 1001f1e:	00369e13          	slli	t3,a3,0x3
 1001f22:	41c00eb3          	neg	t4,t3
 1001f26:	99e1                	andi	a1,a1,-8
 1001f28:	619c                	ld	a5,0(a1)
 1001f2a:	12e5                	addi	t0,t0,-7
 1001f2c:	01c7d733          	srl	a4,a5,t3
 1001f30:	659c                	ld	a5,8(a1)
 1001f32:	05a1                	addi	a1,a1,8
 1001f34:	01d79633          	sll	a2,a5,t4
 1001f38:	8e59                	or	a2,a2,a4
 1001f3a:	e110                	sd	a2,0(a0)
 1001f3c:	0521                	addi	a0,a0,8
 1001f3e:	fe5567e3          	bltu	a0,t0,1001f2c <__spl_start+0xa3c>
 1001f42:	029d                	addi	t0,t0,7
 1001f44:	95b6                	add	a1,a1,a3
 1001f46:	b7c1                	j	1001f06 <__spl_start+0xa16>
	...
 1001f54:	4501                	li	a0,0
 1001f56:	8082                	ret
 1001f58:	4521                	li	a0,8
 1001f5a:	8082                	ret
 1001f5c:	4501                	li	a0,0
 1001f5e:	8082                	ret
 1001f60:	8082                	ret
 1001f62:	1141                	addi	sp,sp,-16
 1001f64:	e406                	sd	ra,8(sp)
 1001f66:	670d                	lui	a4,0x3
 1001f68:	12e1b423          	sd	a4,296(gp)
 1001f6c:	0a400513          	li	a0,164
 1001f70:	0000a317          	auipc	t1,0xa
 1001f74:	1b833303          	ld	t1,440(t1) # 100c128 <__spl_start+0xac38>
 1001f78:	1201b823          	sd	zero,304(gp)
 1001f7c:	9302                	jalr	t1
 1001f7e:	12c030ef          	jal	ra,10050aa <__spl_start+0x3bba>
 1001f82:	e511                	bnez	a0,1001f8e <__spl_start+0xa9e>
 1001f84:	60a2                	ld	ra,8(sp)
 1001f86:	4505                	li	a0,1
 1001f88:	0141                	addi	sp,sp,16
 1001f8a:	0ba0406f          	j	1006044 <__spl_start+0x4b54>
 1001f8e:	60a2                	ld	ra,8(sp)
 1001f90:	0141                	addi	sp,sp,16
 1001f92:	8082                	ret
 1001f94:	8082                	ret
 1001f96:	8082                	ret
 1001f98:	40100793          	li	a5,1025
 1001f9c:	07d6                	slli	a5,a5,0x15
 1001f9e:	953e                	add	a0,a0,a5
 1001fa0:	8082                	ret
 1001fa2:	0000a797          	auipc	a5,0xa
 1001fa6:	1ee7b783          	ld	a5,494(a5) # 100c190 <__spl_start+0xaca0>
 1001faa:	639c                	ld	a5,0(a5)
 1001fac:	5775                	li	a4,-3
 1001fae:	fff78693          	addi	a3,a5,-1
 1001fb2:	00d77563          	bgeu	a4,a3,1001fbc <__spl_start+0xacc>
 1001fb6:	40100793          	li	a5,1025
 1001fba:	07d6                	slli	a5,a5,0x15
 1001fbc:	ed1c                	sd	a5,24(a0)
 1001fbe:	e91c                	sd	a5,16(a0)
 1001fc0:	47c5                	li	a5,17
 1001fc2:	00032737          	lui	a4,0x32
 1001fc6:	00f50423          	sb	a5,8(a0)
 1001fca:	00008797          	auipc	a5,0x8
 1001fce:	34e78793          	addi	a5,a5,846 # 100a318 <__spl_start+0x8e28>
 1001fd2:	d558                	sw	a4,44(a0)
 1001fd4:	e11c                	sd	a5,0(a0)
 1001fd6:	8082                	ret
 1001fd8:	5529                	li	a0,-22
 1001fda:	8082                	ret
 1001fdc:	4198                	lw	a4,0(a1)
 1001fde:	00ff0637          	lui	a2,0xff0
 1001fe2:	0187569b          	srliw	a3,a4,0x18
 1001fe6:	0187179b          	slliw	a5,a4,0x18
 1001fea:	8fd5                	or	a5,a5,a3
 1001fec:	0087169b          	slliw	a3,a4,0x8
 1001ff0:	8ef1                	and	a3,a3,a2
 1001ff2:	8fd5                	or	a5,a5,a3
 1001ff4:	66c1                	lui	a3,0x10
 1001ff6:	0087571b          	srliw	a4,a4,0x8
 1001ffa:	f0068693          	addi	a3,a3,-256 # ff00 <_start-0xff0100>
 1001ffe:	8f75                	and	a4,a4,a3
 1002000:	8fd9                	or	a5,a5,a4
 1002002:	27052737          	lui	a4,0x27052
 1002006:	2781                	sext.w	a5,a5
 1002008:	95670713          	addi	a4,a4,-1706 # 27051956 <__soc_ctrl_scratch1+0x2505193e>
 100200c:	00e79763          	bne	a5,a4,100201a <__spl_start+0xb2a>
 1002010:	0000a317          	auipc	t1,0xa
 1002014:	13033303          	ld	t1,304(t1) # 100c140 <__spl_start+0xac50>
 1002018:	8302                	jr	t1
 100201a:	1141                	addi	sp,sp,-16
 100201c:	e406                	sd	ra,8(sp)
 100201e:	f85ff0ef          	jal	ra,1001fa2 <__spl_start+0xab2>
 1002022:	60a2                	ld	ra,8(sp)
 1002024:	4501                	li	a0,0
 1002026:	0141                	addi	sp,sp,16
 1002028:	8082                	ret
 100202a:	0001b703          	ld	a4,0(gp)
 100202e:	e719                	bnez	a4,100203c <__spl_start+0xb4c>
 1002030:	00009717          	auipc	a4,0x9
 1002034:	3a070713          	addi	a4,a4,928 # 100b3d0 <__spl_start+0x9ee0>
 1002038:	00e1b023          	sd	a4,0(gp)
 100203c:	8082                	ret
 100203e:	1141                	addi	sp,sp,-16
 1002040:	e406                	sd	ra,8(sp)
 1002042:	f21ff0ef          	jal	ra,1001f62 <__spl_start+0xa72>
 1002046:	e519                	bnez	a0,1002054 <__spl_start+0xb64>
 1002048:	0081b783          	ld	a5,8(gp)
 100204c:	6691                	lui	a3,0x4
 100204e:	8fd5                	or	a5,a5,a3
 1002050:	00f1b423          	sd	a5,8(gp)
 1002054:	60a2                	ld	ra,8(sp)
 1002056:	0141                	addi	sp,sp,16
 1002058:	8082                	ret
 100205a:	0081b703          	ld	a4,8(gp)
 100205e:	6791                	lui	a5,0x4
 1002060:	8ff9                	and	a5,a5,a4
 1002062:	cb89                	beqz	a5,1002074 <__spl_start+0xb84>
 1002064:	0081b783          	ld	a5,8(gp)
 1002068:	4501                	li	a0,0
 100206a:	4007e793          	ori	a5,a5,1024
 100206e:	00f1b423          	sd	a5,8(gp)
 1002072:	8082                	ret
 1002074:	1141                	addi	sp,sp,-16
 1002076:	e406                	sd	ra,8(sp)
 1002078:	eebff0ef          	jal	ra,1001f62 <__spl_start+0xa72>
 100207c:	e901                	bnez	a0,100208c <__spl_start+0xb9c>
 100207e:	0081b783          	ld	a5,8(gp)
 1002082:	4501                	li	a0,0
 1002084:	4007e793          	ori	a5,a5,1024
 1002088:	00f1b423          	sd	a5,8(gp)
 100208c:	60a2                	ld	ra,8(sp)
 100208e:	0141                	addi	sp,sp,16
 1002090:	8082                	ret
 1002092:	1141                	addi	sp,sp,-16
 1002094:	e022                	sd	s0,0(sp)
 1002096:	e406                	sd	ra,8(sp)
 1002098:	842a                	mv	s0,a0
 100209a:	ebfff0ef          	jal	ra,1001f58 <__spl_start+0xa68>
 100209e:	60a2                	ld	ra,8(sp)
 10020a0:	c008                	sw	a0,0(s0)
 10020a2:	6402                	ld	s0,0(sp)
 10020a4:	0141                	addi	sp,sp,16
 10020a6:	8082                	ret
 10020a8:	7131                	addi	sp,sp,-192
 10020aa:	f922                	sd	s0,176(sp)
 10020ac:	0820                	addi	s0,sp,24
 10020ae:	4651                	li	a2,20
 10020b0:	00006597          	auipc	a1,0x6
 10020b4:	70058593          	addi	a1,a1,1792 # 10087b0 <__spl_start+0x72c0>
 10020b8:	8522                	mv	a0,s0
 10020ba:	fd06                	sd	ra,184(sp)
 10020bc:	f526                	sd	s1,168(sp)
 10020be:	f14a                	sd	s2,160(sp)
 10020c0:	ed4e                	sd	s3,152(sp)
 10020c2:	e952                	sd	s4,144(sp)
 10020c4:	e556                	sd	s5,136(sp)
 10020c6:	e15a                	sd	s6,128(sp)
 10020c8:	fcde                	sd	s7,120(sp)
 10020ca:	f8e2                	sd	s8,112(sp)
 10020cc:	d85ff0ef          	jal	ra,1001e50 <__spl_start+0x960>
 10020d0:	f5bff0ef          	jal	ra,100202a <__spl_start+0xb3a>
 10020d4:	02100513          	li	a0,33
 10020d8:	001005b7          	lui	a1,0x100
 10020dc:	056a                	slli	a0,a0,0x1a
 10020de:	73d000ef          	jal	ra,100301a <__spl_start+0x1b2a>
 10020e2:	0081b783          	ld	a5,8(gp)
 10020e6:	2007e693          	ori	a3,a5,512
 10020ea:	00d1b423          	sd	a3,8(gp)
 10020ee:	4007f793          	andi	a5,a5,1024
 10020f2:	e791                	bnez	a5,10020fe <__spl_start+0xc0e>
 10020f4:	f67ff0ef          	jal	ra,100205a <__spl_start+0xb6a>
 10020f8:	c119                	beqz	a0,10020fe <__spl_start+0xc0e>
 10020fa:	7e1020ef          	jal	ra,10050da <__spl_start+0x3bea>
 10020fe:	184030ef          	jal	ra,1005282 <__spl_start+0x3d92>
 1002102:	03010993          	addi	s3,sp,48
 1002106:	04000613          	li	a2,64
 100210a:	4581                	li	a1,0
 100210c:	854e                	mv	a0,s3
 100210e:	ba3ff0ef          	jal	ra,1001cb0 <__spl_start+0x7c0>
 1002112:	deadc4b7          	lui	s1,0xdeadc
 1002116:	eef48913          	addi	s2,s1,-273 # ffffffffdeadbeef <__soc_ctrl_scratch1+0xffffffffdcadbed7>
 100211a:	8522                	mv	a0,s0
 100211c:	0000a317          	auipc	t1,0xa
 1002120:	fc433303          	ld	t1,-60(t1) # 100c0e0 <__spl_start+0xabf0>
 1002124:	ccca                	sw	s2,88(sp)
 1002126:	9302                	jalr	t1
 1002128:	0000a717          	auipc	a4,0xa
 100212c:	58070713          	addi	a4,a4,1408 # 100c6a8 <__spl_start+0xb1b8>
 1002130:	0000a797          	auipc	a5,0xa
 1002134:	5a878793          	addi	a5,a5,1448 # 100c6d8 <__spl_start+0xb1e8>
 1002138:	8f99                	sub	a5,a5,a4
 100213a:	00007697          	auipc	a3,0x7
 100213e:	9b66b683          	ld	a3,-1610(a3) # 1008af0 <__spl_start+0x7600>
 1002142:	878d                	srai	a5,a5,0x3
 1002144:	02d787bb          	mulw	a5,a5,a3
 1002148:	46e1                	li	a3,24
 100214a:	02c10b13          	addi	s6,sp,44
 100214e:	00007a97          	auipc	s5,0x7
 1002152:	952a8a93          	addi	s5,s5,-1710 # 1008aa0 <__spl_start+0x75b0>
 1002156:	00007b97          	auipc	s7,0x7
 100215a:	932b8b93          	addi	s7,s7,-1742 # 1008a88 <__spl_start+0x7598>
 100215e:	00810c13          	addi	s8,sp,8
 1002162:	02d787b3          	mul	a5,a5,a3
 1002166:	00f70a33          	add	s4,a4,a5
 100216a:	401c                	lw	a5,0(s0)
 100216c:	03278363          	beq	a5,s2,1002192 <__spl_start+0xca2>
 1002170:	0000a497          	auipc	s1,0xa
 1002174:	53848493          	addi	s1,s1,1336 # 100c6a8 <__spl_start+0xb1b8>
 1002178:	a029                	j	1002182 <__spl_start+0xc92>
 100217a:	4498                	lw	a4,8(s1)
 100217c:	02f70263          	beq	a4,a5,10021a0 <__spl_start+0xcb0>
 1002180:	04e1                	addi	s1,s1,24
 1002182:	ff449ce3          	bne	s1,s4,100217a <__spl_start+0xc8a>
 1002186:	8556                	mv	a0,s5
 1002188:	61b000ef          	jal	ra,1002fa2 <__spl_start+0x1ab2>
 100218c:	0411                	addi	s0,s0,4
 100218e:	fd641ee3          	bne	s0,s6,100216a <__spl_start+0xc7a>
 1002192:	00007517          	auipc	a0,0x7
 1002196:	92e50513          	addi	a0,a0,-1746 # 1008ac0 <__spl_start+0x75d0>
 100219a:	609000ef          	jal	ra,1002fa2 <__spl_start+0x1ab2>
 100219e:	bfb1                	j	10020fa <__spl_start+0xc0a>
 10021a0:	608c                	ld	a1,0(s1)
 10021a2:	855e                	mv	a0,s7
 10021a4:	4f0030ef          	jal	ra,1005694 <__spl_start+0x41a4>
 10021a8:	449c                	lw	a5,8(s1)
 10021aa:	e802                	sd	zero,16(sp)
 10021ac:	85e2                	mv	a1,s8
 10021ae:	c43e                	sw	a5,8(sp)
 10021b0:	689c                	ld	a5,16(s1)
 10021b2:	854e                	mv	a0,s3
 10021b4:	9782                	jalr	a5
 10021b6:	f979                	bnez	a0,100218c <__spl_start+0xc9c>
 10021b8:	401c                	lw	a5,0(s0)
 10021ba:	854e                	mv	a0,s3
 10021bc:	0000a317          	auipc	t1,0xa
 10021c0:	fec33303          	ld	t1,-20(t1) # 100c1a8 <__spl_start+0xacb8>
 10021c4:	ccbe                	sw	a5,88(sp)
 10021c6:	9302                	jalr	t1
 10021c8:	03814703          	lbu	a4,56(sp)
 10021cc:	47ed                	li	a5,27
 10021ce:	00f71563          	bne	a4,a5,10021d8 <__spl_start+0xce8>
 10021d2:	854e                	mv	a0,s3
 10021d4:	594000ef          	jal	ra,1002768 <__spl_start+0x1278>
 10021d8:	0a500513          	li	a0,165
 10021dc:	0000a317          	auipc	t1,0xa
 10021e0:	f4c33303          	ld	t1,-180(t1) # 100c128 <__spl_start+0xac38>
 10021e4:	9302                	jalr	t1
 10021e6:	0000a317          	auipc	t1,0xa
 10021ea:	fea33303          	ld	t1,-22(t1) # 100c1d0 <__spl_start+0xace0>
 10021ee:	9302                	jalr	t1
 10021f0:	854e                	mv	a0,s3
 10021f2:	0000a317          	auipc	t1,0xa
 10021f6:	f1633303          	ld	t1,-234(t1) # 100c108 <__spl_start+0xac18>
 10021fa:	9302                	jalr	t1
 10021fc:	1141                	addi	sp,sp,-16
 10021fe:	67f1                	lui	a5,0x1c
 1002200:	e406                	sd	ra,8(sp)
 1002202:	20078793          	addi	a5,a5,512 # 1c200 <_start-0xfe3e00>
 1002206:	00f1a823          	sw	a5,16(gp)
 100220a:	20c050ef          	jal	ra,1007416 <__spl_start+0x5f26>
 100220e:	4785                	li	a5,1
 1002210:	02f1bc23          	sd	a5,56(gp)
 1002214:	60a2                	ld	ra,8(sp)
 1002216:	00007517          	auipc	a0,0x7
 100221a:	ca250513          	addi	a0,a0,-862 # 1008eb8 <__spl_start+0x79c8>
 100221e:	0141                	addi	sp,sp,16
 1002220:	5830006f          	j	1002fa2 <__spl_start+0x1ab2>
 1002224:	4501                	li	a0,0
 1002226:	8082                	ret
 1002228:	7139                	addi	sp,sp,-64
 100222a:	f426                	sd	s1,40(sp)
 100222c:	f04a                	sd	s2,32(sp)
 100222e:	fc06                	sd	ra,56(sp)
 1002230:	f822                	sd	s0,48(sp)
 1002232:	ec4e                	sd	s3,24(sp)
 1002234:	8932                	mv	s2,a2
 1002236:	862e                	mv	a2,a1
 1002238:	494c                	lw	a1,20(a0)
 100223a:	6108                	ld	a0,0(a0)
 100223c:	84b6                	mv	s1,a3
 100223e:	0074                	addi	a3,sp,12
 1002240:	1c8020ef          	jal	ra,1004408 <__spl_start+0x2f18>
 1002244:	c11d                	beqz	a0,100226a <__spl_start+0xd7a>
 1002246:	842a                	mv	s0,a0
 1002248:	4981                	li	s3,0
 100224a:	0129c563          	blt	s3,s2,1002254 <__spl_start+0xd64>
 100224e:	e088                	sd	a0,0(s1)
 1002250:	4501                	li	a0,0
 1002252:	a829                	j	100226c <__spl_start+0xd7c>
 1002254:	4581                	li	a1,0
 1002256:	743020ef          	jal	ra,1005198 <__spl_start+0x3ca8>
 100225a:	47b2                	lw	a5,12(sp)
 100225c:	0505                	addi	a0,a0,1
 100225e:	40850733          	sub	a4,a0,s0
 1002262:	00f75c63          	bge	a4,a5,100227a <__spl_start+0xd8a>
 1002266:	2985                	addiw	s3,s3,1
 1002268:	b7cd                	j	100224a <__spl_start+0xd5a>
 100226a:	5529                	li	a0,-22
 100226c:	70e2                	ld	ra,56(sp)
 100226e:	7442                	ld	s0,48(sp)
 1002270:	74a2                	ld	s1,40(sp)
 1002272:	7902                	ld	s2,32(sp)
 1002274:	69e2                	ld	s3,24(sp)
 1002276:	6121                	addi	sp,sp,64
 1002278:	8082                	ret
 100227a:	5565                	li	a0,-7
 100227c:	bfc5                	j	100226c <__spl_start+0xd7c>
 100227e:	7179                	addi	sp,sp,-48
 1002280:	0034                	addi	a3,sp,8
 1002282:	f022                	sd	s0,32(sp)
 1002284:	f406                	sd	ra,40(sp)
 1002286:	ec26                	sd	s1,24(sp)
 1002288:	842a                	mv	s0,a0
 100228a:	f9fff0ef          	jal	ra,1002228 <__spl_start+0xd38>
 100228e:	e115                	bnez	a0,10022b2 <__spl_start+0xdc2>
 1002290:	64a2                	ld	s1,8(sp)
 1002292:	480c                	lw	a1,16(s0)
 1002294:	6008                	ld	a0,0(s0)
 1002296:	8626                	mv	a2,s1
 1002298:	006020ef          	jal	ra,100429e <__spl_start+0x2dae>
 100229c:	00055b63          	bgez	a0,10022b2 <__spl_start+0xdc2>
 10022a0:	862a                	mv	a2,a0
 10022a2:	85a6                	mv	a1,s1
 10022a4:	00008517          	auipc	a0,0x8
 10022a8:	ee450513          	addi	a0,a0,-284 # 100a188 <__spl_start+0x8c98>
 10022ac:	3e8030ef          	jal	ra,1005694 <__spl_start+0x41a4>
 10022b0:	5529                	li	a0,-22
 10022b2:	70a2                	ld	ra,40(sp)
 10022b4:	7402                	ld	s0,32(sp)
 10022b6:	64e2                	ld	s1,24(sp)
 10022b8:	6145                	addi	sp,sp,48
 10022ba:	8082                	ret
 10022bc:	7175                	addi	sp,sp,-144
 10022be:	e122                	sd	s0,128(sp)
 10022c0:	fca6                	sd	s1,120(sp)
 10022c2:	f8ca                	sd	s2,112(sp)
 10022c4:	f4ce                	sd	s3,104(sp)
 10022c6:	ecd6                	sd	s5,88(sp)
 10022c8:	e506                	sd	ra,136(sp)
 10022ca:	f0d2                	sd	s4,96(sp)
 10022cc:	e8da                	sd	s6,80(sp)
 10022ce:	e4de                	sd	s7,72(sp)
 10022d0:	00063a03          	ld	s4,0(a2) # ff0000 <_start-0x10000>
 10022d4:	892a                	mv	s2,a0
 10022d6:	8aae                	mv	s5,a1
 10022d8:	84b2                	mv	s1,a2
 10022da:	85b6                	mv	a1,a3
 10022dc:	1030                	addi	a2,sp,40
 10022de:	8552                	mv	a0,s4
 10022e0:	8436                	mv	s0,a3
 10022e2:	89ba                	mv	s3,a4
 10022e4:	001010ef          	jal	ra,1003ae4 <__spl_start+0x25f4>
 10022e8:	cd1d                	beqz	a0,1002326 <__spl_start+0xe36>
 10022ea:	0109b783          	ld	a5,16(s3)
 10022ee:	eb9d                	bnez	a5,1002324 <__spl_start+0xe34>
 10022f0:	4601                	li	a2,0
 10022f2:	85a2                	mv	a1,s0
 10022f4:	8552                	mv	a0,s4
 10022f6:	6b9010ef          	jal	ra,10041ae <__spl_start+0x2cbe>
 10022fa:	85aa                	mv	a1,a0
 10022fc:	00008517          	auipc	a0,0x8
 1002300:	f0c50513          	addi	a0,a0,-244 # 100a208 <__spl_start+0x8d18>
 1002304:	390030ef          	jal	ra,1005694 <__spl_start+0x41a4>
 1002308:	f9700793          	li	a5,-105
 100230c:	60aa                	ld	ra,136(sp)
 100230e:	640a                	ld	s0,128(sp)
 1002310:	74e6                	ld	s1,120(sp)
 1002312:	7946                	ld	s2,112(sp)
 1002314:	79a6                	ld	s3,104(sp)
 1002316:	7a06                	ld	s4,96(sp)
 1002318:	6ae6                	ld	s5,88(sp)
 100231a:	6b46                	ld	s6,80(sp)
 100231c:	6ba6                	ld	s7,72(sp)
 100231e:	853e                	mv	a0,a5
 1002320:	6149                	addi	sp,sp,144
 1002322:	8082                	ret
 1002324:	f43e                	sd	a5,40(sp)
 1002326:	0830                	addi	a2,sp,24
 1002328:	85a2                	mv	a1,s0
 100232a:	8552                	mv	a0,s4
 100232c:	e432                	sd	a2,8(sp)
 100232e:	051010ef          	jal	ra,1003b7e <__spl_start+0x268e>
 1002332:	c919                	beqz	a0,1002348 <__spl_start+0xe58>
 1002334:	6622                	ld	a2,8(sp)
 1002336:	85a2                	mv	a1,s0
 1002338:	8552                	mv	a0,s4
 100233a:	7f6010ef          	jal	ra,1003b30 <__spl_start+0x2640>
 100233e:	ed49                	bnez	a0,10023d8 <__spl_start+0xee8>
 1002340:	47e2                	lw	a5,24(sp)
 1002342:	6498                	ld	a4,8(s1)
 1002344:	9fb9                	addw	a5,a5,a4
 1002346:	cc3e                	sw	a5,24(sp)
 1002348:	0870                	addi	a2,sp,28
 100234a:	85a2                	mv	a1,s0
 100234c:	8552                	mv	a0,s4
 100234e:	07f010ef          	jal	ra,1003bcc <__spl_start+0x26dc>
 1002352:	57f9                	li	a5,-2
 1002354:	fd45                	bnez	a0,100230c <__spl_start+0xe1c>
 1002356:	47f2                	lw	a5,28(sp)
 1002358:	74a2                	ld	s1,40(sp)
 100235a:	45e2                	lw	a1,24(sp)
 100235c:	01893703          	ld	a4,24(s2) # ffffffffffff8018 <__soc_ctrl_scratch1+0xfffffffffdff8000>
 1002360:	04fd                	addi	s1,s1,31
 1002362:	f03e                	sd	a5,32(sp)
 1002364:	9881                	andi	s1,s1,-32
 1002366:	01f5fb93          	andi	s7,a1,31
 100236a:	e709                	bnez	a4,1002374 <__spl_start+0xe84>
 100236c:	01092b83          	lw	s7,16(s2)
 1002370:	0375ebbb          	remw	s7,a1,s7
 1002374:	01778b3b          	addw	s6,a5,s7
 1002378:	87da                	mv	a5,s6
 100237a:	eb01                	bnez	a4,100238a <__spl_start+0xe9a>
 100237c:	01092b03          	lw	s6,16(s2)
 1002380:	016787bb          	addw	a5,a5,s6
 1002384:	37fd                	addiw	a5,a5,-1
 1002386:	0367cb3b          	divw	s6,a5,s6
 100238a:	02093783          	ld	a5,32(s2)
 100238e:	c725                	beqz	a4,10023f6 <__spl_start+0xf06>
 1002390:	9981                	andi	a1,a1,-32
 1002392:	95d6                	add	a1,a1,s5
 1002394:	86a6                	mv	a3,s1
 1002396:	865a                	mv	a2,s6
 1002398:	854a                	mv	a0,s2
 100239a:	9782                	jalr	a5
 100239c:	57ed                	li	a5,-5
 100239e:	017485b3          	add	a1,s1,s7
 10023a2:	f6ab15e3          	bne	s6,a0,100230c <__spl_start+0xe1c>
 10023a6:	7602                	ld	a2,32(sp)
 10023a8:	7522                	ld	a0,40(sp)
 10023aa:	aa7ff0ef          	jal	ra,1001e50 <__spl_start+0x960>
 10023ae:	4781                	li	a5,0
 10023b0:	f4098ee3          	beqz	s3,100230c <__spl_start+0xe1c>
 10023b4:	77a2                	ld	a5,40(sp)
 10023b6:	1830                	addi	a2,sp,56
 10023b8:	85a2                	mv	a1,s0
 10023ba:	00f9b823          	sd	a5,16(s3)
 10023be:	7782                	ld	a5,32(sp)
 10023c0:	8552                	mv	a0,s4
 10023c2:	02f9a623          	sw	a5,44(s3)
 10023c6:	72a010ef          	jal	ra,1003af0 <__spl_start+0x2600>
 10023ca:	57fd                	li	a5,-1
 10023cc:	e111                	bnez	a0,10023d0 <__spl_start+0xee0>
 10023ce:	77e2                	ld	a5,56(sp)
 10023d0:	00f9bc23          	sd	a5,24(s3)
 10023d4:	4781                	li	a5,0
 10023d6:	bf1d                	j	100230c <__spl_start+0xe1c>
 10023d8:	1014                	addi	a3,sp,32
 10023da:	1810                	addi	a2,sp,48
 10023dc:	85a2                	mv	a1,s0
 10023de:	8552                	mv	a0,s4
 10023e0:	71c010ef          	jal	ra,1003afc <__spl_start+0x260c>
 10023e4:	cd11                	beqz	a0,1002400 <__spl_start+0xf10>
 10023e6:	00008517          	auipc	a0,0x8
 10023ea:	e5250513          	addi	a0,a0,-430 # 100a238 <__spl_start+0x8d48>
 10023ee:	3b5000ef          	jal	ra,1002fa2 <__spl_start+0x1ab2>
 10023f2:	57f9                	li	a5,-2
 10023f4:	bf21                	j	100230c <__spl_start+0xe1c>
 10023f6:	01092703          	lw	a4,16(s2)
 10023fa:	02e5c5bb          	divw	a1,a1,a4
 10023fe:	bf51                	j	1002392 <__spl_start+0xea2>
 1002400:	75c2                	ld	a1,48(sp)
 1002402:	b755                	j	10023a6 <__spl_start+0xeb6>
 1002404:	7159                	addi	sp,sp,-112
 1002406:	f0a2                	sd	s0,96(sp)
 1002408:	eca6                	sd	s1,88(sp)
 100240a:	e4ce                	sd	s3,72(sp)
 100240c:	e0d2                	sd	s4,64(sp)
 100240e:	f486                	sd	ra,104(sp)
 1002410:	e8ca                	sd	s2,80(sp)
 1002412:	02c56903          	lwu	s2,44(a0)
 1002416:	691c                	ld	a5,16(a0)
 1002418:	842a                	mv	s0,a0
 100241a:	89ae                	mv	s3,a1
 100241c:	8a32                	mv	s4,a2
 100241e:	993e                	add	s2,s2,a5
 1002420:	4601                	li	a2,0
 1002422:	00008597          	auipc	a1,0x8
 1002426:	d5e58593          	addi	a1,a1,-674 # 100a180 <__spl_start+0x8c90>
 100242a:	8536                	mv	a0,a3
 100242c:	84b6                	mv	s1,a3
 100242e:	e84a                	sd	s2,16(sp)
 1002430:	e4fff0ef          	jal	ra,100227e <__spl_start+0xd8e>
 1002434:	04055963          	bgez	a0,1002486 <__spl_start+0xf96>
 1002438:	0d81b583          	ld	a1,216(gp)
 100243c:	cdb1                	beqz	a1,1002498 <__spl_start+0xfa8>
 100243e:	41dc                	lw	a5,4(a1)
 1002440:	00ff06b7          	lui	a3,0xff0
 1002444:	854a                	mv	a0,s2
 1002446:	0187d71b          	srliw	a4,a5,0x18
 100244a:	0187961b          	slliw	a2,a5,0x18
 100244e:	8e59                	or	a2,a2,a4
 1002450:	0087971b          	slliw	a4,a5,0x8
 1002454:	8f75                	and	a4,a4,a3
 1002456:	8e59                	or	a2,a2,a4
 1002458:	6741                	lui	a4,0x10
 100245a:	0087d79b          	srliw	a5,a5,0x8
 100245e:	f0070713          	addi	a4,a4,-256 # ff00 <_start-0xff0100>
 1002462:	8ff9                	and	a5,a5,a4
 1002464:	8e5d                	or	a2,a2,a5
 1002466:	1602                	slli	a2,a2,0x20
 1002468:	9201                	srli	a2,a2,0x20
 100246a:	9e7ff0ef          	jal	ra,1001e50 <__spl_start+0x960>
 100246e:	6542                	ld	a0,16(sp)
 1002470:	70a6                	ld	ra,104(sp)
 1002472:	64e6                	ld	s1,88(sp)
 1002474:	f008                	sd	a0,32(s0)
 1002476:	7406                	ld	s0,96(sp)
 1002478:	6946                	ld	s2,80(sp)
 100247a:	69a6                	ld	s3,72(sp)
 100247c:	6a06                	ld	s4,64(sp)
 100247e:	6589                	lui	a1,0x2
 1002480:	6165                	addi	sp,sp,112
 1002482:	1d50006f          	j	1002e56 <__spl_start+0x1966>
 1002486:	86aa                	mv	a3,a0
 1002488:	870a                	mv	a4,sp
 100248a:	8626                	mv	a2,s1
 100248c:	85d2                	mv	a1,s4
 100248e:	854e                	mv	a0,s3
 1002490:	e2dff0ef          	jal	ra,10022bc <__spl_start+0xdcc>
 1002494:	fc055de3          	bgez	a0,100246e <__spl_start+0xf7e>
 1002498:	70a6                	ld	ra,104(sp)
 100249a:	7406                	ld	s0,96(sp)
 100249c:	64e6                	ld	s1,88(sp)
 100249e:	6946                	ld	s2,80(sp)
 10024a0:	69a6                	ld	s3,72(sp)
 10024a2:	6a06                	ld	s4,64(sp)
 10024a4:	6165                	addi	sp,sp,112
 10024a6:	8082                	ret
 10024a8:	8082                	ret
 10024aa:	4501                	li	a0,0
 10024ac:	8082                	ret
 10024ae:	712d                	addi	sp,sp,-288
 10024b0:	ea22                	sd	s0,272(sp)
 10024b2:	e626                	sd	s1,264(sp)
 10024b4:	fdce                	sd	s3,248(sp)
 10024b6:	f9d2                	sd	s4,240(sp)
 10024b8:	f1da                	sd	s6,224(sp)
 10024ba:	ee06                	sd	ra,280(sp)
 10024bc:	e24a                	sd	s2,256(sp)
 10024be:	f5d6                	sd	s5,232(sp)
 10024c0:	edde                	sd	s7,216(sp)
 10024c2:	e9e2                	sd	s8,208(sp)
 10024c4:	e5e6                	sd	s9,200(sp)
 10024c6:	e1ea                	sd	s10,192(sp)
 10024c8:	fd6e                	sd	s11,184(sp)
 10024ca:	42dc                	lw	a5,4(a3)
 10024cc:	842a                	mv	s0,a0
 10024ce:	00ff06b7          	lui	a3,0xff0
 10024d2:	0187d71b          	srliw	a4,a5,0x18
 10024d6:	0187951b          	slliw	a0,a5,0x18
 10024da:	8d59                	or	a0,a0,a4
 10024dc:	0087971b          	slliw	a4,a5,0x8
 10024e0:	8f75                	and	a4,a4,a3
 10024e2:	8d59                	or	a0,a0,a4
 10024e4:	6741                	lui	a4,0x10
 10024e6:	f0070713          	addi	a4,a4,-256 # ff00 <_start-0xff0100>
 10024ea:	0087d79b          	srliw	a5,a5,0x8
 10024ee:	8ff9                	and	a5,a5,a4
 10024f0:	8d5d                	or	a0,a0,a5
 10024f2:	250d                	addiw	a0,a0,3
 10024f4:	9971                	andi	a0,a0,-4
 10024f6:	1502                	slli	a0,a0,0x20
 10024f8:	9101                	srli	a0,a0,0x20
 10024fa:	0000a317          	auipc	t1,0xa
 10024fe:	c5e33303          	ld	t1,-930(t1) # 100c158 <__spl_start+0xac68>
 1002502:	89ae                	mv	s3,a1
 1002504:	8b32                	mv	s6,a2
 1002506:	9302                	jalr	t1
 1002508:	00350793          	addi	a5,a0,3
 100250c:	9bf1                	andi	a5,a5,-4
 100250e:	f0be                	sd	a5,96(sp)
 1002510:	0189b783          	ld	a5,24(s3)
 1002514:	0109aa03          	lw	s4,16(s3)
 1002518:	0005049b          	sext.w	s1,a0
 100251c:	e791                	bnez	a5,1002528 <__spl_start+0x1038>
 100251e:	014484bb          	addw	s1,s1,s4
 1002522:	34fd                	addiw	s1,s1,-1
 1002524:	0344c4bb          	divw	s1,s1,s4
 1002528:	029a0a3b          	mulw	s4,s4,s1
 100252c:	8552                	mv	a0,s4
 100252e:	56f000ef          	jal	ra,100329c <__spl_start+0x1dac>
 1002532:	892a                	mv	s2,a0
 1002534:	e11d                	bnez	a0,100255a <__spl_start+0x106a>
 1002536:	85d2                	mv	a1,s4
 1002538:	00008517          	auipc	a0,0x8
 100253c:	d2050513          	addi	a0,a0,-736 # 100a258 <__spl_start+0x8d68>
 1002540:	154030ef          	jal	ra,1005694 <__spl_start+0x41a4>
 1002544:	00008517          	auipc	a0,0x8
 1002548:	d3c50513          	addi	a0,a0,-708 # 100a280 <__spl_start+0x8d90>
 100254c:	148030ef          	jal	ra,1005694 <__spl_start+0x41a4>
 1002550:	85d2                	mv	a1,s4
 1002552:	4501                	li	a0,0
 1002554:	a45ff0ef          	jal	ra,1001f98 <__spl_start+0xaa8>
 1002558:	892a                	mv	s2,a0
 100255a:	0209b783          	ld	a5,32(s3)
 100255e:	8626                	mv	a2,s1
 1002560:	86ca                	mv	a3,s2
 1002562:	85da                	mv	a1,s6
 1002564:	854e                	mv	a0,s3
 1002566:	9782                	jalr	a5
 1002568:	ecca                	sd	s2,88(sp)
 100256a:	54ed                	li	s1,-5
 100256c:	cd19                	beqz	a0,100258a <__spl_start+0x109a>
 100256e:	0000a317          	auipc	t1,0xa
 1002572:	bca33303          	ld	t1,-1078(t1) # 100c138 <__spl_start+0xac48>
 1002576:	9302                	jalr	t1
 1002578:	4481                	li	s1,0
 100257a:	e901                	bnez	a0,100258a <__spl_start+0x109a>
 100257c:	6566                	ld	a0,88(sp)
 100257e:	5d8000ef          	jal	ra,1002b56 <__spl_start+0x1666>
 1002582:	d6aa                	sw	a0,108(sp)
 1002584:	02055363          	bgez	a0,10025aa <__spl_start+0x10ba>
 1002588:	54a9                	li	s1,-22
 100258a:	60f2                	ld	ra,280(sp)
 100258c:	6452                	ld	s0,272(sp)
 100258e:	6912                	ld	s2,256(sp)
 1002590:	79ee                	ld	s3,248(sp)
 1002592:	7a4e                	ld	s4,240(sp)
 1002594:	7aae                	ld	s5,232(sp)
 1002596:	7b0e                	ld	s6,224(sp)
 1002598:	6bee                	ld	s7,216(sp)
 100259a:	6c4e                	ld	s8,208(sp)
 100259c:	6cae                	ld	s9,200(sp)
 100259e:	6d0e                	ld	s10,192(sp)
 10025a0:	7dea                	ld	s11,184(sp)
 10025a2:	8526                	mv	a0,s1
 10025a4:	64b2                	ld	s1,264(sp)
 10025a6:	6115                	addi	sp,sp,288
 10025a8:	8082                	ret
 10025aa:	6566                	ld	a0,88(sp)
 10025ac:	00008597          	auipc	a1,0x8
 10025b0:	cfc58593          	addi	a1,a1,-772 # 100a2a8 <__spl_start+0x8db8>
 10025b4:	765010ef          	jal	ra,1004518 <__spl_start+0x3028>
 10025b8:	d4aa                	sw	a0,104(sp)
 10025ba:	fc0547e3          	bltz	a0,1002588 <__spl_start+0x1098>
 10025be:	05810a13          	addi	s4,sp,88
 10025c2:	4601                	li	a2,0
 10025c4:	00008597          	auipc	a1,0x8
 10025c8:	cec58593          	addi	a1,a1,-788 # 100a2b0 <__spl_start+0x8dc0>
 10025cc:	8552                	mv	a0,s4
 10025ce:	cb1ff0ef          	jal	ra,100227e <__spl_start+0xd8e>
 10025d2:	892a                	mv	s2,a0
 10025d4:	4a81                	li	s5,0
 10025d6:	00055f63          	bgez	a0,10025f4 <__spl_start+0x1104>
 10025da:	4601                	li	a2,0
 10025dc:	00008597          	auipc	a1,0x8
 10025e0:	ce458593          	addi	a1,a1,-796 # 100a2c0 <__spl_start+0x8dd0>
 10025e4:	8552                	mv	a0,s4
 10025e6:	c99ff0ef          	jal	ra,100227e <__spl_start+0xd8e>
 10025ea:	892a                	mv	s2,a0
 10025ec:	54fd                	li	s1,-1
 10025ee:	f8054ee3          	bltz	a0,100258a <__spl_start+0x109a>
 10025f2:	4a85                	li	s5,1
 10025f4:	8722                	mv	a4,s0
 10025f6:	86ca                	mv	a3,s2
 10025f8:	8652                	mv	a2,s4
 10025fa:	85da                	mv	a1,s6
 10025fc:	854e                	mv	a0,s3
 10025fe:	cbfff0ef          	jal	ra,10022bc <__spl_start+0xdcc>
 1002602:	84aa                	mv	s1,a0
 1002604:	f159                	bnez	a0,100258a <__spl_start+0x109a>
 1002606:	6566                	ld	a0,88(sp)
 1002608:	00840613          	addi	a2,s0,8 # ffffffffffff9008 <__soc_ctrl_scratch1+0xfffffffffdff8ff0>
 100260c:	85ca                	mv	a1,s2
 100260e:	4a0010ef          	jal	ra,1003aae <__spl_start+0x25be>
 1002612:	c11d                	beqz	a0,1002638 <__spl_start+0x1148>
 1002614:	47c5                	li	a5,17
 1002616:	00f40423          	sb	a5,8(s0)
 100261a:	86d2                	mv	a3,s4
 100261c:	865a                	mv	a2,s6
 100261e:	85ce                	mv	a1,s3
 1002620:	8522                	mv	a0,s0
 1002622:	de3ff0ef          	jal	ra,1002404 <__spl_start+0xf14>
 1002626:	00055e63          	bgez	a0,1002642 <__spl_start+0x1152>
 100262a:	00844703          	lbu	a4,8(s0)
 100262e:	47c5                	li	a5,17
 1002630:	00f70963          	beq	a4,a5,1002642 <__spl_start+0x1152>
 1002634:	84aa                	mv	s1,a0
 1002636:	bf91                	j	100258a <__spl_start+0x109a>
 1002638:	00844703          	lbu	a4,8(s0)
 100263c:	47c5                	li	a5,17
 100263e:	fcf70ee3          	beq	a4,a5,100261a <__spl_start+0x112a>
 1002642:	04f10793          	addi	a5,sp,79
 1002646:	00008b97          	auipc	s7,0x8
 100264a:	c7ab8b93          	addi	s7,s7,-902 # 100a2c0 <__spl_start+0x8dd0>
 100264e:	07010c93          	addi	s9,sp,112
 1002652:	e43e                	sd	a5,8(sp)
 1002654:	5d7d                	li	s10,-1
 1002656:	05010d93          	addi	s11,sp,80
 100265a:	8656                	mv	a2,s5
 100265c:	85de                	mv	a1,s7
 100265e:	8552                	mv	a0,s4
 1002660:	040107a3          	sb	zero,79(sp)
 1002664:	c1bff0ef          	jal	ra,100227e <__spl_start+0xd8e>
 1002668:	8c2a                	mv	s8,a0
 100266a:	0e054363          	bltz	a0,1002750 <__spl_start+0x1260>
 100266e:	01251463          	bne	a0,s2,1002676 <__spl_start+0x1186>
 1002672:	2a85                	addiw	s5,s5,1
 1002674:	b7dd                	j	100265a <__spl_start+0x116a>
 1002676:	86aa                	mv	a3,a0
 1002678:	8766                	mv	a4,s9
 100267a:	8652                	mv	a2,s4
 100267c:	85da                	mv	a1,s6
 100267e:	854e                	mv	a0,s3
 1002680:	e102                	sd	zero,128(sp)
 1002682:	c3bff0ef          	jal	ra,10022bc <__spl_start+0xdcc>
 1002686:	86aa                	mv	a3,a0
 1002688:	02055163          	bgez	a0,10026aa <__spl_start+0x11ba>
 100268c:	e42a                	sd	a0,8(sp)
 100268e:	8656                	mv	a2,s5
 1002690:	00006597          	auipc	a1,0x6
 1002694:	15858593          	addi	a1,a1,344 # 10087e8 <__spl_start+0x72f8>
 1002698:	00008517          	auipc	a0,0x8
 100269c:	c3850513          	addi	a0,a0,-968 # 100a2d0 <__spl_start+0x8de0>
 10026a0:	7f5020ef          	jal	ra,1005694 <__spl_start+0x41a4>
 10026a4:	66a2                	ld	a3,8(sp)
 10026a6:	84b6                	mv	s1,a3
 10026a8:	b5cd                	j	100258a <__spl_start+0x109a>
 10026aa:	6622                	ld	a2,8(sp)
 10026ac:	6566                	ld	a0,88(sp)
 10026ae:	85e2                	mv	a1,s8
 10026b0:	3fe010ef          	jal	ra,1003aae <__spl_start+0x25be>
 10026b4:	04f14783          	lbu	a5,79(sp)
 10026b8:	4745                	li	a4,17
 10026ba:	00e79a63          	bne	a5,a4,10026ce <__spl_start+0x11de>
 10026be:	86d2                	mv	a3,s4
 10026c0:	865a                	mv	a2,s6
 10026c2:	85ce                	mv	a1,s3
 10026c4:	8566                	mv	a0,s9
 10026c6:	d3fff0ef          	jal	ra,1002404 <__spl_start+0xf14>
 10026ca:	67ca                	ld	a5,144(sp)
 10026cc:	f01c                	sd	a5,32(s0)
 10026ce:	6c1c                	ld	a5,24(s0)
 10026d0:	01a79663          	bne	a5,s10,10026dc <__spl_start+0x11ec>
 10026d4:	67aa                	ld	a5,136(sp)
 10026d6:	01a78363          	beq	a5,s10,10026dc <__spl_start+0x11ec>
 10026da:	ec1c                	sd	a5,24(s0)
 10026dc:	02043c03          	ld	s8,32(s0)
 10026e0:	f80c09e3          	beqz	s8,1002672 <__spl_start+0x1182>
 10026e4:	86ee                	mv	a3,s11
 10026e6:	8656                	mv	a2,s5
 10026e8:	85de                	mv	a1,s7
 10026ea:	8552                	mv	a0,s4
 10026ec:	b3dff0ef          	jal	ra,1002228 <__spl_start+0xd38>
 10026f0:	f80541e3          	bltz	a0,1002672 <__spl_start+0x1182>
 10026f4:	8656                	mv	a2,s5
 10026f6:	85de                	mv	a1,s7
 10026f8:	8552                	mv	a0,s4
 10026fa:	b85ff0ef          	jal	ra,100227e <__spl_start+0xd8e>
 10026fe:	6346                	ld	t1,80(sp)
 1002700:	6e0a                	ld	t3,128(sp)
 1002702:	477a                	lw	a4,156(sp)
 1002704:	67aa                	ld	a5,136(sp)
 1002706:	85aa                	mv	a1,a0
 1002708:	ec2a                	sd	a0,24(sp)
 100270a:	6566                	ld	a0,88(sp)
 100270c:	4681                	li	a3,0
 100270e:	00008617          	auipc	a2,0x8
 1002712:	bfa60613          	addi	a2,a2,-1030 # 100a308 <__spl_start+0x8e18>
 1002716:	fc1a                	sd	t1,56(sp)
 1002718:	f872                	sd	t3,48(sp)
 100271a:	f43a                	sd	a4,40(sp)
 100271c:	f03e                	sd	a5,32(sp)
 100271e:	4eb010ef          	jal	ra,1004408 <__spl_start+0x2f18>
 1002722:	65e2                	ld	a1,24(sp)
 1002724:	e82a                	sd	a0,16(sp)
 1002726:	6566                	ld	a0,88(sp)
 1002728:	4681                	li	a3,0
 100272a:	00008617          	auipc	a2,0x8
 100272e:	be660613          	addi	a2,a2,-1050 # 100a310 <__spl_start+0x8e20>
 1002732:	4d7010ef          	jal	ra,1004408 <__spl_start+0x2f18>
 1002736:	7e42                	ld	t3,48(sp)
 1002738:	7362                	ld	t1,56(sp)
 100273a:	6842                	ld	a6,16(sp)
 100273c:	7782                	ld	a5,32(sp)
 100273e:	7722                	ld	a4,40(sp)
 1002740:	88aa                	mv	a7,a0
 1002742:	86f2                	mv	a3,t3
 1002744:	861a                	mv	a2,t1
 1002746:	85d6                	mv	a1,s5
 1002748:	8562                	mv	a0,s8
 100274a:	534000ef          	jal	ra,1002c7e <__spl_start+0x178e>
 100274e:	b715                	j	1002672 <__spl_start+0x1182>
 1002750:	6c1c                	ld	a5,24(s0)
 1002752:	5775                	li	a4,-3
 1002754:	17fd                	addi	a5,a5,-1
 1002756:	00f77463          	bgeu	a4,a5,100275e <__spl_start+0x126e>
 100275a:	681c                	ld	a5,16(s0)
 100275c:	ec1c                	sd	a5,24(s0)
 100275e:	581c                	lw	a5,48(s0)
 1002760:	0027e793          	ori	a5,a5,2
 1002764:	d81c                	sw	a5,48(s0)
 1002766:	b515                	j	100258a <__spl_start+0x109a>
 1002768:	715d                	addi	sp,sp,-80
 100276a:	e486                	sd	ra,72(sp)
 100276c:	e0a2                	sd	s0,64(sp)
 100276e:	fc26                	sd	s1,56(sp)
 1002770:	f84a                	sd	s2,48(sp)
 1002772:	f44e                	sd	s3,40(sp)
 1002774:	7100                	ld	s0,32(a0)
 1002776:	e809                	bnez	s0,1002788 <__spl_start+0x1298>
 1002778:	00008517          	auipc	a0,0x8
 100277c:	a3850513          	addi	a0,a0,-1480 # 100a1b0 <__spl_start+0x8cc0>
 1002780:	715020ef          	jal	ra,1005694 <__spl_start+0x41a4>
 1002784:	157020ef          	jal	ra,10050da <__spl_start+0x3bea>
 1002788:	00008597          	auipc	a1,0x8
 100278c:	a5058593          	addi	a1,a1,-1456 # 100a1d8 <__spl_start+0x8ce8>
 1002790:	84aa                	mv	s1,a0
 1002792:	8522                	mv	a0,s0
 1002794:	585010ef          	jal	ra,1004518 <__spl_start+0x3028>
 1002798:	85aa                	mv	a1,a0
 100279a:	00055a63          	bgez	a0,10027ae <__spl_start+0x12be>
 100279e:	55b5                	li	a1,-19
 10027a0:	00008517          	auipc	a0,0x8
 10027a4:	a4850513          	addi	a0,a0,-1464 # 100a1e8 <__spl_start+0x8cf8>
 10027a8:	6ed020ef          	jal	ra,1005694 <__spl_start+0x41a4>
 10027ac:	bfe1                	j	1002784 <__spl_start+0x1294>
 10027ae:	8522                	mv	a0,s0
 10027b0:	6f0010ef          	jal	ra,1003ea0 <__spl_start+0x29b0>
 10027b4:	85aa                	mv	a1,a0
 10027b6:	00008917          	auipc	s2,0x8
 10027ba:	b5a90913          	addi	s2,s2,-1190 # 100a310 <__spl_start+0x8e20>
 10027be:	49c5                	li	s3,17
 10027c0:	fc05cfe3          	bltz	a1,100279e <__spl_start+0x12ae>
 10027c4:	4681                	li	a3,0
 10027c6:	864a                	mv	a2,s2
 10027c8:	8522                	mv	a0,s0
 10027ca:	e02e                	sd	a1,0(sp)
 10027cc:	43d010ef          	jal	ra,1004408 <__spl_start+0x2f18>
 10027d0:	6582                	ld	a1,0(sp)
 10027d2:	16050563          	beqz	a0,100293c <__spl_start+0x144c>
 10027d6:	236010ef          	jal	ra,1003a0c <__spl_start+0x251c>
 10027da:	6582                	ld	a1,0(sp)
 10027dc:	17351063          	bne	a0,s3,100293c <__spl_start+0x144c>
 10027e0:	7088                	ld	a0,32(s1)
 10027e2:	0830                	addi	a2,sp,24
 10027e4:	e432                	sd	a2,8(sp)
 10027e6:	30a010ef          	jal	ra,1003af0 <__spl_start+0x2600>
 10027ea:	6582                	ld	a1,0(sp)
 10027ec:	6622                	ld	a2,8(sp)
 10027ee:	c501                	beqz	a0,10027f6 <__spl_start+0x1306>
 10027f0:	7088                	ld	a0,32(s1)
 10027f2:	2f2010ef          	jal	ra,1003ae4 <__spl_start+0x25f4>
 10027f6:	0000a417          	auipc	s0,0xa
 10027fa:	8d243403          	ld	s0,-1838(s0) # 100c0c8 <__spl_start+0xabd8>
 10027fe:	04f00793          	li	a5,79
 1002802:	00f40023          	sb	a5,0(s0)
 1002806:	05300793          	li	a5,83
 100280a:	00f400a3          	sb	a5,1(s0)
 100280e:	04200793          	li	a5,66
 1002812:	00f40123          	sb	a5,2(s0)
 1002816:	04900793          	li	a5,73
 100281a:	00f401a3          	sb	a5,3(s0)
 100281e:	67e2                	ld	a5,24(sp)
 1002820:	4709                	li	a4,2
 1002822:	00e40423          	sb	a4,8(s0)
 1002826:	0087d693          	srli	a3,a5,0x8
 100282a:	00d408a3          	sb	a3,17(s0)
 100282e:	0107d693          	srli	a3,a5,0x10
 1002832:	00d40923          	sb	a3,18(s0)
 1002836:	0187d69b          	srliw	a3,a5,0x18
 100283a:	00d409a3          	sb	a3,19(s0)
 100283e:	0207d693          	srli	a3,a5,0x20
 1002842:	00d40a23          	sb	a3,20(s0)
 1002846:	0287d693          	srli	a3,a5,0x28
 100284a:	00f40823          	sb	a5,16(s0)
 100284e:	00d40aa3          	sb	a3,21(s0)
 1002852:	0307d693          	srli	a3,a5,0x30
 1002856:	93e1                	srli	a5,a5,0x38
 1002858:	00f40ba3          	sb	a5,23(s0)
 100285c:	4785                	li	a5,1
 100285e:	00d40b23          	sb	a3,22(s0)
 1002862:	00f40c23          	sb	a5,24(s0)
 1002866:	00040223          	sb	zero,4(s0)
 100286a:	000402a3          	sb	zero,5(s0)
 100286e:	00040323          	sb	zero,6(s0)
 1002872:	000403a3          	sb	zero,7(s0)
 1002876:	000404a3          	sb	zero,9(s0)
 100287a:	00040523          	sb	zero,10(s0)
 100287e:	000405a3          	sb	zero,11(s0)
 1002882:	00040623          	sb	zero,12(s0)
 1002886:	000406a3          	sb	zero,13(s0)
 100288a:	00040723          	sb	zero,14(s0)
 100288e:	000407a3          	sb	zero,15(s0)
 1002892:	00040ca3          	sb	zero,25(s0)
 1002896:	00040d23          	sb	zero,26(s0)
 100289a:	00040da3          	sb	zero,27(s0)
 100289e:	00040e23          	sb	zero,28(s0)
 10028a2:	00040ea3          	sb	zero,29(s0)
 10028a6:	00040f23          	sb	zero,30(s0)
 10028aa:	00040fa3          	sb	zero,31(s0)
 10028ae:	1401b783          	ld	a5,320(gp)
 10028b2:	02e40023          	sb	a4,32(s0)
 10028b6:	020400a3          	sb	zero,33(s0)
 10028ba:	0087d713          	srli	a4,a5,0x8
 10028be:	02e404a3          	sb	a4,41(s0)
 10028c2:	0107d713          	srli	a4,a5,0x10
 10028c6:	02e40523          	sb	a4,42(s0)
 10028ca:	0187d71b          	srliw	a4,a5,0x18
 10028ce:	02e405a3          	sb	a4,43(s0)
 10028d2:	0207d713          	srli	a4,a5,0x20
 10028d6:	02e40623          	sb	a4,44(s0)
 10028da:	0287d713          	srli	a4,a5,0x28
 10028de:	02f40423          	sb	a5,40(s0)
 10028e2:	02e406a3          	sb	a4,45(s0)
 10028e6:	0307d713          	srli	a4,a5,0x30
 10028ea:	93e1                	srli	a5,a5,0x38
 10028ec:	02040123          	sb	zero,34(s0)
 10028f0:	020401a3          	sb	zero,35(s0)
 10028f4:	02040223          	sb	zero,36(s0)
 10028f8:	020402a3          	sb	zero,37(s0)
 10028fc:	02040323          	sb	zero,38(s0)
 1002900:	020403a3          	sb	zero,39(s0)
 1002904:	02e40723          	sb	a4,46(s0)
 1002908:	02f407a3          	sb	a5,47(s0)
 100290c:	0184b903          	ld	s2,24(s1)
 1002910:	fb3fe0ef          	jal	ra,10018c2 <__spl_start+0x3d2>
 1002914:	708c                	ld	a1,32(s1)
 1002916:	6c88                	ld	a0,24(s1)
 1002918:	4685                	li	a3,1
 100291a:	8622                	mv	a2,s0
 100291c:	9c4ff0ef          	jal	ra,1001ae0 <__spl_start+0x5f0>
 1002920:	e60512e3          	bnez	a0,1002784 <__spl_start+0x1294>
 1002924:	708c                	ld	a1,32(s1)
 1002926:	1401b503          	ld	a0,320(gp)
 100292a:	8622                	mv	a2,s0
 100292c:	9902                	jalr	s2
 100292e:	60a6                	ld	ra,72(sp)
 1002930:	6406                	ld	s0,64(sp)
 1002932:	74e2                	ld	s1,56(sp)
 1002934:	7942                	ld	s2,48(sp)
 1002936:	79a2                	ld	s3,40(sp)
 1002938:	6161                	addi	sp,sp,80
 100293a:	8082                	ret
 100293c:	8522                	mv	a0,s0
 100293e:	582010ef          	jal	ra,1003ec0 <__spl_start+0x29d0>
 1002942:	85aa                	mv	a1,a0
 1002944:	bdb5                	j	10027c0 <__spl_start+0x12d0>
 1002946:	1141                	addi	sp,sp,-16
 1002948:	e022                	sd	s0,0(sp)
 100294a:	e406                	sd	ra,8(sp)
 100294c:	611c                	ld	a5,0(a0)
 100294e:	2581                	sext.w	a1,a1
 1002950:	8432                	mv	s0,a2
 1002952:	1887b503          	ld	a0,392(a5)
 1002956:	064040ef          	jal	ra,10069ba <__spl_start+0x54ca>
 100295a:	c111                	beqz	a0,100295e <__spl_start+0x146e>
 100295c:	4401                	li	s0,0
 100295e:	60a2                	ld	ra,8(sp)
 1002960:	8522                	mv	a0,s0
 1002962:	6402                	ld	s0,0(sp)
 1002964:	0141                	addi	sp,sp,16
 1002966:	8082                	ret
 1002968:	4501                	li	a0,0
 100296a:	8082                	ret
 100296c:	7159                	addi	sp,sp,-112
 100296e:	000f4637          	lui	a2,0xf4
 1002972:	eca6                	sd	s1,88(sp)
 1002974:	468d                	li	a3,3
 1002976:	84aa                	mv	s1,a0
 1002978:	24060613          	addi	a2,a2,576 # f4240 <_start-0xf0bdc0>
 100297c:	4581                	li	a1,0
 100297e:	4501                	li	a0,0
 1002980:	f486                	sd	ra,104(sp)
 1002982:	f0a2                	sd	s0,96(sp)
 1002984:	e8ca                	sd	s2,80(sp)
 1002986:	e4ce                	sd	s3,72(sp)
 1002988:	07c040ef          	jal	ra,1006a04 <__spl_start+0x5514>
 100298c:	ed19                	bnez	a0,10029aa <__spl_start+0x14ba>
 100298e:	00008517          	auipc	a0,0x8
 1002992:	99250513          	addi	a0,a0,-1646 # 100a320 <__spl_start+0x8e30>
 1002996:	60c000ef          	jal	ra,1002fa2 <__spl_start+0x1ab2>
 100299a:	5535                	li	a0,-19
 100299c:	70a6                	ld	ra,104(sp)
 100299e:	7406                	ld	s0,96(sp)
 10029a0:	64e6                	ld	s1,88(sp)
 10029a2:	6946                	ld	s2,80(sp)
 10029a4:	69a6                	ld	s3,72(sp)
 10029a6:	6165                	addi	sp,sp,112
 10029a8:	8082                	ret
 10029aa:	00009317          	auipc	t1,0x9
 10029ae:	77633303          	ld	t1,1910(t1) # 100c120 <__spl_start+0xac30>
 10029b2:	842a                	mv	s0,a0
 10029b4:	9302                	jalr	t1
 10029b6:	0005061b          	sext.w	a2,a0
 10029ba:	04000593          	li	a1,64
 10029be:	fc000513          	li	a0,-64
 10029c2:	e432                	sd	a2,8(sp)
 10029c4:	dd4ff0ef          	jal	ra,1001f98 <__spl_start+0xaa8>
 10029c8:	6622                	ld	a2,8(sp)
 10029ca:	892a                	mv	s2,a0
 10029cc:	0d81b503          	ld	a0,216(gp)
 10029d0:	00008597          	auipc	a1,0x8
 10029d4:	96858593          	addi	a1,a1,-1688 # 100a338 <__spl_start+0x8e48>
 10029d8:	564020ef          	jal	ra,1004f3c <__spl_start+0x3a4c>
 10029dc:	0005099b          	sext.w	s3,a0
 10029e0:	18843503          	ld	a0,392(s0)
 10029e4:	86ca                	mv	a3,s2
 10029e6:	04000613          	li	a2,64
 10029ea:	85ce                	mv	a1,s3
 10029ec:	7cf030ef          	jal	ra,10069ba <__spl_start+0x54ca>
 10029f0:	f555                	bnez	a0,100299c <__spl_start+0x14ac>
 10029f2:	00092703          	lw	a4,0(s2)
 10029f6:	00ff0637          	lui	a2,0xff0
 10029fa:	0187569b          	srliw	a3,a4,0x18
 10029fe:	0187179b          	slliw	a5,a4,0x18
 1002a02:	8fd5                	or	a5,a5,a3
 1002a04:	0087169b          	slliw	a3,a4,0x8
 1002a08:	8ef1                	and	a3,a3,a2
 1002a0a:	8fd5                	or	a5,a5,a3
 1002a0c:	66c1                	lui	a3,0x10
 1002a0e:	0087571b          	srliw	a4,a4,0x8
 1002a12:	f0068693          	addi	a3,a3,-256 # ff00 <_start-0xff0100>
 1002a16:	8f75                	and	a4,a4,a3
 1002a18:	8fd9                	or	a5,a5,a4
 1002a1a:	d00e0737          	lui	a4,0xd00e0
 1002a1e:	2781                	sext.w	a5,a5
 1002a20:	eed70713          	addi	a4,a4,-275 # ffffffffd00dfeed <__soc_ctrl_scratch1+0xffffffffce0dfed5>
 1002a24:	02e79563          	bne	a5,a4,1002a4e <__spl_start+0x155e>
 1002a28:	4785                	li	a5,1
 1002a2a:	02099613          	slli	a2,s3,0x20
 1002a2e:	d43e                	sw	a5,40(sp)
 1002a30:	86ca                	mv	a3,s2
 1002a32:	00000797          	auipc	a5,0x0
 1002a36:	f1478793          	addi	a5,a5,-236 # 1002946 <__spl_start+0x1456>
 1002a3a:	9201                	srli	a2,a2,0x20
 1002a3c:	082c                	addi	a1,sp,24
 1002a3e:	8526                	mv	a0,s1
 1002a40:	ec22                	sd	s0,24(sp)
 1002a42:	f002                	sd	zero,32(sp)
 1002a44:	f802                	sd	zero,48(sp)
 1002a46:	fc3e                	sd	a5,56(sp)
 1002a48:	a67ff0ef          	jal	ra,10024ae <__spl_start+0xfbe>
 1002a4c:	bf81                	j	100299c <__spl_start+0x14ac>
 1002a4e:	85ca                	mv	a1,s2
 1002a50:	8526                	mv	a0,s1
 1002a52:	d8aff0ef          	jal	ra,1001fdc <__spl_start+0xaec>
 1002a56:	f139                	bnez	a0,100299c <__spl_start+0x14ac>
 1002a58:	18843503          	ld	a0,392(s0)
 1002a5c:	7406                	ld	s0,96(sp)
 1002a5e:	6894                	ld	a3,16(s1)
 1002a60:	02c4e603          	lwu	a2,44(s1)
 1002a64:	70a6                	ld	ra,104(sp)
 1002a66:	64e6                	ld	s1,88(sp)
 1002a68:	6946                	ld	s2,80(sp)
 1002a6a:	85ce                	mv	a1,s3
 1002a6c:	69a6                	ld	s3,72(sp)
 1002a6e:	6165                	addi	sp,sp,112
 1002a70:	74b0306f          	j	10069ba <__spl_start+0x54ca>
 1002a74:	47a5                	li	a5,9
 1002a76:	07f2                	slli	a5,a5,0x1c
 1002a78:	1141                	addi	sp,sp,-16
 1002a7a:	95be                	add	a1,a1,a5
 1002a7c:	8536                	mv	a0,a3
 1002a7e:	e022                	sd	s0,0(sp)
 1002a80:	e406                	sd	ra,8(sp)
 1002a82:	8432                	mv	s0,a2
 1002a84:	bccff0ef          	jal	ra,1001e50 <__spl_start+0x960>
 1002a88:	60a2                	ld	ra,8(sp)
 1002a8a:	8522                	mv	a0,s0
 1002a8c:	6402                	ld	s0,0(sp)
 1002a8e:	0141                	addi	sp,sp,16
 1002a90:	8082                	ret
 1002a92:	7139                	addi	sp,sp,-64
 1002a94:	46a5                	li	a3,9
 1002a96:	fc06                	sd	ra,56(sp)
 1002a98:	f822                	sd	s0,48(sp)
 1002a9a:	06f2                	slli	a3,a3,0x1c
 1002a9c:	4298                	lw	a4,0(a3)
 1002a9e:	00ff05b7          	lui	a1,0xff0
 1002aa2:	0187561b          	srliw	a2,a4,0x18
 1002aa6:	0187179b          	slliw	a5,a4,0x18
 1002aaa:	8fd1                	or	a5,a5,a2
 1002aac:	0087161b          	slliw	a2,a4,0x8
 1002ab0:	8e6d                	and	a2,a2,a1
 1002ab2:	8fd1                	or	a5,a5,a2
 1002ab4:	6641                	lui	a2,0x10
 1002ab6:	0087571b          	srliw	a4,a4,0x8
 1002aba:	f0060613          	addi	a2,a2,-256 # ff00 <_start-0xff0100>
 1002abe:	8f71                	and	a4,a4,a2
 1002ac0:	8fd9                	or	a5,a5,a4
 1002ac2:	d00e0737          	lui	a4,0xd00e0
 1002ac6:	2781                	sext.w	a5,a5
 1002ac8:	eed70713          	addi	a4,a4,-275 # ffffffffd00dfeed <__soc_ctrl_scratch1+0xffffffffce0dfed5>
 1002acc:	02e79263          	bne	a5,a4,1002af0 <__spl_start+0x1600>
 1002ad0:	4785                	li	a5,1
 1002ad2:	cc3e                	sw	a5,24(sp)
 1002ad4:	4601                	li	a2,0
 1002ad6:	00000797          	auipc	a5,0x0
 1002ada:	f9e78793          	addi	a5,a5,-98 # 1002a74 <__spl_start+0x1584>
 1002ade:	002c                	addi	a1,sp,8
 1002ae0:	f43e                	sd	a5,40(sp)
 1002ae2:	9cdff0ef          	jal	ra,10024ae <__spl_start+0xfbe>
 1002ae6:	70e2                	ld	ra,56(sp)
 1002ae8:	7442                	ld	s0,48(sp)
 1002aea:	4501                	li	a0,0
 1002aec:	6121                	addi	sp,sp,64
 1002aee:	8082                	ret
 1002af0:	00009797          	auipc	a5,0x9
 1002af4:	6a07b783          	ld	a5,1696(a5) # 100c190 <__spl_start+0xaca0>
 1002af8:	638c                	ld	a1,0(a5)
 1002afa:	57fd                	li	a5,-1
 1002afc:	842a                	mv	s0,a0
 1002afe:	00f59963          	bne	a1,a5,1002b10 <__spl_start+0x1620>
 1002b02:	04000593          	li	a1,64
 1002b06:	fc000513          	li	a0,-64
 1002b0a:	c8eff0ef          	jal	ra,1001f98 <__spl_start+0xaa8>
 1002b0e:	85aa                	mv	a1,a0
 1002b10:	8522                	mv	a0,s0
 1002b12:	ccaff0ef          	jal	ra,1001fdc <__spl_start+0xaec>
 1002b16:	bfc1                	j	1002ae6 <__spl_start+0x15f6>
 1002b18:	81aa                	mv	gp,a0
 1002b1a:	8082                	ret
 1002b1c:	77f5                	lui	a5,0xffffd
 1002b1e:	d7078793          	addi	a5,a5,-656 # ffffffffffffcd70 <__soc_ctrl_scratch1+0xfffffffffdffcd58>
 1002b22:	953e                	add	a0,a0,a5
 1002b24:	9941                	andi	a0,a0,-16
 1002b26:	8082                	ret
 1002b28:	1141                	addi	sp,sp,-16
 1002b2a:	29000613          	li	a2,656
 1002b2e:	4581                	li	a1,0
 1002b30:	e406                	sd	ra,8(sp)
 1002b32:	e022                	sd	s0,0(sp)
 1002b34:	842a                	mv	s0,a0
 1002b36:	97aff0ef          	jal	ra,1001cb0 <__spl_start+0x7c0>
 1002b3a:	8522                	mv	a0,s0
 1002b3c:	00009317          	auipc	t1,0x9
 1002b40:	62c33303          	ld	t1,1580(t1) # 100c168 <__spl_start+0xac78>
 1002b44:	9302                	jalr	t1
 1002b46:	29040413          	addi	s0,s0,656
 1002b4a:	1281b023          	sd	s0,288(gp)
 1002b4e:	60a2                	ld	ra,8(sp)
 1002b50:	6402                	ld	s0,0(sp)
 1002b52:	0141                	addi	sp,sp,16
 1002b54:	8082                	ret
 1002b56:	7159                	addi	sp,sp,-112
 1002b58:	00006597          	auipc	a1,0x6
 1002b5c:	1b058593          	addi	a1,a1,432 # 1008d08 <__spl_start+0x7818>
 1002b60:	eca6                	sd	s1,88(sp)
 1002b62:	f486                	sd	ra,104(sp)
 1002b64:	f0a2                	sd	s0,96(sp)
 1002b66:	e8ca                	sd	s2,80(sp)
 1002b68:	e4ce                	sd	s3,72(sp)
 1002b6a:	e0d2                	sd	s4,64(sp)
 1002b6c:	fc56                	sd	s5,56(sp)
 1002b6e:	f85a                	sd	s6,48(sp)
 1002b70:	f45e                	sd	s7,40(sp)
 1002b72:	84aa                	mv	s1,a0
 1002b74:	1a5010ef          	jal	ra,1004518 <__spl_start+0x3028>
 1002b78:	06054d63          	bltz	a0,1002bf2 <__spl_start+0x1702>
 1002b7c:	01c10a93          	addi	s5,sp,28
 1002b80:	85aa                	mv	a1,a0
 1002b82:	86d6                	mv	a3,s5
 1002b84:	00006617          	auipc	a2,0x6
 1002b88:	19460613          	addi	a2,a2,404 # 1008d18 <__spl_start+0x7828>
 1002b8c:	e42a                	sd	a0,8(sp)
 1002b8e:	8526                	mv	a0,s1
 1002b90:	079010ef          	jal	ra,1004408 <__spl_start+0x2f18>
 1002b94:	65a2                	ld	a1,8(sp)
 1002b96:	89aa                	mv	s3,a0
 1002b98:	8526                	mv	a0,s1
 1002b9a:	306010ef          	jal	ra,1003ea0 <__spl_start+0x29b0>
 1002b9e:	842a                	mv	s0,a0
 1002ba0:	5979                	li	s2,-2
 1002ba2:	00006b17          	auipc	s6,0x6
 1002ba6:	17eb0b13          	addi	s6,s6,382 # 1008d20 <__spl_start+0x7830>
 1002baa:	00009b97          	auipc	s7,0x9
 1002bae:	61ebbb83          	ld	s7,1566(s7) # 100c1c8 <__spl_start+0xacd8>
 1002bb2:	00045e63          	bgez	s0,1002bce <__spl_start+0x16de>
 1002bb6:	70a6                	ld	ra,104(sp)
 1002bb8:	7406                	ld	s0,96(sp)
 1002bba:	64e6                	ld	s1,88(sp)
 1002bbc:	69a6                	ld	s3,72(sp)
 1002bbe:	6a06                	ld	s4,64(sp)
 1002bc0:	7ae2                	ld	s5,56(sp)
 1002bc2:	7b42                	ld	s6,48(sp)
 1002bc4:	7ba2                	ld	s7,40(sp)
 1002bc6:	854a                	mv	a0,s2
 1002bc8:	6946                	ld	s2,80(sp)
 1002bca:	6165                	addi	sp,sp,112
 1002bcc:	8082                	ret
 1002bce:	86d6                	mv	a3,s5
 1002bd0:	865a                	mv	a2,s6
 1002bd2:	85a2                	mv	a1,s0
 1002bd4:	8526                	mv	a0,s1
 1002bd6:	033010ef          	jal	ra,1004408 <__spl_start+0x2f18>
 1002bda:	8a2a                	mv	s4,a0
 1002bdc:	ed09                	bnez	a0,1002bf6 <__spl_start+0x1706>
 1002bde:	00006597          	auipc	a1,0x6
 1002be2:	bf258593          	addi	a1,a1,-1038 # 10087d0 <__spl_start+0x72e0>
 1002be6:	00006517          	auipc	a0,0x6
 1002bea:	14a50513          	addi	a0,a0,330 # 1008d30 <__spl_start+0x7840>
 1002bee:	2a7020ef          	jal	ra,1005694 <__spl_start+0x41a4>
 1002bf2:	5929                	li	s2,-22
 1002bf4:	b7c9                	j	1002bb6 <__spl_start+0x16c6>
 1002bf6:	00098d63          	beqz	s3,1002c10 <__spl_start+0x1720>
 1002bfa:	85a2                	mv	a1,s0
 1002bfc:	4601                	li	a2,0
 1002bfe:	8526                	mv	a0,s1
 1002c00:	5ae010ef          	jal	ra,10041ae <__spl_start+0x2cbe>
 1002c04:	85aa                	mv	a1,a0
 1002c06:	854e                	mv	a0,s3
 1002c08:	570020ef          	jal	ra,1005178 <__spl_start+0x3c88>
 1002c0c:	e111                	bnez	a0,1002c10 <__spl_start+0x1720>
 1002c0e:	8922                	mv	s2,s0
 1002c10:	8552                	mv	a0,s4
 1002c12:	9b82                	jalr	s7
 1002c14:	c519                	beqz	a0,1002c22 <__spl_start+0x1732>
 1002c16:	85a2                	mv	a1,s0
 1002c18:	8526                	mv	a0,s1
 1002c1a:	2a6010ef          	jal	ra,1003ec0 <__spl_start+0x29d0>
 1002c1e:	842a                	mv	s0,a0
 1002c20:	bf49                	j	1002bb2 <__spl_start+0x16c2>
 1002c22:	8922                	mv	s2,s0
 1002c24:	bf49                	j	1002bb6 <__spl_start+0x16c6>
 1002c26:	7179                	addi	sp,sp,-48
 1002c28:	ec26                	sd	s1,24(sp)
 1002c2a:	e84a                	sd	s2,16(sp)
 1002c2c:	e44e                	sd	s3,8(sp)
 1002c2e:	f406                	sd	ra,40(sp)
 1002c30:	f022                	sd	s0,32(sp)
 1002c32:	892a                	mv	s2,a0
 1002c34:	89ae                	mv	s3,a1
 1002c36:	84b2                	mv	s1,a2
 1002c38:	666010ef          	jal	ra,100429e <__spl_start+0x2dae>
 1002c3c:	57fd                	li	a5,-1
 1002c3e:	00f51763          	bne	a0,a5,1002c4c <__spl_start+0x175c>
 1002c42:	8626                	mv	a2,s1
 1002c44:	85ce                	mv	a1,s3
 1002c46:	854a                	mv	a0,s2
 1002c48:	0c4020ef          	jal	ra,1004d0c <__spl_start+0x381c>
 1002c4c:	842a                	mv	s0,a0
 1002c4e:	02055063          	bgez	a0,1002c6e <__spl_start+0x177e>
 1002c52:	0e7010ef          	jal	ra,1004538 <__spl_start+0x3048>
 1002c56:	86aa                	mv	a3,a0
 1002c58:	8626                	mv	a2,s1
 1002c5a:	00006597          	auipc	a1,0x6
 1002c5e:	bce58593          	addi	a1,a1,-1074 # 1008828 <__spl_start+0x7338>
 1002c62:	00006517          	auipc	a0,0x6
 1002c66:	f5650513          	addi	a0,a0,-170 # 1008bb8 <__spl_start+0x76c8>
 1002c6a:	22b020ef          	jal	ra,1005694 <__spl_start+0x41a4>
 1002c6e:	70a2                	ld	ra,40(sp)
 1002c70:	8522                	mv	a0,s0
 1002c72:	7402                	ld	s0,32(sp)
 1002c74:	64e2                	ld	s1,24(sp)
 1002c76:	6942                	ld	s2,16(sp)
 1002c78:	69a2                	ld	s3,8(sp)
 1002c7a:	6145                	addi	sp,sp,48
 1002c7c:	8082                	ret
 1002c7e:	7159                	addi	sp,sp,-112
 1002c80:	eca6                	sd	s1,88(sp)
 1002c82:	e8ca                	sd	s2,80(sp)
 1002c84:	e4ce                	sd	s3,72(sp)
 1002c86:	e0d2                	sd	s4,64(sp)
 1002c88:	fc56                	sd	s5,56(sp)
 1002c8a:	f85a                	sd	s6,48(sp)
 1002c8c:	f45e                	sd	s7,40(sp)
 1002c8e:	f486                	sd	ra,104(sp)
 1002c90:	f0a2                	sd	s0,96(sp)
 1002c92:	f062                	sd	s8,32(sp)
 1002c94:	89aa                	mv	s3,a0
 1002c96:	8bb2                	mv	s7,a2
 1002c98:	8b36                	mv	s6,a3
 1002c9a:	893a                	mv	s2,a4
 1002c9c:	84be                	mv	s1,a5
 1002c9e:	8ac2                	mv	s5,a6
 1002ca0:	8a46                	mv	s4,a7
 1002ca2:	77f000ef          	jal	ra,1003c20 <__spl_start+0x2730>
 1002ca6:	02055d63          	bgez	a0,1002ce0 <__spl_start+0x17f0>
 1002caa:	842a                	mv	s0,a0
 1002cac:	08d010ef          	jal	ra,1004538 <__spl_start+0x3048>
 1002cb0:	862a                	mv	a2,a0
 1002cb2:	00006597          	auipc	a1,0x6
 1002cb6:	b5e58593          	addi	a1,a1,-1186 # 1008810 <__spl_start+0x7320>
 1002cba:	00006517          	auipc	a0,0x6
 1002cbe:	f6650513          	addi	a0,a0,-154 # 1008c20 <__spl_start+0x7730>
 1002cc2:	1d3020ef          	jal	ra,1005694 <__spl_start+0x41a4>
 1002cc6:	70a6                	ld	ra,104(sp)
 1002cc8:	8522                	mv	a0,s0
 1002cca:	7406                	ld	s0,96(sp)
 1002ccc:	64e6                	ld	s1,88(sp)
 1002cce:	6946                	ld	s2,80(sp)
 1002cd0:	69a6                	ld	s3,72(sp)
 1002cd2:	6a06                	ld	s4,64(sp)
 1002cd4:	7ae2                	ld	s5,56(sp)
 1002cd6:	7b42                	ld	s6,48(sp)
 1002cd8:	7ba2                	ld	s7,40(sp)
 1002cda:	7c02                	ld	s8,32(sp)
 1002cdc:	6165                	addi	sp,sp,112
 1002cde:	8082                	ret
 1002ce0:	00006617          	auipc	a2,0x6
 1002ce4:	f9060613          	addi	a2,a2,-112 # 1008c70 <__spl_start+0x7780>
 1002ce8:	4581                	li	a1,0
 1002cea:	854e                	mv	a0,s3
 1002cec:	f3bff0ef          	jal	ra,1002c26 <__spl_start+0x1736>
 1002cf0:	842a                	mv	s0,a0
 1002cf2:	fc054ae3          	bltz	a0,1002cc6 <__spl_start+0x17d6>
 1002cf6:	85aa                	mv	a1,a0
 1002cf8:	865e                	mv	a2,s7
 1002cfa:	854e                	mv	a0,s3
 1002cfc:	f2bff0ef          	jal	ra,1002c26 <__spl_start+0x1736>
 1002d00:	842a                	mv	s0,a0
 1002d02:	fc0542e3          	bltz	a0,1002cc6 <__spl_start+0x17d6>
 1002d06:	018b571b          	srliw	a4,s6,0x18
 1002d0a:	018b179b          	slliw	a5,s6,0x18
 1002d0e:	8fd9                	or	a5,a5,a4
 1002d10:	00ff0bb7          	lui	s7,0xff0
 1002d14:	008b171b          	slliw	a4,s6,0x8
 1002d18:	420b5693          	srai	a3,s6,0x20
 1002d1c:	01777733          	and	a4,a4,s7
 1002d20:	0186d61b          	srliw	a2,a3,0x18
 1002d24:	8fd9                	or	a5,a5,a4
 1002d26:	0186971b          	slliw	a4,a3,0x18
 1002d2a:	8f51                	or	a4,a4,a2
 1002d2c:	6c41                	lui	s8,0x10
 1002d2e:	0086961b          	slliw	a2,a3,0x8
 1002d32:	f00c0c13          	addi	s8,s8,-256 # ff00 <_start-0xff0100>
 1002d36:	01767633          	and	a2,a2,s7
 1002d3a:	0086d69b          	srliw	a3,a3,0x8
 1002d3e:	8f51                	or	a4,a4,a2
 1002d40:	0186f6b3          	and	a3,a3,s8
 1002d44:	008b5b1b          	srliw	s6,s6,0x8
 1002d48:	8f55                	or	a4,a4,a3
 1002d4a:	018b7b33          	and	s6,s6,s8
 1002d4e:	0167e7b3          	or	a5,a5,s6
 1002d52:	1702                	slli	a4,a4,0x20
 1002d54:	9301                	srli	a4,a4,0x20
 1002d56:	1782                	slli	a5,a5,0x20
 1002d58:	8fd9                	or	a5,a5,a4
 1002d5a:	0834                	addi	a3,sp,24
 1002d5c:	85aa                	mv	a1,a0
 1002d5e:	4721                	li	a4,8
 1002d60:	00006617          	auipc	a2,0x6
 1002d64:	f2060613          	addi	a2,a2,-224 # 1008c80 <__spl_start+0x7790>
 1002d68:	854e                	mv	a0,s3
 1002d6a:	ec3e                	sd	a5,24(sp)
 1002d6c:	e436                	sd	a3,8(sp)
 1002d6e:	697010ef          	jal	ra,1004c04 <__spl_start+0x3714>
 1002d72:	57fd                	li	a5,-1
 1002d74:	66a2                	ld	a3,8(sp)
 1002d76:	06f48163          	beq	s1,a5,1002dd8 <__spl_start+0x18e8>
 1002d7a:	0184d71b          	srliw	a4,s1,0x18
 1002d7e:	0184979b          	slliw	a5,s1,0x18
 1002d82:	8fd9                	or	a5,a5,a4
 1002d84:	0084971b          	slliw	a4,s1,0x8
 1002d88:	4204d613          	srai	a2,s1,0x20
 1002d8c:	01777733          	and	a4,a4,s7
 1002d90:	0186559b          	srliw	a1,a2,0x18
 1002d94:	8fd9                	or	a5,a5,a4
 1002d96:	0186171b          	slliw	a4,a2,0x18
 1002d9a:	8f4d                	or	a4,a4,a1
 1002d9c:	0086159b          	slliw	a1,a2,0x8
 1002da0:	0175f5b3          	and	a1,a1,s7
 1002da4:	0086561b          	srliw	a2,a2,0x8
 1002da8:	8f4d                	or	a4,a4,a1
 1002daa:	01867633          	and	a2,a2,s8
 1002dae:	0084d49b          	srliw	s1,s1,0x8
 1002db2:	8f51                	or	a4,a4,a2
 1002db4:	0184f4b3          	and	s1,s1,s8
 1002db8:	8fc5                	or	a5,a5,s1
 1002dba:	1702                	slli	a4,a4,0x20
 1002dbc:	9301                	srli	a4,a4,0x20
 1002dbe:	1782                	slli	a5,a5,0x20
 1002dc0:	8fd9                	or	a5,a5,a4
 1002dc2:	00006617          	auipc	a2,0x6
 1002dc6:	ec660613          	addi	a2,a2,-314 # 1008c88 <__spl_start+0x7798>
 1002dca:	4721                	li	a4,8
 1002dcc:	85a2                	mv	a1,s0
 1002dce:	854e                	mv	a0,s3
 1002dd0:	ec3e                	sd	a5,24(sp)
 1002dd2:	633010ef          	jal	ra,1004c04 <__spl_start+0x3714>
 1002dd6:	66a2                	ld	a3,8(sp)
 1002dd8:	0189571b          	srliw	a4,s2,0x18
 1002ddc:	0189179b          	slliw	a5,s2,0x18
 1002de0:	8fd9                	or	a5,a5,a4
 1002de2:	00ff0637          	lui	a2,0xff0
 1002de6:	0089171b          	slliw	a4,s2,0x8
 1002dea:	8f71                	and	a4,a4,a2
 1002dec:	8fd9                	or	a5,a5,a4
 1002dee:	6741                	lui	a4,0x10
 1002df0:	f0070713          	addi	a4,a4,-256 # ff00 <_start-0xff0100>
 1002df4:	0089591b          	srliw	s2,s2,0x8
 1002df8:	00e97933          	and	s2,s2,a4
 1002dfc:	0127e7b3          	or	a5,a5,s2
 1002e00:	4711                	li	a4,4
 1002e02:	00006617          	auipc	a2,0x6
 1002e06:	13e60613          	addi	a2,a2,318 # 1008f40 <__spl_start+0x7a50>
 1002e0a:	85a2                	mv	a1,s0
 1002e0c:	854e                	mv	a0,s3
 1002e0e:	cc3e                	sw	a5,24(sp)
 1002e10:	5f5010ef          	jal	ra,1004c04 <__spl_start+0x3714>
 1002e14:	020a8063          	beqz	s5,1002e34 <__spl_start+0x1944>
 1002e18:	8556                	mv	a0,s5
 1002e1a:	396020ef          	jal	ra,10051b0 <__spl_start+0x3cc0>
 1002e1e:	0015071b          	addiw	a4,a0,1
 1002e22:	86d6                	mv	a3,s5
 1002e24:	00007617          	auipc	a2,0x7
 1002e28:	4e460613          	addi	a2,a2,1252 # 100a308 <__spl_start+0x8e18>
 1002e2c:	85a2                	mv	a1,s0
 1002e2e:	854e                	mv	a0,s3
 1002e30:	5d5010ef          	jal	ra,1004c04 <__spl_start+0x3714>
 1002e34:	e80a09e3          	beqz	s4,1002cc6 <__spl_start+0x17d6>
 1002e38:	8552                	mv	a0,s4
 1002e3a:	376020ef          	jal	ra,10051b0 <__spl_start+0x3cc0>
 1002e3e:	0015071b          	addiw	a4,a0,1
 1002e42:	86d2                	mv	a3,s4
 1002e44:	00007617          	auipc	a2,0x7
 1002e48:	4cc60613          	addi	a2,a2,1228 # 100a310 <__spl_start+0x8e20>
 1002e4c:	85a2                	mv	a1,s0
 1002e4e:	854e                	mv	a0,s3
 1002e50:	5b5010ef          	jal	ra,1004c04 <__spl_start+0x3714>
 1002e54:	bd8d                	j	1002cc6 <__spl_start+0x17d6>
 1002e56:	0e050b63          	beqz	a0,1002f4c <__spl_start+0x1a5c>
 1002e5a:	715d                	addi	sp,sp,-80
 1002e5c:	e0a2                	sd	s0,64(sp)
 1002e5e:	fc26                	sd	s1,56(sp)
 1002e60:	f84a                	sd	s2,48(sp)
 1002e62:	f44e                	sd	s3,40(sp)
 1002e64:	f052                	sd	s4,32(sp)
 1002e66:	842e                	mv	s0,a1
 1002e68:	e486                	sd	ra,72(sp)
 1002e6a:	84aa                	mv	s1,a0
 1002e6c:	2c0010ef          	jal	ra,100412c <__spl_start+0x2c3c>
 1002e70:	892a                	mv	s2,a0
 1002e72:	4581                	li	a1,0
 1002e74:	01810993          	addi	s3,sp,24
 1002e78:	01010a13          	addi	s4,sp,16
 1002e7c:	0125c463          	blt	a1,s2,1002e84 <__spl_start+0x1994>
 1002e80:	4601                	li	a2,0
 1002e82:	a839                	j	1002ea0 <__spl_start+0x19b0>
 1002e84:	86ce                	mv	a3,s3
 1002e86:	8652                	mv	a2,s4
 1002e88:	8526                	mv	a0,s1
 1002e8a:	e42e                	sd	a1,8(sp)
 1002e8c:	1ea010ef          	jal	ra,1004076 <__spl_start+0x2b86>
 1002e90:	67c2                	ld	a5,16(sp)
 1002e92:	65a2                	ld	a1,8(sp)
 1002e94:	0af49063          	bne	s1,a5,1002f34 <__spl_start+0x1a44>
 1002e98:	8526                	mv	a0,s1
 1002e9a:	44d010ef          	jal	ra,1004ae6 <__spl_start+0x35f6>
 1002e9e:	4605                	li	a2,1
 1002ea0:	44d8                	lw	a4,12(s1)
 1002ea2:	00ff0837          	lui	a6,0xff0
 1002ea6:	509c                	lw	a5,32(s1)
 1002ea8:	0187559b          	srliw	a1,a4,0x18
 1002eac:	0187169b          	slliw	a3,a4,0x18
 1002eb0:	8ecd                	or	a3,a3,a1
 1002eb2:	0087159b          	slliw	a1,a4,0x8
 1002eb6:	0105f5b3          	and	a1,a1,a6
 1002eba:	8ecd                	or	a3,a3,a1
 1002ebc:	65c1                	lui	a1,0x10
 1002ebe:	f0058593          	addi	a1,a1,-256 # ff00 <_start-0xff0100>
 1002ec2:	0087571b          	srliw	a4,a4,0x8
 1002ec6:	8f6d                	and	a4,a4,a1
 1002ec8:	8f55                	or	a4,a4,a3
 1002eca:	6685                	lui	a3,0x1
 1002ecc:	04f6869b          	addiw	a3,a3,79
 1002ed0:	03449513          	slli	a0,s1,0x34
 1002ed4:	9151                	srli	a0,a0,0x34
 1002ed6:	9c35                	addw	s0,s0,a3
 1002ed8:	9c29                	addw	s0,s0,a0
 1002eda:	0187d69b          	srliw	a3,a5,0x18
 1002ede:	9c39                	addw	s0,s0,a4
 1002ee0:	0187971b          	slliw	a4,a5,0x18
 1002ee4:	8f55                	or	a4,a4,a3
 1002ee6:	0087969b          	slliw	a3,a5,0x8
 1002eea:	0106f6b3          	and	a3,a3,a6
 1002eee:	0087d79b          	srliw	a5,a5,0x8
 1002ef2:	8f55                	or	a4,a4,a3
 1002ef4:	8fed                	and	a5,a5,a1
 1002ef6:	8fd9                	or	a5,a5,a4
 1002ef8:	9c3d                	addw	s0,s0,a5
 1002efa:	77fd                	lui	a5,0xfffff
 1002efc:	8c7d                	and	s0,s0,a5
 1002efe:	9c09                	subw	s0,s0,a0
 1002f00:	0184571b          	srliw	a4,s0,0x18
 1002f04:	0184179b          	slliw	a5,s0,0x18
 1002f08:	8fd9                	or	a5,a5,a4
 1002f0a:	0084171b          	slliw	a4,s0,0x8
 1002f0e:	01077733          	and	a4,a4,a6
 1002f12:	8fd9                	or	a5,a5,a4
 1002f14:	0084571b          	srliw	a4,s0,0x8
 1002f18:	8f6d                	and	a4,a4,a1
 1002f1a:	8fd9                	or	a5,a5,a4
 1002f1c:	c0dc                	sw	a5,4(s1)
 1002f1e:	ee09                	bnez	a2,1002f38 <__spl_start+0x1a48>
 1002f20:	0004051b          	sext.w	a0,s0
 1002f24:	60a6                	ld	ra,72(sp)
 1002f26:	6406                	ld	s0,64(sp)
 1002f28:	74e2                	ld	s1,56(sp)
 1002f2a:	7942                	ld	s2,48(sp)
 1002f2c:	79a2                	ld	s3,40(sp)
 1002f2e:	7a02                	ld	s4,32(sp)
 1002f30:	6161                	addi	sp,sp,80
 1002f32:	8082                	ret
 1002f34:	2585                	addiw	a1,a1,1
 1002f36:	b799                	j	1002e7c <__spl_start+0x198c>
 1002f38:	02041613          	slli	a2,s0,0x20
 1002f3c:	9201                	srli	a2,a2,0x20
 1002f3e:	85a6                	mv	a1,s1
 1002f40:	8526                	mv	a0,s1
 1002f42:	29f010ef          	jal	ra,10049e0 <__spl_start+0x34f0>
 1002f46:	fc055de3          	bgez	a0,1002f20 <__spl_start+0x1a30>
 1002f4a:	bfe9                	j	1002f24 <__spl_start+0x1a34>
 1002f4c:	4501                	li	a0,0
 1002f4e:	8082                	ret
 1002f50:	4789                	li	a5,2
 1002f52:	00a7cb63          	blt	a5,a0,1002f68 <__spl_start+0x1a78>
 1002f56:	050e                	slli	a0,a0,0x3
 1002f58:	00009797          	auipc	a5,0x9
 1002f5c:	2407b783          	ld	a5,576(a5) # 100c198 <__spl_start+0xaca8>
 1002f60:	97aa                	add	a5,a5,a0
 1002f62:	6388                	ld	a0,0(a5)
 1002f64:	7d1c                	ld	a5,56(a0)
 1002f66:	8782                	jr	a5
 1002f68:	8082                	ret
 1002f6a:	85aa                	mv	a1,a0
 1002f6c:	00018d63          	beqz	gp,1002f86 <__spl_start+0x1a96>
 1002f70:	0381b703          	ld	a4,56(gp)
 1002f74:	cb09                	beqz	a4,1002f86 <__spl_start+0x1a96>
 1002f76:	0081b783          	ld	a5,8(gp)
 1002f7a:	8b89                	andi	a5,a5,2
 1002f7c:	c399                	beqz	a5,1002f82 <__spl_start+0x1a92>
 1002f7e:	4505                	li	a0,1
 1002f80:	bfc1                	j	1002f50 <__spl_start+0x1a60>
 1002f82:	4460406f          	j	10073c8 <__spl_start+0x5ed8>
 1002f86:	8082                	ret
 1002f88:	4789                	li	a5,2
 1002f8a:	00a7cb63          	blt	a5,a0,1002fa0 <__spl_start+0x1ab0>
 1002f8e:	050e                	slli	a0,a0,0x3
 1002f90:	00009797          	auipc	a5,0x9
 1002f94:	2087b783          	ld	a5,520(a5) # 100c198 <__spl_start+0xaca8>
 1002f98:	97aa                	add	a5,a5,a0
 1002f9a:	6388                	ld	a0,0(a5)
 1002f9c:	613c                	ld	a5,64(a0)
 1002f9e:	8782                	jr	a5
 1002fa0:	8082                	ret
 1002fa2:	85aa                	mv	a1,a0
 1002fa4:	00018d63          	beqz	gp,1002fbe <__spl_start+0x1ace>
 1002fa8:	0381b703          	ld	a4,56(gp)
 1002fac:	cb09                	beqz	a4,1002fbe <__spl_start+0x1ace>
 1002fae:	0081b783          	ld	a5,8(gp)
 1002fb2:	8b89                	andi	a5,a5,2
 1002fb4:	c399                	beqz	a5,1002fba <__spl_start+0x1aca>
 1002fb6:	4505                	li	a0,1
 1002fb8:	bfc1                	j	1002f88 <__spl_start+0x1a98>
 1002fba:	41c0406f          	j	10073d6 <__spl_start+0x5ee6>
 1002fbe:	8082                	ret
 1002fc0:	1101                	addi	sp,sp,-32
 1002fc2:	e04a                	sd	s2,0(sp)
 1002fc4:	00009917          	auipc	s2,0x9
 1002fc8:	1f493903          	ld	s2,500(s2) # 100c1b8 <__spl_start+0xacc8>
 1002fcc:	e426                	sd	s1,8(sp)
 1002fce:	00093483          	ld	s1,0(s2)
 1002fd2:	e822                	sd	s0,16(sp)
 1002fd4:	ec06                	sd	ra,24(sp)
 1002fd6:	00950433          	add	s0,a0,s1
 1002fda:	00055863          	bgez	a0,1002fea <__spl_start+0x1afa>
 1002fde:	40a00633          	neg	a2,a0
 1002fe2:	4581                	li	a1,0
 1002fe4:	8522                	mv	a0,s0
 1002fe6:	ccbfe0ef          	jal	ra,1001cb0 <__spl_start+0x7c0>
 1002fea:	00009797          	auipc	a5,0x9
 1002fee:	1867b783          	ld	a5,390(a5) # 100c170 <__spl_start+0xac80>
 1002ff2:	639c                	ld	a5,0(a5)
 1002ff4:	557d                	li	a0,-1
 1002ff6:	00f46c63          	bltu	s0,a5,100300e <__spl_start+0x1b1e>
 1002ffa:	00009797          	auipc	a5,0x9
 1002ffe:	11e7b783          	ld	a5,286(a5) # 100c118 <__spl_start+0xac28>
 1003002:	639c                	ld	a5,0(a5)
 1003004:	0087e563          	bltu	a5,s0,100300e <__spl_start+0x1b1e>
 1003008:	00893023          	sd	s0,0(s2)
 100300c:	8526                	mv	a0,s1
 100300e:	60e2                	ld	ra,24(sp)
 1003010:	6442                	ld	s0,16(sp)
 1003012:	64a2                	ld	s1,8(sp)
 1003014:	6902                	ld	s2,0(sp)
 1003016:	6105                	addi	sp,sp,32
 1003018:	8082                	ret
 100301a:	00009717          	auipc	a4,0x9
 100301e:	15673703          	ld	a4,342(a4) # 100c170 <__spl_start+0xac80>
 1003022:	e308                	sd	a0,0(a4)
 1003024:	00b506b3          	add	a3,a0,a1
 1003028:	00009717          	auipc	a4,0x9
 100302c:	0f073703          	ld	a4,240(a4) # 100c118 <__spl_start+0xac28>
 1003030:	e314                	sd	a3,0(a4)
 1003032:	862e                	mv	a2,a1
 1003034:	00009717          	auipc	a4,0x9
 1003038:	18473703          	ld	a4,388(a4) # 100c1b8 <__spl_start+0xacc8>
 100303c:	4581                	li	a1,0
 100303e:	e308                	sd	a0,0(a4)
 1003040:	c71fe06f          	j	1001cb0 <__spl_start+0x7c0>
 1003044:	1101                	addi	sp,sp,-32
 1003046:	e04a                	sd	s2,0(sp)
 1003048:	00008917          	auipc	s2,0x8
 100304c:	42890913          	addi	s2,s2,1064 # 100b470 <__spl_start+0x9f80>
 1003050:	01093783          	ld	a5,16(s2)
 1003054:	e822                	sd	s0,16(sp)
 1003056:	ec06                	sd	ra,24(sp)
 1003058:	e426                	sd	s1,8(sp)
 100305a:	6784                	ld	s1,8(a5)
 100305c:	6705                	lui	a4,0x1
 100305e:	fdf70793          	addi	a5,a4,-33 # fdf <_start-0xfff021>
 1003062:	98f1                	andi	s1,s1,-4
 1003064:	40a78433          	sub	s0,a5,a0
 1003068:	9426                	add	s0,s0,s1
 100306a:	8031                	srli	s0,s0,0xc
 100306c:	147d                	addi	s0,s0,-1
 100306e:	0432                	slli	s0,s0,0xc
 1003070:	00e45963          	bge	s0,a4,1003082 <__spl_start+0x1b92>
 1003074:	4501                	li	a0,0
 1003076:	60e2                	ld	ra,24(sp)
 1003078:	6442                	ld	s0,16(sp)
 100307a:	64a2                	ld	s1,8(sp)
 100307c:	6902                	ld	s2,0(sp)
 100307e:	6105                	addi	sp,sp,32
 1003080:	8082                	ret
 1003082:	4501                	li	a0,0
 1003084:	f3dff0ef          	jal	ra,1002fc0 <__spl_start+0x1ad0>
 1003088:	01093783          	ld	a5,16(s2)
 100308c:	97a6                	add	a5,a5,s1
 100308e:	fef513e3          	bne	a0,a5,1003074 <__spl_start+0x1b84>
 1003092:	40800533          	neg	a0,s0
 1003096:	f2bff0ef          	jal	ra,1002fc0 <__spl_start+0x1ad0>
 100309a:	57fd                	li	a5,-1
 100309c:	02f51963          	bne	a0,a5,10030ce <__spl_start+0x1bde>
 10030a0:	4501                	li	a0,0
 10030a2:	f1fff0ef          	jal	ra,1002fc0 <__spl_start+0x1ad0>
 10030a6:	01093703          	ld	a4,16(s2)
 10030aa:	46fd                	li	a3,31
 10030ac:	40e507b3          	sub	a5,a0,a4
 10030b0:	fcf6d2e3          	bge	a3,a5,1003074 <__spl_start+0x1b84>
 10030b4:	00009697          	auipc	a3,0x9
 10030b8:	bcc6b683          	ld	a3,-1076(a3) # 100bc80 <__spl_start+0xa790>
 10030bc:	8d15                	sub	a0,a0,a3
 10030be:	0017e793          	ori	a5,a5,1
 10030c2:	00016697          	auipc	a3,0x16
 10030c6:	44a6af23          	sw	a0,1118(a3) # 1019520 <__spl_src_start+0xc438>
 10030ca:	e71c                	sd	a5,8(a4)
 10030cc:	b765                	j	1003074 <__spl_start+0x1b84>
 10030ce:	01093783          	ld	a5,16(s2)
 10030d2:	8c81                	sub	s1,s1,s0
 10030d4:	00016717          	auipc	a4,0x16
 10030d8:	44c70713          	addi	a4,a4,1100 # 1019520 <__spl_src_start+0xc438>
 10030dc:	0014e493          	ori	s1,s1,1
 10030e0:	e784                	sd	s1,8(a5)
 10030e2:	431c                	lw	a5,0(a4)
 10030e4:	4505                	li	a0,1
 10030e6:	9f81                	subw	a5,a5,s0
 10030e8:	c31c                	sw	a5,0(a4)
 10030ea:	b771                	j	1003076 <__spl_start+0x1b86>
 10030ec:	0081b783          	ld	a5,8(gp)
 10030f0:	2007f793          	andi	a5,a5,512
 10030f4:	14078763          	beqz	a5,1003242 <__spl_start+0x1d52>
 10030f8:	14050563          	beqz	a0,1003242 <__spl_start+0x1d52>
 10030fc:	ff853803          	ld	a6,-8(a0)
 1003100:	ff050693          	addi	a3,a0,-16
 1003104:	00008617          	auipc	a2,0x8
 1003108:	36c60613          	addi	a2,a2,876 # 100b470 <__spl_start+0x9f80>
 100310c:	ffe87793          	andi	a5,a6,-2
 1003110:	00f685b3          	add	a1,a3,a5
 1003114:	6598                	ld	a4,8(a1)
 1003116:	01063883          	ld	a7,16(a2)
 100311a:	00187813          	andi	a6,a6,1
 100311e:	9b71                	andi	a4,a4,-4
 1003120:	03159c63          	bne	a1,a7,1003158 <__spl_start+0x1c68>
 1003124:	973e                	add	a4,a4,a5
 1003126:	00081a63          	bnez	a6,100313a <__spl_start+0x1c4a>
 100312a:	ff053783          	ld	a5,-16(a0)
 100312e:	8e9d                	sub	a3,a3,a5
 1003130:	6a8c                	ld	a1,16(a3)
 1003132:	973e                	add	a4,a4,a5
 1003134:	6e9c                	ld	a5,24(a3)
 1003136:	ed9c                	sd	a5,24(a1)
 1003138:	eb8c                	sd	a1,16(a5)
 100313a:	00176793          	ori	a5,a4,1
 100313e:	e69c                	sd	a5,8(a3)
 1003140:	ea14                	sd	a3,16(a2)
 1003142:	00009797          	auipc	a5,0x9
 1003146:	b467b783          	ld	a5,-1210(a5) # 100bc88 <__spl_start+0xa798>
 100314a:	0ef76c63          	bltu	a4,a5,1003242 <__spl_start+0x1d52>
 100314e:	00016517          	auipc	a0,0x16
 1003152:	42253503          	ld	a0,1058(a0) # 1019570 <__spl_src_start+0xc488>
 1003156:	b5fd                	j	1003044 <__spl_start+0x1b54>
 1003158:	e598                	sd	a4,8(a1)
 100315a:	4881                	li	a7,0
 100315c:	02081363          	bnez	a6,1003182 <__spl_start+0x1c92>
 1003160:	ff053503          	ld	a0,-16(a0)
 1003164:	00008817          	auipc	a6,0x8
 1003168:	31c80813          	addi	a6,a6,796 # 100b480 <__spl_start+0x9f90>
 100316c:	8e89                	sub	a3,a3,a0
 100316e:	97aa                	add	a5,a5,a0
 1003170:	6a88                	ld	a0,16(a3)
 1003172:	09050063          	beq	a0,a6,10031f2 <__spl_start+0x1d02>
 1003176:	0186b803          	ld	a6,24(a3)
 100317a:	01053c23          	sd	a6,24(a0)
 100317e:	00a83823          	sd	a0,16(a6)
 1003182:	00e58533          	add	a0,a1,a4
 1003186:	6508                	ld	a0,8(a0)
 1003188:	8905                	andi	a0,a0,1
 100318a:	e105                	bnez	a0,10031aa <__spl_start+0x1cba>
 100318c:	97ba                	add	a5,a5,a4
 100318e:	6998                	ld	a4,16(a1)
 1003190:	06089363          	bnez	a7,10031f6 <__spl_start+0x1d06>
 1003194:	00008517          	auipc	a0,0x8
 1003198:	2ec50513          	addi	a0,a0,748 # 100b480 <__spl_start+0x9f90>
 100319c:	04a71d63          	bne	a4,a0,10031f6 <__spl_start+0x1d06>
 10031a0:	f614                	sd	a3,40(a2)
 10031a2:	f214                	sd	a3,32(a2)
 10031a4:	ee98                	sd	a4,24(a3)
 10031a6:	ea98                	sd	a4,16(a3)
 10031a8:	4885                	li	a7,1
 10031aa:	0017e713          	ori	a4,a5,1
 10031ae:	e698                	sd	a4,8(a3)
 10031b0:	00f68733          	add	a4,a3,a5
 10031b4:	e31c                	sd	a5,0(a4)
 10031b6:	08089663          	bnez	a7,1003242 <__spl_start+0x1d52>
 10031ba:	1ff00713          	li	a4,511
 10031be:	04f76063          	bltu	a4,a5,10031fe <__spl_start+0x1d0e>
 10031c2:	838d                	srli	a5,a5,0x3
 10031c4:	4027d59b          	sraiw	a1,a5,0x2
 10031c8:	4705                	li	a4,1
 10031ca:	00b7173b          	sllw	a4,a4,a1
 10031ce:	660c                	ld	a1,8(a2)
 10031d0:	1702                	slli	a4,a4,0x20
 10031d2:	2785                	addiw	a5,a5,1
 10031d4:	9301                	srli	a4,a4,0x20
 10031d6:	0017979b          	slliw	a5,a5,0x1
 10031da:	8f4d                	or	a4,a4,a1
 10031dc:	078e                	slli	a5,a5,0x3
 10031de:	e618                	sd	a4,8(a2)
 10031e0:	97b2                	add	a5,a5,a2
 10031e2:	6398                	ld	a4,0(a5)
 10031e4:	ff078613          	addi	a2,a5,-16
 10031e8:	ee90                	sd	a2,24(a3)
 10031ea:	ea98                	sd	a4,16(a3)
 10031ec:	e394                	sd	a3,0(a5)
 10031ee:	ef14                	sd	a3,24(a4)
 10031f0:	8082                	ret
 10031f2:	4885                	li	a7,1
 10031f4:	b779                	j	1003182 <__spl_start+0x1c92>
 10031f6:	6d8c                	ld	a1,24(a1)
 10031f8:	ef0c                	sd	a1,24(a4)
 10031fa:	e998                	sd	a4,16(a1)
 10031fc:	b77d                	j	10031aa <__spl_start+0x1cba>
 10031fe:	0097d593          	srli	a1,a5,0x9
 1003202:	4711                	li	a4,4
 1003204:	04b76063          	bltu	a4,a1,1003244 <__spl_start+0x1d54>
 1003208:	0067d713          	srli	a4,a5,0x6
 100320c:	0387071b          	addiw	a4,a4,56
 1003210:	0017059b          	addiw	a1,a4,1
 1003214:	0015959b          	slliw	a1,a1,0x1
 1003218:	058e                	slli	a1,a1,0x3
 100321a:	95b2                	add	a1,a1,a2
 100321c:	ff058513          	addi	a0,a1,-16
 1003220:	618c                	ld	a1,0(a1)
 1003222:	06b51763          	bne	a0,a1,1003290 <__spl_start+0x1da0>
 1003226:	4027571b          	sraiw	a4,a4,0x2
 100322a:	4785                	li	a5,1
 100322c:	00e797bb          	sllw	a5,a5,a4
 1003230:	6618                	ld	a4,8(a2)
 1003232:	1782                	slli	a5,a5,0x20
 1003234:	9381                	srli	a5,a5,0x20
 1003236:	8fd9                	or	a5,a5,a4
 1003238:	e61c                	sd	a5,8(a2)
 100323a:	ee88                	sd	a0,24(a3)
 100323c:	ea8c                	sd	a1,16(a3)
 100323e:	e914                	sd	a3,16(a0)
 1003240:	ed94                	sd	a3,24(a1)
 1003242:	8082                	ret
 1003244:	4751                	li	a4,20
 1003246:	00b76563          	bltu	a4,a1,1003250 <__spl_start+0x1d60>
 100324a:	05b5871b          	addiw	a4,a1,91
 100324e:	b7c9                	j	1003210 <__spl_start+0x1d20>
 1003250:	05400713          	li	a4,84
 1003254:	00b76763          	bltu	a4,a1,1003262 <__spl_start+0x1d72>
 1003258:	00c7d713          	srli	a4,a5,0xc
 100325c:	06e7071b          	addiw	a4,a4,110
 1003260:	bf45                	j	1003210 <__spl_start+0x1d20>
 1003262:	15400713          	li	a4,340
 1003266:	00b76763          	bltu	a4,a1,1003274 <__spl_start+0x1d84>
 100326a:	00f7d713          	srli	a4,a5,0xf
 100326e:	0777071b          	addiw	a4,a4,119
 1003272:	bf79                	j	1003210 <__spl_start+0x1d20>
 1003274:	55400513          	li	a0,1364
 1003278:	07e00713          	li	a4,126
 100327c:	f8b56ae3          	bltu	a0,a1,1003210 <__spl_start+0x1d20>
 1003280:	0127d713          	srli	a4,a5,0x12
 1003284:	07c7071b          	addiw	a4,a4,124
 1003288:	b761                	j	1003210 <__spl_start+0x1d20>
 100328a:	698c                	ld	a1,16(a1)
 100328c:	00b50663          	beq	a0,a1,1003298 <__spl_start+0x1da8>
 1003290:	6598                	ld	a4,8(a1)
 1003292:	9b71                	andi	a4,a4,-4
 1003294:	fee7ebe3          	bltu	a5,a4,100328a <__spl_start+0x1d9a>
 1003298:	6d88                	ld	a0,24(a1)
 100329a:	b745                	j	100323a <__spl_start+0x1d4a>
 100329c:	0081b703          	ld	a4,8(gp)
 10032a0:	20077713          	andi	a4,a4,512
 10032a4:	e311                	bnez	a4,10032a8 <__spl_start+0x1db8>
 10032a6:	a71d                	j	10039cc <__spl_start+0x24dc>
 10032a8:	00009717          	auipc	a4,0x9
 10032ac:	ec873703          	ld	a4,-312(a4) # 100c170 <__spl_start+0xac80>
 10032b0:	00009697          	auipc	a3,0x9
 10032b4:	e686b683          	ld	a3,-408(a3) # 100c118 <__spl_start+0xac28>
 10032b8:	6318                	ld	a4,0(a4)
 10032ba:	6294                	ld	a3,0(a3)
 10032bc:	8f55                	or	a4,a4,a3
 10032be:	e319                	bnez	a4,10032c4 <__spl_start+0x1dd4>
 10032c0:	4501                	li	a0,0
 10032c2:	8082                	ret
 10032c4:	fe054ee3          	bltz	a0,10032c0 <__spl_start+0x1dd0>
 10032c8:	715d                	addi	sp,sp,-80
 10032ca:	f84a                	sd	s2,48(sp)
 10032cc:	e486                	sd	ra,72(sp)
 10032ce:	e0a2                	sd	s0,64(sp)
 10032d0:	fc26                	sd	s1,56(sp)
 10032d2:	f44e                	sd	s3,40(sp)
 10032d4:	f052                	sd	s4,32(sp)
 10032d6:	ec56                	sd	s5,24(sp)
 10032d8:	e85a                	sd	s6,16(sp)
 10032da:	e45e                	sd	s7,8(sp)
 10032dc:	e062                	sd	s8,0(sp)
 10032de:	01750793          	addi	a5,a0,23
 10032e2:	02e00713          	li	a4,46
 10032e6:	00008917          	auipc	s2,0x8
 10032ea:	18a90913          	addi	s2,s2,394 # 100b470 <__spl_start+0x9f80>
 10032ee:	04f75663          	bge	a4,a5,100333a <__spl_start+0x1e4a>
 10032f2:	ff07f493          	andi	s1,a5,-16
 10032f6:	1f700793          	li	a5,503
 10032fa:	0497e363          	bltu	a5,s1,1003340 <__spl_start+0x1e50>
 10032fe:	0034d713          	srli	a4,s1,0x3
 1003302:	0007079b          	sext.w	a5,a4
 1003306:	2705                	addiw	a4,a4,1
 1003308:	0017171b          	slliw	a4,a4,0x1
 100330c:	070e                	slli	a4,a4,0x3
 100330e:	974a                	add	a4,a4,s2
 1003310:	6708                	ld	a0,8(a4)
 1003312:	ff070693          	addi	a3,a4,-16
 1003316:	00d51663          	bne	a0,a3,1003322 <__spl_start+0x1e32>
 100331a:	6f08                	ld	a0,24(a4)
 100331c:	2789                	addiw	a5,a5,2
 100331e:	06a70163          	beq	a4,a0,1003380 <__spl_start+0x1e90>
 1003322:	651c                	ld	a5,8(a0)
 1003324:	6d18                	ld	a4,24(a0)
 1003326:	6914                	ld	a3,16(a0)
 1003328:	9bf1                	andi	a5,a5,-4
 100332a:	97aa                	add	a5,a5,a0
 100332c:	ee98                	sd	a4,24(a3)
 100332e:	eb14                	sd	a3,16(a4)
 1003330:	6798                	ld	a4,8(a5)
 1003332:	00176713          	ori	a4,a4,1
 1003336:	e798                	sd	a4,8(a5)
 1003338:	a059                	j	10033be <__spl_start+0x1ece>
 100333a:	02000493          	li	s1,32
 100333e:	b7c1                	j	10032fe <__spl_start+0x1e0e>
 1003340:	0094d713          	srli	a4,s1,0x9
 1003344:	03f00793          	li	a5,63
 1003348:	cb01                	beqz	a4,1003358 <__spl_start+0x1e68>
 100334a:	4791                	li	a5,4
 100334c:	08e7e663          	bltu	a5,a4,10033d8 <__spl_start+0x1ee8>
 1003350:	0064d793          	srli	a5,s1,0x6
 1003354:	0387879b          	addiw	a5,a5,56
 1003358:	0017871b          	addiw	a4,a5,1
 100335c:	0017171b          	slliw	a4,a4,0x1
 1003360:	070e                	slli	a4,a4,0x3
 1003362:	974a                	add	a4,a4,s2
 1003364:	6708                	ld	a0,8(a4)
 1003366:	ff070593          	addi	a1,a4,-16
 100336a:	487d                	li	a6,31
 100336c:	00a58963          	beq	a1,a0,100337e <__spl_start+0x1e8e>
 1003370:	6518                	ld	a4,8(a0)
 1003372:	9b71                	andi	a4,a4,-4
 1003374:	40970633          	sub	a2,a4,s1
 1003378:	0ac85363          	bge	a6,a2,100341e <__spl_start+0x1f2e>
 100337c:	37fd                	addiw	a5,a5,-1
 100337e:	2785                	addiw	a5,a5,1
 1003380:	02093503          	ld	a0,32(s2)
 1003384:	00008597          	auipc	a1,0x8
 1003388:	0fc58593          	addi	a1,a1,252 # 100b480 <__spl_start+0x9f90>
 100338c:	0eb50e63          	beq	a0,a1,1003488 <__spl_start+0x1f98>
 1003390:	6518                	ld	a4,8(a0)
 1003392:	46fd                	li	a3,31
 1003394:	9b71                	andi	a4,a4,-4
 1003396:	40970633          	sub	a2,a4,s1
 100339a:	08c6dd63          	bge	a3,a2,1003434 <__spl_start+0x1f44>
 100339e:	0014e793          	ori	a5,s1,1
 10033a2:	e51c                	sd	a5,8(a0)
 10033a4:	009506b3          	add	a3,a0,s1
 10033a8:	02d93423          	sd	a3,40(s2)
 10033ac:	02d93023          	sd	a3,32(s2)
 10033b0:	00166793          	ori	a5,a2,1
 10033b4:	ee8c                	sd	a1,24(a3)
 10033b6:	ea8c                	sd	a1,16(a3)
 10033b8:	e69c                	sd	a5,8(a3)
 10033ba:	972a                	add	a4,a4,a0
 10033bc:	e310                	sd	a2,0(a4)
 10033be:	0541                	addi	a0,a0,16
 10033c0:	60a6                	ld	ra,72(sp)
 10033c2:	6406                	ld	s0,64(sp)
 10033c4:	74e2                	ld	s1,56(sp)
 10033c6:	7942                	ld	s2,48(sp)
 10033c8:	79a2                	ld	s3,40(sp)
 10033ca:	7a02                	ld	s4,32(sp)
 10033cc:	6ae2                	ld	s5,24(sp)
 10033ce:	6b42                	ld	s6,16(sp)
 10033d0:	6ba2                	ld	s7,8(sp)
 10033d2:	6c02                	ld	s8,0(sp)
 10033d4:	6161                	addi	sp,sp,80
 10033d6:	8082                	ret
 10033d8:	47d1                	li	a5,20
 10033da:	00e7e563          	bltu	a5,a4,10033e4 <__spl_start+0x1ef4>
 10033de:	05b7079b          	addiw	a5,a4,91
 10033e2:	bf9d                	j	1003358 <__spl_start+0x1e68>
 10033e4:	05400793          	li	a5,84
 10033e8:	00e7e763          	bltu	a5,a4,10033f6 <__spl_start+0x1f06>
 10033ec:	00c4d793          	srli	a5,s1,0xc
 10033f0:	06e7879b          	addiw	a5,a5,110
 10033f4:	b795                	j	1003358 <__spl_start+0x1e68>
 10033f6:	15400793          	li	a5,340
 10033fa:	00e7e763          	bltu	a5,a4,1003408 <__spl_start+0x1f18>
 10033fe:	00f4d793          	srli	a5,s1,0xf
 1003402:	0777879b          	addiw	a5,a5,119
 1003406:	bf89                	j	1003358 <__spl_start+0x1e68>
 1003408:	55400693          	li	a3,1364
 100340c:	07e00793          	li	a5,126
 1003410:	f4e6e4e3          	bltu	a3,a4,1003358 <__spl_start+0x1e68>
 1003414:	0124d793          	srli	a5,s1,0x12
 1003418:	07c7879b          	addiw	a5,a5,124
 100341c:	bf35                	j	1003358 <__spl_start+0x1e68>
 100341e:	6d14                	ld	a3,24(a0)
 1003420:	00064863          	bltz	a2,1003430 <__spl_start+0x1f40>
 1003424:	691c                	ld	a5,16(a0)
 1003426:	ef94                	sd	a3,24(a5)
 1003428:	ea9c                	sd	a5,16(a3)
 100342a:	00e507b3          	add	a5,a0,a4
 100342e:	b709                	j	1003330 <__spl_start+0x1e40>
 1003430:	8536                	mv	a0,a3
 1003432:	bf2d                	j	100336c <__spl_start+0x1e7c>
 1003434:	02b93423          	sd	a1,40(s2)
 1003438:	02b93023          	sd	a1,32(s2)
 100343c:	00064863          	bltz	a2,100344c <__spl_start+0x1f5c>
 1003440:	972a                	add	a4,a4,a0
 1003442:	671c                	ld	a5,8(a4)
 1003444:	0017e793          	ori	a5,a5,1
 1003448:	e71c                	sd	a5,8(a4)
 100344a:	bf95                	j	10033be <__spl_start+0x1ece>
 100344c:	1ff00693          	li	a3,511
 1003450:	00893883          	ld	a7,8(s2)
 1003454:	14e6e163          	bltu	a3,a4,1003596 <__spl_start+0x20a6>
 1003458:	830d                	srli	a4,a4,0x3
 100345a:	4027561b          	sraiw	a2,a4,0x2
 100345e:	4685                	li	a3,1
 1003460:	00c696bb          	sllw	a3,a3,a2
 1003464:	1682                	slli	a3,a3,0x20
 1003466:	2705                	addiw	a4,a4,1
 1003468:	9281                	srli	a3,a3,0x20
 100346a:	0017171b          	slliw	a4,a4,0x1
 100346e:	00d8e6b3          	or	a3,a7,a3
 1003472:	070e                	slli	a4,a4,0x3
 1003474:	974a                	add	a4,a4,s2
 1003476:	00d93423          	sd	a3,8(s2)
 100347a:	6314                	ld	a3,0(a4)
 100347c:	ff070613          	addi	a2,a4,-16
 1003480:	ed10                	sd	a2,24(a0)
 1003482:	e914                	sd	a3,16(a0)
 1003484:	e308                	sd	a0,0(a4)
 1003486:	ee88                	sd	a0,24(a3)
 1003488:	4027d69b          	sraiw	a3,a5,0x2
 100348c:	4705                	li	a4,1
 100348e:	00d7173b          	sllw	a4,a4,a3
 1003492:	02071313          	slli	t1,a4,0x20
 1003496:	00893703          	ld	a4,8(s2)
 100349a:	02035313          	srli	t1,t1,0x20
 100349e:	06676063          	bltu	a4,t1,10034fe <__spl_start+0x200e>
 10034a2:	00e376b3          	and	a3,t1,a4
 10034a6:	e699                	bnez	a3,10034b4 <__spl_start+0x1fc4>
 10034a8:	9bf1                	andi	a5,a5,-4
 10034aa:	0306                	slli	t1,t1,0x1
 10034ac:	006776b3          	and	a3,a4,t1
 10034b0:	2791                	addiw	a5,a5,4
 10034b2:	dee5                	beqz	a3,10034aa <__spl_start+0x1fba>
 10034b4:	4e7d                	li	t3,31
 10034b6:	0017871b          	addiw	a4,a5,1
 10034ba:	0017171b          	slliw	a4,a4,0x1
 10034be:	070e                	slli	a4,a4,0x3
 10034c0:	1741                	addi	a4,a4,-16
 10034c2:	974a                	add	a4,a4,s2
 10034c4:	883a                	mv	a6,a4
 10034c6:	863e                	mv	a2,a5
 10034c8:	01883503          	ld	a0,24(a6)
 10034cc:	16a81863          	bne	a6,a0,100363c <__spl_start+0x214c>
 10034d0:	2605                	addiw	a2,a2,1
 10034d2:	00367693          	andi	a3,a2,3
 10034d6:	0841                	addi	a6,a6,16
 10034d8:	fae5                	bnez	a3,10034c8 <__spl_start+0x1fd8>
 10034da:	0037f693          	andi	a3,a5,3
 10034de:	1a069963          	bnez	a3,1003690 <__spl_start+0x21a0>
 10034e2:	00893783          	ld	a5,8(s2)
 10034e6:	fff34713          	not	a4,t1
 10034ea:	8ff9                	and	a5,a5,a4
 10034ec:	00f93423          	sd	a5,8(s2)
 10034f0:	00893683          	ld	a3,8(s2)
 10034f4:	0306                	slli	t1,t1,0x1
 10034f6:	0066e463          	bltu	a3,t1,10034fe <__spl_start+0x200e>
 10034fa:	1a031763          	bnez	t1,10036a8 <__spl_start+0x21b8>
 10034fe:	01093a83          	ld	s5,16(s2)
 1003502:	47fd                	li	a5,31
 1003504:	008aba03          	ld	s4,8(s5)
 1003508:	ffca7a13          	andi	s4,s4,-4
 100350c:	409a0733          	sub	a4,s4,s1
 1003510:	22e7c063          	blt	a5,a4,1003730 <__spl_start+0x2240>
 1003514:	00008c17          	auipc	s8,0x8
 1003518:	76cc0c13          	addi	s8,s8,1900 # 100bc80 <__spl_start+0xa790>
 100351c:	000c3703          	ld	a4,0(s8)
 1003520:	00016417          	auipc	s0,0x16
 1003524:	05043403          	ld	s0,80(s0) # 1019570 <__spl_src_start+0xc488>
 1003528:	57fd                	li	a5,-1
 100352a:	014a8b33          	add	s6,s5,s4
 100352e:	9426                	add	s0,s0,s1
 1003530:	16f71e63          	bne	a4,a5,10036ac <__spl_start+0x21bc>
 1003534:	02040413          	addi	s0,s0,32
 1003538:	8522                	mv	a0,s0
 100353a:	a87ff0ef          	jal	ra,1002fc0 <__spl_start+0x1ad0>
 100353e:	57fd                	li	a5,-1
 1003540:	89aa                	mv	s3,a0
 1003542:	1cf50e63          	beq	a0,a5,100371e <__spl_start+0x222e>
 1003546:	01657463          	bgeu	a0,s6,100354e <__spl_start+0x205e>
 100354a:	1d2a9a63          	bne	s5,s2,100371e <__spl_start+0x222e>
 100354e:	00016b97          	auipc	s7,0x16
 1003552:	fd2b8b93          	addi	s7,s7,-46 # 1019520 <__spl_src_start+0xc438>
 1003556:	000ba783          	lw	a5,0(s7)
 100355a:	9fa1                	addw	a5,a5,s0
 100355c:	00fba023          	sw	a5,0(s7)
 1003560:	153b1c63          	bne	s6,s3,10036b8 <__spl_start+0x21c8>
 1003564:	01093783          	ld	a5,16(s2)
 1003568:	9452                	add	s0,s0,s4
 100356a:	00146413          	ori	s0,s0,1
 100356e:	e780                	sd	s0,8(a5)
 1003570:	00016717          	auipc	a4,0x16
 1003574:	fd870713          	addi	a4,a4,-40 # 1019548 <__spl_src_start+0xc460>
 1003578:	000ba783          	lw	a5,0(s7)
 100357c:	6314                	ld	a3,0(a4)
 100357e:	00f6f363          	bgeu	a3,a5,1003584 <__spl_start+0x2094>
 1003582:	e31c                	sd	a5,0(a4)
 1003584:	00016717          	auipc	a4,0x16
 1003588:	fcc70713          	addi	a4,a4,-52 # 1019550 <__spl_src_start+0xc468>
 100358c:	6314                	ld	a3,0(a4)
 100358e:	18f6f863          	bgeu	a3,a5,100371e <__spl_start+0x222e>
 1003592:	e31c                	sd	a5,0(a4)
 1003594:	a269                	j	100371e <__spl_start+0x222e>
 1003596:	00975613          	srli	a2,a4,0x9
 100359a:	4691                	li	a3,4
 100359c:	04c6e363          	bltu	a3,a2,10035e2 <__spl_start+0x20f2>
 10035a0:	00675693          	srli	a3,a4,0x6
 10035a4:	0386869b          	addiw	a3,a3,56
 10035a8:	0016861b          	addiw	a2,a3,1
 10035ac:	0016161b          	slliw	a2,a2,0x1
 10035b0:	060e                	slli	a2,a2,0x3
 10035b2:	964a                	add	a2,a2,s2
 10035b4:	ff060813          	addi	a6,a2,-16
 10035b8:	6210                	ld	a2,0(a2)
 10035ba:	06c81a63          	bne	a6,a2,100362e <__spl_start+0x213e>
 10035be:	4026d69b          	sraiw	a3,a3,0x2
 10035c2:	4705                	li	a4,1
 10035c4:	00d7173b          	sllw	a4,a4,a3
 10035c8:	1702                	slli	a4,a4,0x20
 10035ca:	9301                	srli	a4,a4,0x20
 10035cc:	00e8e733          	or	a4,a7,a4
 10035d0:	00e93423          	sd	a4,8(s2)
 10035d4:	01053c23          	sd	a6,24(a0)
 10035d8:	e910                	sd	a2,16(a0)
 10035da:	00a83823          	sd	a0,16(a6)
 10035de:	ee08                	sd	a0,24(a2)
 10035e0:	b565                	j	1003488 <__spl_start+0x1f98>
 10035e2:	46d1                	li	a3,20
 10035e4:	00c6e563          	bltu	a3,a2,10035ee <__spl_start+0x20fe>
 10035e8:	05b6069b          	addiw	a3,a2,91
 10035ec:	bf75                	j	10035a8 <__spl_start+0x20b8>
 10035ee:	05400693          	li	a3,84
 10035f2:	00c6e763          	bltu	a3,a2,1003600 <__spl_start+0x2110>
 10035f6:	00c75693          	srli	a3,a4,0xc
 10035fa:	06e6869b          	addiw	a3,a3,110
 10035fe:	b76d                	j	10035a8 <__spl_start+0x20b8>
 1003600:	15400693          	li	a3,340
 1003604:	00c6e763          	bltu	a3,a2,1003612 <__spl_start+0x2122>
 1003608:	00f75693          	srli	a3,a4,0xf
 100360c:	0776869b          	addiw	a3,a3,119
 1003610:	bf61                	j	10035a8 <__spl_start+0x20b8>
 1003612:	55400813          	li	a6,1364
 1003616:	07e00693          	li	a3,126
 100361a:	f8c867e3          	bltu	a6,a2,10035a8 <__spl_start+0x20b8>
 100361e:	01275693          	srli	a3,a4,0x12
 1003622:	07c6869b          	addiw	a3,a3,124
 1003626:	b749                	j	10035a8 <__spl_start+0x20b8>
 1003628:	6a10                	ld	a2,16(a2)
 100362a:	00c80663          	beq	a6,a2,1003636 <__spl_start+0x2146>
 100362e:	6614                	ld	a3,8(a2)
 1003630:	9af1                	andi	a3,a3,-4
 1003632:	fed76be3          	bltu	a4,a3,1003628 <__spl_start+0x2138>
 1003636:	01863803          	ld	a6,24(a2)
 100363a:	bf69                	j	10035d4 <__spl_start+0x20e4>
 100363c:	6514                	ld	a3,8(a0)
 100363e:	9af1                	andi	a3,a3,-4
 1003640:	409688b3          	sub	a7,a3,s1
 1003644:	031e5863          	bge	t3,a7,1003674 <__spl_start+0x2184>
 1003648:	0014e793          	ori	a5,s1,1
 100364c:	e51c                	sd	a5,8(a0)
 100364e:	6910                	ld	a2,16(a0)
 1003650:	6d1c                	ld	a5,24(a0)
 1003652:	00950733          	add	a4,a0,s1
 1003656:	96aa                	add	a3,a3,a0
 1003658:	ee1c                	sd	a5,24(a2)
 100365a:	eb90                	sd	a2,16(a5)
 100365c:	02e93423          	sd	a4,40(s2)
 1003660:	02e93023          	sd	a4,32(s2)
 1003664:	0018e793          	ori	a5,a7,1
 1003668:	ef0c                	sd	a1,24(a4)
 100366a:	eb0c                	sd	a1,16(a4)
 100366c:	e71c                	sd	a5,8(a4)
 100366e:	0116b023          	sd	a7,0(a3)
 1003672:	b3b1                	j	10033be <__spl_start+0x1ece>
 1003674:	0008cc63          	bltz	a7,100368c <__spl_start+0x219c>
 1003678:	96aa                	add	a3,a3,a0
 100367a:	669c                	ld	a5,8(a3)
 100367c:	0017e793          	ori	a5,a5,1
 1003680:	e69c                	sd	a5,8(a3)
 1003682:	6d1c                	ld	a5,24(a0)
 1003684:	6918                	ld	a4,16(a0)
 1003686:	ef1c                	sd	a5,24(a4)
 1003688:	eb98                	sd	a4,16(a5)
 100368a:	bb15                	j	10033be <__spl_start+0x1ece>
 100368c:	6d08                	ld	a0,24(a0)
 100368e:	bd3d                	j	10034cc <__spl_start+0x1fdc>
 1003690:	6314                	ld	a3,0(a4)
 1003692:	1741                	addi	a4,a4,-16
 1003694:	37fd                	addiw	a5,a5,-1
 1003696:	e4d702e3          	beq	a4,a3,10034da <__spl_start+0x1fea>
 100369a:	bd99                	j	10034f0 <__spl_start+0x2000>
 100369c:	2791                	addiw	a5,a5,4
 100369e:	0306                	slli	t1,t1,0x1
 10036a0:	0066f733          	and	a4,a3,t1
 10036a4:	df65                	beqz	a4,100369c <__spl_start+0x21ac>
 10036a6:	bd01                	j	10034b6 <__spl_start+0x1fc6>
 10036a8:	87b2                	mv	a5,a2
 10036aa:	bfdd                	j	10036a0 <__spl_start+0x21b0>
 10036ac:	6785                	lui	a5,0x1
 10036ae:	07fd                	addi	a5,a5,31
 10036b0:	943e                	add	s0,s0,a5
 10036b2:	77fd                	lui	a5,0xfffff
 10036b4:	8c7d                	and	s0,s0,a5
 10036b6:	b549                	j	1003538 <__spl_start+0x2048>
 10036b8:	000c3683          	ld	a3,0(s8)
 10036bc:	577d                	li	a4,-1
 10036be:	08e69363          	bne	a3,a4,1003744 <__spl_start+0x2254>
 10036c2:	013c3023          	sd	s3,0(s8)
 10036c6:	00f9f793          	andi	a5,s3,15
 10036ca:	c789                	beqz	a5,10036d4 <__spl_start+0x21e4>
 10036cc:	4741                	li	a4,16
 10036ce:	40f707b3          	sub	a5,a4,a5
 10036d2:	99be                	add	s3,s3,a5
 10036d4:	6705                	lui	a4,0x1
 10036d6:	944e                	add	s0,s0,s3
 10036d8:	177d                	addi	a4,a4,-1
 10036da:	8f81                	sub	a5,a5,s0
 10036dc:	943a                	add	s0,s0,a4
 10036de:	777d                	lui	a4,0xfffff
 10036e0:	8c79                	and	s0,s0,a4
 10036e2:	943e                	add	s0,s0,a5
 10036e4:	8522                	mv	a0,s0
 10036e6:	8dbff0ef          	jal	ra,1002fc0 <__spl_start+0x1ad0>
 10036ea:	57fd                	li	a5,-1
 10036ec:	02f50963          	beq	a0,a5,100371e <__spl_start+0x222e>
 10036f0:	000ba783          	lw	a5,0(s7)
 10036f4:	41350533          	sub	a0,a0,s3
 10036f8:	9522                	add	a0,a0,s0
 10036fa:	9fa1                	addw	a5,a5,s0
 10036fc:	01393823          	sd	s3,16(s2)
 1003700:	00156513          	ori	a0,a0,1
 1003704:	00fba023          	sw	a5,0(s7)
 1003708:	00a9b423          	sd	a0,8(s3)
 100370c:	e72a82e3          	beq	s5,s2,1003570 <__spl_start+0x2080>
 1003710:	477d                	li	a4,31
 1003712:	05476063          	bltu	a4,s4,1003752 <__spl_start+0x2262>
 1003716:	01093783          	ld	a5,16(s2)
 100371a:	4705                	li	a4,1
 100371c:	e798                	sd	a4,8(a5)
 100371e:	01093783          	ld	a5,16(s2)
 1003722:	4501                	li	a0,0
 1003724:	6798                	ld	a4,8(a5)
 1003726:	47fd                	li	a5,31
 1003728:	9b71                	andi	a4,a4,-4
 100372a:	8f05                	sub	a4,a4,s1
 100372c:	c8e7dae3          	bge	a5,a4,10033c0 <__spl_start+0x1ed0>
 1003730:	01093503          	ld	a0,16(s2)
 1003734:	0014e793          	ori	a5,s1,1
 1003738:	e51c                	sd	a5,8(a0)
 100373a:	009507b3          	add	a5,a0,s1
 100373e:	00f93823          	sd	a5,16(s2)
 1003742:	bec5                	j	1003332 <__spl_start+0x1e42>
 1003744:	41698b33          	sub	s6,s3,s6
 1003748:	00fb0b3b          	addw	s6,s6,a5
 100374c:	016ba023          	sw	s6,0(s7)
 1003750:	bf9d                	j	10036c6 <__spl_start+0x21d6>
 1003752:	008ab783          	ld	a5,8(s5)
 1003756:	1a21                	addi	s4,s4,-24
 1003758:	ff0a7a13          	andi	s4,s4,-16
 100375c:	8b85                	andi	a5,a5,1
 100375e:	0147e7b3          	or	a5,a5,s4
 1003762:	00fab423          	sd	a5,8(s5)
 1003766:	46a5                	li	a3,9
 1003768:	014a87b3          	add	a5,s5,s4
 100376c:	e794                	sd	a3,8(a5)
 100376e:	eb94                	sd	a3,16(a5)
 1003770:	e14770e3          	bgeu	a4,s4,1003570 <__spl_start+0x2080>
 1003774:	010a8513          	addi	a0,s5,16
 1003778:	975ff0ef          	jal	ra,10030ec <__spl_start+0x1bfc>
 100377c:	bbd5                	j	1003570 <__spl_start+0x2080>
 100377e:	02b50633          	mul	a2,a0,a1
 1003782:	7139                	addi	sp,sp,-64
 1003784:	f822                	sd	s0,48(sp)
 1003786:	f04a                	sd	s2,32(sp)
 1003788:	ec4e                	sd	s3,24(sp)
 100378a:	fc06                	sd	ra,56(sp)
 100378c:	f426                	sd	s1,40(sp)
 100378e:	00008997          	auipc	s3,0x8
 1003792:	cf29b983          	ld	s3,-782(s3) # 100b480 <__spl_start+0x9f90>
 1003796:	892a                	mv	s2,a0
 1003798:	0089b483          	ld	s1,8(s3)
 100379c:	8532                	mv	a0,a2
 100379e:	e432                	sd	a2,8(sp)
 10037a0:	4401                	li	s0,0
 10037a2:	afbff0ef          	jal	ra,100329c <__spl_start+0x1dac>
 10037a6:	06094163          	bltz	s2,1003808 <__spl_start+0x2318>
 10037aa:	842a                	mv	s0,a0
 10037ac:	cd31                	beqz	a0,1003808 <__spl_start+0x2318>
 10037ae:	0081b783          	ld	a5,8(gp)
 10037b2:	6622                	ld	a2,8(sp)
 10037b4:	4581                	li	a1,0
 10037b6:	2007f793          	andi	a5,a5,512
 10037ba:	c3c1                	beqz	a5,100383a <__spl_start+0x234a>
 10037bc:	ff853603          	ld	a2,-8(a0)
 10037c0:	ff050793          	addi	a5,a0,-16
 10037c4:	9a71                	andi	a2,a2,-4
 10037c6:	00f99763          	bne	s3,a5,10037d4 <__spl_start+0x22e4>
 10037ca:	ffc4f793          	andi	a5,s1,-4
 10037ce:	00c7f363          	bgeu	a5,a2,10037d4 <__spl_start+0x22e4>
 10037d2:	863e                	mv	a2,a5
 10037d4:	1661                	addi	a2,a2,-8
 10037d6:	04800713          	li	a4,72
 10037da:	04c76e63          	bltu	a4,a2,1003836 <__spl_start+0x2346>
 10037de:	02700693          	li	a3,39
 10037e2:	87a2                	mv	a5,s0
 10037e4:	00c6fc63          	bgeu	a3,a2,10037fc <__spl_start+0x230c>
 10037e8:	00043023          	sd	zero,0(s0)
 10037ec:	00043423          	sd	zero,8(s0)
 10037f0:	03700793          	li	a5,55
 10037f4:	02c7e263          	bltu	a5,a2,1003818 <__spl_start+0x2328>
 10037f8:	01040793          	addi	a5,s0,16
 10037fc:	0007b023          	sd	zero,0(a5) # fffffffffffff000 <__soc_ctrl_scratch1+0xfffffffffdffefe8>
 1003800:	0007b423          	sd	zero,8(a5)
 1003804:	0007b823          	sd	zero,16(a5)
 1003808:	70e2                	ld	ra,56(sp)
 100380a:	8522                	mv	a0,s0
 100380c:	7442                	ld	s0,48(sp)
 100380e:	74a2                	ld	s1,40(sp)
 1003810:	7902                	ld	s2,32(sp)
 1003812:	69e2                	ld	s3,24(sp)
 1003814:	6121                	addi	sp,sp,64
 1003816:	8082                	ret
 1003818:	00043823          	sd	zero,16(s0)
 100381c:	00043c23          	sd	zero,24(s0)
 1003820:	02040793          	addi	a5,s0,32
 1003824:	fce61ce3          	bne	a2,a4,10037fc <__spl_start+0x230c>
 1003828:	02043023          	sd	zero,32(s0)
 100382c:	03040793          	addi	a5,s0,48
 1003830:	02043423          	sd	zero,40(s0)
 1003834:	b7e1                	j	10037fc <__spl_start+0x230c>
 1003836:	4581                	li	a1,0
 1003838:	8522                	mv	a0,s0
 100383a:	c76fe0ef          	jal	ra,1001cb0 <__spl_start+0x7c0>
 100383e:	b7e9                	j	1003808 <__spl_start+0x2318>
 1003840:	7179                	addi	sp,sp,-48
 1003842:	f406                	sd	ra,40(sp)
 1003844:	f022                	sd	s0,32(sp)
 1003846:	ec26                	sd	s1,24(sp)
 1003848:	e84a                	sd	s2,16(sp)
 100384a:	e44e                	sd	s3,8(sp)
 100384c:	e052                	sd	s4,0(sp)
 100384e:	0005dc63          	bgez	a1,1003866 <__spl_start+0x2376>
 1003852:	4401                	li	s0,0
 1003854:	70a2                	ld	ra,40(sp)
 1003856:	8522                	mv	a0,s0
 1003858:	7402                	ld	s0,32(sp)
 100385a:	64e2                	ld	s1,24(sp)
 100385c:	6942                	ld	s2,16(sp)
 100385e:	69a2                	ld	s3,8(sp)
 1003860:	6a02                	ld	s4,0(sp)
 1003862:	6145                	addi	sp,sp,48
 1003864:	8082                	ret
 1003866:	0081b783          	ld	a5,8(gp)
 100386a:	2007f793          	andi	a5,a5,512
 100386e:	eb89                	bnez	a5,1003880 <__spl_start+0x2390>
 1003870:	7402                	ld	s0,32(sp)
 1003872:	70a2                	ld	ra,40(sp)
 1003874:	64e2                	ld	s1,24(sp)
 1003876:	6942                	ld	s2,16(sp)
 1003878:	69a2                	ld	s3,8(sp)
 100387a:	6a02                	ld	s4,0(sp)
 100387c:	6145                	addi	sp,sp,48
 100387e:	aa89                	j	10039d0 <__spl_start+0x24e0>
 1003880:	47c1                	li	a5,16
 1003882:	84aa                	mv	s1,a0
 1003884:	892e                	mv	s2,a1
 1003886:	00a7ec63          	bltu	a5,a0,100389e <__spl_start+0x23ae>
 100388a:	7402                	ld	s0,32(sp)
 100388c:	70a2                	ld	ra,40(sp)
 100388e:	64e2                	ld	s1,24(sp)
 1003890:	6942                	ld	s2,16(sp)
 1003892:	69a2                	ld	s3,8(sp)
 1003894:	6a02                	ld	s4,0(sp)
 1003896:	852e                	mv	a0,a1
 1003898:	6145                	addi	sp,sp,48
 100389a:	a03ff06f          	j	100329c <__spl_start+0x1dac>
 100389e:	02000793          	li	a5,32
 10038a2:	00f57463          	bgeu	a0,a5,10038aa <__spl_start+0x23ba>
 10038a6:	02000493          	li	s1,32
 10038aa:	01790793          	addi	a5,s2,23
 10038ae:	02e00713          	li	a4,46
 10038b2:	02000993          	li	s3,32
 10038b6:	00f75463          	bge	a4,a5,10038be <__spl_start+0x23ce>
 10038ba:	ff07f993          	andi	s3,a5,-16
 10038be:	02048513          	addi	a0,s1,32
 10038c2:	954e                	add	a0,a0,s3
 10038c4:	9d9ff0ef          	jal	ra,100329c <__spl_start+0x1dac>
 10038c8:	87aa                	mv	a5,a0
 10038ca:	ed05                	bnez	a0,1003902 <__spl_start+0x2412>
 10038cc:	854a                	mv	a0,s2
 10038ce:	9cfff0ef          	jal	ra,100329c <__spl_start+0x1dac>
 10038d2:	02957a33          	remu	s4,a0,s1
 10038d6:	842a                	mv	s0,a0
 10038d8:	f60a0ee3          	beqz	s4,1003854 <__spl_start+0x2364>
 10038dc:	811ff0ef          	jal	ra,10030ec <__spl_start+0x1bfc>
 10038e0:	41448a33          	sub	s4,s1,s4
 10038e4:	01490533          	add	a0,s2,s4
 10038e8:	9b5ff0ef          	jal	ra,100329c <__spl_start+0x1dac>
 10038ec:	87aa                	mv	a5,a0
 10038ee:	d135                	beqz	a0,1003852 <__spl_start+0x2362>
 10038f0:	02957733          	remu	a4,a0,s1
 10038f4:	40e48733          	sub	a4,s1,a4
 10038f8:	00ea7563          	bgeu	s4,a4,1003902 <__spl_start+0x2412>
 10038fc:	ff0ff0ef          	jal	ra,10030ec <__spl_start+0x1bfc>
 1003900:	bf89                	j	1003852 <__spl_start+0x2362>
 1003902:	0297f733          	remu	a4,a5,s1
 1003906:	ff078413          	addi	s0,a5,-16
 100390a:	cb21                	beqz	a4,100395a <__spl_start+0x246a>
 100390c:	fff48913          	addi	s2,s1,-1
 1003910:	4090073b          	negw	a4,s1
 1003914:	993e                	add	s2,s2,a5
 1003916:	00e97933          	and	s2,s2,a4
 100391a:	1941                	addi	s2,s2,-16
 100391c:	408906b3          	sub	a3,s2,s0
 1003920:	477d                	li	a4,31
 1003922:	00d76363          	bltu	a4,a3,1003928 <__spl_start+0x2438>
 1003926:	9926                	add	s2,s2,s1
 1003928:	ff87b703          	ld	a4,-8(a5)
 100392c:	40890433          	sub	s0,s2,s0
 1003930:	853e                	mv	a0,a5
 1003932:	9b71                	andi	a4,a4,-4
 1003934:	8f01                	sub	a4,a4,s0
 1003936:	00176693          	ori	a3,a4,1
 100393a:	00d93423          	sd	a3,8(s2)
 100393e:	974a                	add	a4,a4,s2
 1003940:	6714                	ld	a3,8(a4)
 1003942:	0016e693          	ori	a3,a3,1
 1003946:	e714                	sd	a3,8(a4)
 1003948:	ff87b703          	ld	a4,-8(a5)
 100394c:	8b05                	andi	a4,a4,1
 100394e:	8f41                	or	a4,a4,s0
 1003950:	fee7bc23          	sd	a4,-8(a5)
 1003954:	f98ff0ef          	jal	ra,10030ec <__spl_start+0x1bfc>
 1003958:	844a                	mv	s0,s2
 100395a:	641c                	ld	a5,8(s0)
 100395c:	477d                	li	a4,31
 100395e:	9bf1                	andi	a5,a5,-4
 1003960:	413787b3          	sub	a5,a5,s3
 1003964:	00f75f63          	bge	a4,a5,1003982 <__spl_start+0x2492>
 1003968:	01340533          	add	a0,s0,s3
 100396c:	0017e793          	ori	a5,a5,1
 1003970:	e51c                	sd	a5,8(a0)
 1003972:	641c                	ld	a5,8(s0)
 1003974:	0541                	addi	a0,a0,16
 1003976:	8b85                	andi	a5,a5,1
 1003978:	0137e7b3          	or	a5,a5,s3
 100397c:	e41c                	sd	a5,8(s0)
 100397e:	f6eff0ef          	jal	ra,10030ec <__spl_start+0x1bfc>
 1003982:	0441                	addi	s0,s0,16
 1003984:	bdc1                	j	1003854 <__spl_start+0x2364>
 1003986:	1201b703          	ld	a4,288(gp)
 100398a:	1301b783          	ld	a5,304(gp)
 100398e:	1281b603          	ld	a2,296(gp)
 1003992:	8d19                	sub	a0,a0,a4
 1003994:	97ba                	add	a5,a5,a4
 1003996:	17fd                	addi	a5,a5,-1
 1003998:	97ae                	add	a5,a5,a1
 100399a:	40b005b3          	neg	a1,a1
 100399e:	8fed                	and	a5,a5,a1
 10039a0:	00f50733          	add	a4,a0,a5
 10039a4:	00e67e63          	bgeu	a2,a4,10039c0 <__spl_start+0x24d0>
 10039a8:	1141                	addi	sp,sp,-16
 10039aa:	00005517          	auipc	a0,0x5
 10039ae:	08650513          	addi	a0,a0,134 # 1008a30 <__spl_start+0x7540>
 10039b2:	e406                	sd	ra,8(sp)
 10039b4:	4e1010ef          	jal	ra,1005694 <__spl_start+0x41a4>
 10039b8:	60a2                	ld	ra,8(sp)
 10039ba:	4501                	li	a0,0
 10039bc:	0141                	addi	sp,sp,16
 10039be:	8082                	ret
 10039c0:	071d                	addi	a4,a4,7
 10039c2:	9b61                	andi	a4,a4,-8
 10039c4:	853e                	mv	a0,a5
 10039c6:	12e1b823          	sd	a4,304(gp)
 10039ca:	8082                	ret
 10039cc:	4585                	li	a1,1
 10039ce:	bf65                	j	1003986 <__spl_start+0x2496>
 10039d0:	87ae                	mv	a5,a1
 10039d2:	0005059b          	sext.w	a1,a0
 10039d6:	853e                	mv	a0,a5
 10039d8:	b77d                	j	1003986 <__spl_start+0x2496>
 10039da:	1101                	addi	sp,sp,-32
 10039dc:	e822                	sd	s0,16(sp)
 10039de:	e426                	sd	s1,8(sp)
 10039e0:	ec06                	sd	ra,24(sp)
 10039e2:	842a                	mv	s0,a0
 10039e4:	84b2                	mv	s1,a2
 10039e6:	401c                	lw	a5,0(s0)
 10039e8:	0007d463          	bgez	a5,10039f0 <__spl_start+0x2500>
 10039ec:	557d                	li	a0,-1
 10039ee:	a801                	j	10039fe <__spl_start+0x250e>
 10039f0:	6408                	ld	a0,8(s0)
 10039f2:	c919                	beqz	a0,1003a08 <__spl_start+0x2518>
 10039f4:	85a6                	mv	a1,s1
 10039f6:	76a010ef          	jal	ra,1005160 <__spl_start+0x3c70>
 10039fa:	e519                	bnez	a0,1003a08 <__spl_start+0x2518>
 10039fc:	4008                	lw	a0,0(s0)
 10039fe:	60e2                	ld	ra,24(sp)
 1003a00:	6442                	ld	s0,16(sp)
 1003a02:	64a2                	ld	s1,8(sp)
 1003a04:	6105                	addi	sp,sp,32
 1003a06:	8082                	ret
 1003a08:	0461                	addi	s0,s0,24
 1003a0a:	bff1                	j	10039e6 <__spl_start+0x24f6>
 1003a0c:	862a                	mv	a2,a0
 1003a0e:	00007597          	auipc	a1,0x7
 1003a12:	1d258593          	addi	a1,a1,466 # 100abe0 <__spl_start+0x96f0>
 1003a16:	00008517          	auipc	a0,0x8
 1003a1a:	27a50513          	addi	a0,a0,634 # 100bc90 <__spl_start+0xa7a0>
 1003a1e:	bf75                	j	10039da <__spl_start+0x24ea>
 1003a20:	7179                	addi	sp,sp,-48
 1003a22:	ec26                	sd	s1,24(sp)
 1003a24:	84b6                	mv	s1,a3
 1003a26:	0074                	addi	a3,sp,12
 1003a28:	f022                	sd	s0,32(sp)
 1003a2a:	e84a                	sd	s2,16(sp)
 1003a2c:	f406                	sd	ra,40(sp)
 1003a2e:	8932                	mv	s2,a2
 1003a30:	1d9000ef          	jal	ra,1004408 <__spl_start+0x2f18>
 1003a34:	547d                	li	s0,-1
 1003a36:	c91d                	beqz	a0,1003a6c <__spl_start+0x257c>
 1003a38:	45b2                	lw	a1,12(sp)
 1003a3a:	66c1                	lui	a3,0x10
 1003a3c:	4781                	li	a5,0
 1003a3e:	4025d413          	srai	s0,a1,0x2
 1003a42:	58fd                	li	a7,-1
 1003a44:	00ff0337          	lui	t1,0xff0
 1003a48:	f0068693          	addi	a3,a3,-256 # ff00 <_start-0xff0100>
 1003a4c:	347d                	addiw	s0,s0,-1
 1003a4e:	03141663          	bne	s0,a7,1003a7a <__spl_start+0x258a>
 1003a52:	4721                	li	a4,8
 1003a54:	04b77a63          	bgeu	a4,a1,1003aa8 <__spl_start+0x25b8>
 1003a58:	0207d713          	srli	a4,a5,0x20
 1003a5c:	c731                	beqz	a4,1003aa8 <__spl_start+0x25b8>
 1003a5e:	85ca                	mv	a1,s2
 1003a60:	00005517          	auipc	a0,0x5
 1003a64:	2f850513          	addi	a0,a0,760 # 1008d58 <__spl_start+0x7868>
 1003a68:	42d010ef          	jal	ra,1005694 <__spl_start+0x41a4>
 1003a6c:	70a2                	ld	ra,40(sp)
 1003a6e:	8522                	mv	a0,s0
 1003a70:	7402                	ld	s0,32(sp)
 1003a72:	64e2                	ld	s1,24(sp)
 1003a74:	6942                	ld	s2,16(sp)
 1003a76:	6145                	addi	sp,sp,48
 1003a78:	8082                	ret
 1003a7a:	4118                	lw	a4,0(a0)
 1003a7c:	02079813          	slli	a6,a5,0x20
 1003a80:	0511                	addi	a0,a0,4
 1003a82:	0187561b          	srliw	a2,a4,0x18
 1003a86:	0187179b          	slliw	a5,a4,0x18
 1003a8a:	8fd1                	or	a5,a5,a2
 1003a8c:	0087161b          	slliw	a2,a4,0x8
 1003a90:	00667633          	and	a2,a2,t1
 1003a94:	0087571b          	srliw	a4,a4,0x8
 1003a98:	8fd1                	or	a5,a5,a2
 1003a9a:	8f75                	and	a4,a4,a3
 1003a9c:	8fd9                	or	a5,a5,a4
 1003a9e:	1782                	slli	a5,a5,0x20
 1003aa0:	9381                	srli	a5,a5,0x20
 1003aa2:	0107e7b3          	or	a5,a5,a6
 1003aa6:	b75d                	j	1003a4c <__spl_start+0x255c>
 1003aa8:	e09c                	sd	a5,0(s1)
 1003aaa:	4401                	li	s0,0
 1003aac:	b7c1                	j	1003a6c <__spl_start+0x257c>
 1003aae:	1101                	addi	sp,sp,-32
 1003ab0:	e822                	sd	s0,16(sp)
 1003ab2:	0074                	addi	a3,sp,12
 1003ab4:	8432                	mv	s0,a2
 1003ab6:	00007617          	auipc	a2,0x7
 1003aba:	85a60613          	addi	a2,a2,-1958 # 100a310 <__spl_start+0x8e20>
 1003abe:	ec06                	sd	ra,24(sp)
 1003ac0:	149000ef          	jal	ra,1004408 <__spl_start+0x2f18>
 1003ac4:	cd01                	beqz	a0,1003adc <__spl_start+0x25ec>
 1003ac6:	f47ff0ef          	jal	ra,1003a0c <__spl_start+0x251c>
 1003aca:	0ff57793          	andi	a5,a0,255
 1003ace:	4501                	li	a0,0
 1003ad0:	60e2                	ld	ra,24(sp)
 1003ad2:	00f40023          	sb	a5,0(s0)
 1003ad6:	6442                	ld	s0,16(sp)
 1003ad8:	6105                	addi	sp,sp,32
 1003ada:	8082                	ret
 1003adc:	0ff00793          	li	a5,255
 1003ae0:	557d                	li	a0,-1
 1003ae2:	b7fd                	j	1003ad0 <__spl_start+0x25e0>
 1003ae4:	86b2                	mv	a3,a2
 1003ae6:	00005617          	auipc	a2,0x5
 1003aea:	19a60613          	addi	a2,a2,410 # 1008c80 <__spl_start+0x7790>
 1003aee:	bf0d                	j	1003a20 <__spl_start+0x2530>
 1003af0:	86b2                	mv	a3,a2
 1003af2:	00005617          	auipc	a2,0x5
 1003af6:	19660613          	addi	a2,a2,406 # 1008c88 <__spl_start+0x7798>
 1003afa:	b71d                	j	1003a20 <__spl_start+0x2530>
 1003afc:	7179                	addi	sp,sp,-48
 1003afe:	f022                	sd	s0,32(sp)
 1003b00:	ec26                	sd	s1,24(sp)
 1003b02:	8436                	mv	s0,a3
 1003b04:	84b2                	mv	s1,a2
 1003b06:	0074                	addi	a3,sp,12
 1003b08:	00005617          	auipc	a2,0x5
 1003b0c:	27060613          	addi	a2,a2,624 # 1008d78 <__spl_start+0x7888>
 1003b10:	f406                	sd	ra,40(sp)
 1003b12:	0f7000ef          	jal	ra,1004408 <__spl_start+0x2f18>
 1003b16:	e088                	sd	a0,0(s1)
 1003b18:	c909                	beqz	a0,1003b2a <__spl_start+0x263a>
 1003b1a:	47b2                	lw	a5,12(sp)
 1003b1c:	4501                	li	a0,0
 1003b1e:	70a2                	ld	ra,40(sp)
 1003b20:	e01c                	sd	a5,0(s0)
 1003b22:	7402                	ld	s0,32(sp)
 1003b24:	64e2                	ld	s1,24(sp)
 1003b26:	6145                	addi	sp,sp,48
 1003b28:	8082                	ret
 1003b2a:	4781                	li	a5,0
 1003b2c:	557d                	li	a0,-1
 1003b2e:	bfc5                	j	1003b1e <__spl_start+0x262e>
 1003b30:	1141                	addi	sp,sp,-16
 1003b32:	e022                	sd	s0,0(sp)
 1003b34:	4681                	li	a3,0
 1003b36:	8432                	mv	s0,a2
 1003b38:	00005617          	auipc	a2,0x5
 1003b3c:	24860613          	addi	a2,a2,584 # 1008d80 <__spl_start+0x7890>
 1003b40:	e406                	sd	ra,8(sp)
 1003b42:	0c7000ef          	jal	ra,1004408 <__spl_start+0x2f18>
 1003b46:	c915                	beqz	a0,1003b7a <__spl_start+0x268a>
 1003b48:	411c                	lw	a5,0(a0)
 1003b4a:	00ff0637          	lui	a2,0xff0
 1003b4e:	4501                	li	a0,0
 1003b50:	0187d69b          	srliw	a3,a5,0x18
 1003b54:	0187971b          	slliw	a4,a5,0x18
 1003b58:	8f55                	or	a4,a4,a3
 1003b5a:	0087969b          	slliw	a3,a5,0x8
 1003b5e:	8ef1                	and	a3,a3,a2
 1003b60:	8f55                	or	a4,a4,a3
 1003b62:	66c1                	lui	a3,0x10
 1003b64:	0087d79b          	srliw	a5,a5,0x8
 1003b68:	f0068693          	addi	a3,a3,-256 # ff00 <_start-0xff0100>
 1003b6c:	8ff5                	and	a5,a5,a3
 1003b6e:	8fd9                	or	a5,a5,a4
 1003b70:	c01c                	sw	a5,0(s0)
 1003b72:	60a2                	ld	ra,8(sp)
 1003b74:	6402                	ld	s0,0(sp)
 1003b76:	0141                	addi	sp,sp,16
 1003b78:	8082                	ret
 1003b7a:	5579                	li	a0,-2
 1003b7c:	bfdd                	j	1003b72 <__spl_start+0x2682>
 1003b7e:	1141                	addi	sp,sp,-16
 1003b80:	e022                	sd	s0,0(sp)
 1003b82:	4681                	li	a3,0
 1003b84:	8432                	mv	s0,a2
 1003b86:	00005617          	auipc	a2,0x5
 1003b8a:	20a60613          	addi	a2,a2,522 # 1008d90 <__spl_start+0x78a0>
 1003b8e:	e406                	sd	ra,8(sp)
 1003b90:	079000ef          	jal	ra,1004408 <__spl_start+0x2f18>
 1003b94:	c915                	beqz	a0,1003bc8 <__spl_start+0x26d8>
 1003b96:	411c                	lw	a5,0(a0)
 1003b98:	00ff0637          	lui	a2,0xff0
 1003b9c:	4501                	li	a0,0
 1003b9e:	0187d69b          	srliw	a3,a5,0x18
 1003ba2:	0187971b          	slliw	a4,a5,0x18
 1003ba6:	8f55                	or	a4,a4,a3
 1003ba8:	0087969b          	slliw	a3,a5,0x8
 1003bac:	8ef1                	and	a3,a3,a2
 1003bae:	8f55                	or	a4,a4,a3
 1003bb0:	66c1                	lui	a3,0x10
 1003bb2:	0087d79b          	srliw	a5,a5,0x8
 1003bb6:	f0068693          	addi	a3,a3,-256 # ff00 <_start-0xff0100>
 1003bba:	8ff5                	and	a5,a5,a3
 1003bbc:	8fd9                	or	a5,a5,a4
 1003bbe:	c01c                	sw	a5,0(s0)
 1003bc0:	60a2                	ld	ra,8(sp)
 1003bc2:	6402                	ld	s0,0(sp)
 1003bc4:	0141                	addi	sp,sp,16
 1003bc6:	8082                	ret
 1003bc8:	5579                	li	a0,-2
 1003bca:	bfdd                	j	1003bc0 <__spl_start+0x26d0>
 1003bcc:	1141                	addi	sp,sp,-16
 1003bce:	e022                	sd	s0,0(sp)
 1003bd0:	4681                	li	a3,0
 1003bd2:	8432                	mv	s0,a2
 1003bd4:	00005617          	auipc	a2,0x5
 1003bd8:	1cc60613          	addi	a2,a2,460 # 1008da0 <__spl_start+0x78b0>
 1003bdc:	e406                	sd	ra,8(sp)
 1003bde:	02b000ef          	jal	ra,1004408 <__spl_start+0x2f18>
 1003be2:	c915                	beqz	a0,1003c16 <__spl_start+0x2726>
 1003be4:	411c                	lw	a5,0(a0)
 1003be6:	00ff0637          	lui	a2,0xff0
 1003bea:	4501                	li	a0,0
 1003bec:	0187d69b          	srliw	a3,a5,0x18
 1003bf0:	0187971b          	slliw	a4,a5,0x18
 1003bf4:	8f55                	or	a4,a4,a3
 1003bf6:	0087969b          	slliw	a3,a5,0x8
 1003bfa:	8ef1                	and	a3,a3,a2
 1003bfc:	8f55                	or	a4,a4,a3
 1003bfe:	66c1                	lui	a3,0x10
 1003c00:	0087d79b          	srliw	a5,a5,0x8
 1003c04:	f0068693          	addi	a3,a3,-256 # ff00 <_start-0xff0100>
 1003c08:	8ff5                	and	a5,a5,a3
 1003c0a:	8fd9                	or	a5,a5,a4
 1003c0c:	c01c                	sw	a5,0(s0)
 1003c0e:	60a2                	ld	ra,8(sp)
 1003c10:	6402                	ld	s0,0(sp)
 1003c12:	0141                	addi	sp,sp,16
 1003c14:	8082                	ret
 1003c16:	5579                	li	a0,-2
 1003c18:	bfdd                	j	1003c0e <__spl_start+0x271e>
 1003c1a:	02800513          	li	a0,40
 1003c1e:	8082                	ret
 1003c20:	4118                	lw	a4,0(a0)
 1003c22:	00ff0637          	lui	a2,0xff0
 1003c26:	0187169b          	slliw	a3,a4,0x18
 1003c2a:	0187579b          	srliw	a5,a4,0x18
 1003c2e:	8fd5                	or	a5,a5,a3
 1003c30:	0087169b          	slliw	a3,a4,0x8
 1003c34:	8ef1                	and	a3,a3,a2
 1003c36:	8fd5                	or	a5,a5,a3
 1003c38:	66c1                	lui	a3,0x10
 1003c3a:	0087571b          	srliw	a4,a4,0x8
 1003c3e:	f0068693          	addi	a3,a3,-256 # ff00 <_start-0xff0100>
 1003c42:	8f75                	and	a4,a4,a3
 1003c44:	8fd9                	or	a5,a5,a4
 1003c46:	d00e0737          	lui	a4,0xd00e0
 1003c4a:	2781                	sext.w	a5,a5
 1003c4c:	eed70713          	addi	a4,a4,-275 # ffffffffd00dfeed <__soc_ctrl_scratch1+0xffffffffce0dfed5>
 1003c50:	00e79a63          	bne	a5,a4,1003c64 <__spl_start+0x2774>
 1003c54:	1141                	addi	sp,sp,-16
 1003c56:	e406                	sd	ra,8(sp)
 1003c58:	fc3ff0ef          	jal	ra,1003c1a <__spl_start+0x272a>
 1003c5c:	60a2                	ld	ra,8(sp)
 1003c5e:	4501                	li	a0,0
 1003c60:	0141                	addi	sp,sp,16
 1003c62:	8082                	ret
 1003c64:	555d                	li	a0,-9
 1003c66:	8082                	ret
 1003c68:	86aa                	mv	a3,a0
 1003c6a:	0005879b          	sext.w	a5,a1
 1003c6e:	0605c563          	bltz	a1,1003cd8 <__spl_start+0x27e8>
 1003c72:	9e3d                	addw	a2,a2,a5
 1003c74:	4501                	li	a0,0
 1003c76:	06f66263          	bltu	a2,a5,1003cda <__spl_start+0x27ea>
 1003c7a:	52d8                	lw	a4,36(a3)
 1003c7c:	00ff08b7          	lui	a7,0xff0
 1003c80:	6841                	lui	a6,0x10
 1003c82:	0187551b          	srliw	a0,a4,0x18
 1003c86:	0187179b          	slliw	a5,a4,0x18
 1003c8a:	8fc9                	or	a5,a5,a0
 1003c8c:	0087151b          	slliw	a0,a4,0x8
 1003c90:	01157533          	and	a0,a0,a7
 1003c94:	0087571b          	srliw	a4,a4,0x8
 1003c98:	f0080813          	addi	a6,a6,-256 # ff00 <_start-0xff0100>
 1003c9c:	8fc9                	or	a5,a5,a0
 1003c9e:	01077733          	and	a4,a4,a6
 1003ca2:	8fd9                	or	a5,a5,a4
 1003ca4:	2781                	sext.w	a5,a5
 1003ca6:	4501                	li	a0,0
 1003ca8:	02c7e963          	bltu	a5,a2,1003cda <__spl_start+0x27ea>
 1003cac:	4698                	lw	a4,8(a3)
 1003cae:	0187561b          	srliw	a2,a4,0x18
 1003cb2:	0187179b          	slliw	a5,a4,0x18
 1003cb6:	8fd1                	or	a5,a5,a2
 1003cb8:	0087161b          	slliw	a2,a4,0x8
 1003cbc:	01167633          	and	a2,a2,a7
 1003cc0:	0087571b          	srliw	a4,a4,0x8
 1003cc4:	8fd1                	or	a5,a5,a2
 1003cc6:	01077733          	and	a4,a4,a6
 1003cca:	8fd9                	or	a5,a5,a4
 1003ccc:	1782                	slli	a5,a5,0x20
 1003cce:	9381                	srli	a5,a5,0x20
 1003cd0:	95be                	add	a1,a1,a5
 1003cd2:	00b68533          	add	a0,a3,a1
 1003cd6:	8082                	ret
 1003cd8:	4501                	li	a0,0
 1003cda:	8082                	ret
 1003cdc:	7179                	addi	sp,sp,-48
 1003cde:	f022                	sd	s0,32(sp)
 1003ce0:	ec26                	sd	s1,24(sp)
 1003ce2:	e84a                	sd	s2,16(sp)
 1003ce4:	e44e                	sd	s3,8(sp)
 1003ce6:	57e1                	li	a5,-8
 1003ce8:	f406                	sd	ra,40(sp)
 1003cea:	e052                	sd	s4,0(sp)
 1003cec:	c21c                	sw	a5,0(a2)
 1003cee:	84b2                	mv	s1,a2
 1003cf0:	4611                	li	a2,4
 1003cf2:	89aa                	mv	s3,a0
 1003cf4:	842e                	mv	s0,a1
 1003cf6:	f73ff0ef          	jal	ra,1003c68 <__spl_start+0x2778>
 1003cfa:	4118                	lw	a4,0(a0)
 1003cfc:	00ff0637          	lui	a2,0xff0
 1003d00:	0187569b          	srliw	a3,a4,0x18
 1003d04:	0187179b          	slliw	a5,a4,0x18
 1003d08:	8fd5                	or	a5,a5,a3
 1003d0a:	0087169b          	slliw	a3,a4,0x8
 1003d0e:	8ef1                	and	a3,a3,a2
 1003d10:	8fd5                	or	a5,a5,a3
 1003d12:	66c1                	lui	a3,0x10
 1003d14:	f0068693          	addi	a3,a3,-256 # ff00 <_start-0xff0100>
 1003d18:	0087571b          	srliw	a4,a4,0x8
 1003d1c:	8f75                	and	a4,a4,a3
 1003d1e:	8fd9                	or	a5,a5,a4
 1003d20:	0007891b          	sext.w	s2,a5
 1003d24:	5755                	li	a4,-11
 1003d26:	37fd                	addiw	a5,a5,-1
 1003d28:	c098                	sw	a4,0(s1)
 1003d2a:	0007869b          	sext.w	a3,a5
 1003d2e:	4721                	li	a4,8
 1003d30:	08d76363          	bltu	a4,a3,1003db6 <__spl_start+0x28c6>
 1003d34:	02079713          	slli	a4,a5,0x20
 1003d38:	01e75793          	srli	a5,a4,0x1e
 1003d3c:	00007717          	auipc	a4,0x7
 1003d40:	5a070713          	addi	a4,a4,1440 # 100b2dc <__spl_start+0x9dec>
 1003d44:	97ba                	add	a5,a5,a4
 1003d46:	439c                	lw	a5,0(a5)
 1003d48:	00040a1b          	sext.w	s4,s0
 1003d4c:	2411                	addiw	s0,s0,4
 1003d4e:	97ba                	add	a5,a5,a4
 1003d50:	8782                	jr	a5
 1003d52:	85a2                	mv	a1,s0
 1003d54:	4605                	li	a2,1
 1003d56:	854e                	mv	a0,s3
 1003d58:	2405                	addiw	s0,s0,1
 1003d5a:	f0fff0ef          	jal	ra,1003c68 <__spl_start+0x2778>
 1003d5e:	c501                	beqz	a0,1003d66 <__spl_start+0x2876>
 1003d60:	00054783          	lbu	a5,0(a0)
 1003d64:	f7fd                	bnez	a5,1003d52 <__spl_start+0x2862>
 1003d66:	240d                	addiw	s0,s0,3
 1003d68:	9871                	andi	s0,s0,-4
 1003d6a:	c080                	sw	s0,0(s1)
 1003d6c:	70a2                	ld	ra,40(sp)
 1003d6e:	7402                	ld	s0,32(sp)
 1003d70:	64e2                	ld	s1,24(sp)
 1003d72:	69a2                	ld	s3,8(sp)
 1003d74:	6a02                	ld	s4,0(sp)
 1003d76:	854a                	mv	a0,s2
 1003d78:	6942                	ld	s2,16(sp)
 1003d7a:	6145                	addi	sp,sp,48
 1003d7c:	8082                	ret
 1003d7e:	85a2                	mv	a1,s0
 1003d80:	4611                	li	a2,4
 1003d82:	854e                	mv	a0,s3
 1003d84:	ee5ff0ef          	jal	ra,1003c68 <__spl_start+0x2778>
 1003d88:	411c                	lw	a5,0(a0)
 1003d8a:	00ff06b7          	lui	a3,0xff0
 1003d8e:	2a31                	addiw	s4,s4,12
 1003d90:	0187d71b          	srliw	a4,a5,0x18
 1003d94:	0187941b          	slliw	s0,a5,0x18
 1003d98:	8c59                	or	s0,s0,a4
 1003d9a:	0087971b          	slliw	a4,a5,0x8
 1003d9e:	8f75                	and	a4,a4,a3
 1003da0:	8c59                	or	s0,s0,a4
 1003da2:	6741                	lui	a4,0x10
 1003da4:	0087d79b          	srliw	a5,a5,0x8
 1003da8:	f0070713          	addi	a4,a4,-256 # ff00 <_start-0xff0100>
 1003dac:	8ff9                	and	a5,a5,a4
 1003dae:	8c5d                	or	s0,s0,a5
 1003db0:	008a043b          	addw	s0,s4,s0
 1003db4:	bf4d                	j	1003d66 <__spl_start+0x2876>
 1003db6:	4925                	li	s2,9
 1003db8:	bf55                	j	1003d6c <__spl_start+0x287c>
 1003dba:	1101                	addi	sp,sp,-32
 1003dbc:	ec06                	sd	ra,24(sp)
 1003dbe:	c62e                	sw	a1,12(sp)
 1003dc0:	0005d663          	bgez	a1,1003dcc <__spl_start+0x28dc>
 1003dc4:	5571                	li	a0,-4
 1003dc6:	60e2                	ld	ra,24(sp)
 1003dc8:	6105                	addi	sp,sp,32
 1003dca:	8082                	ret
 1003dcc:	0035f793          	andi	a5,a1,3
 1003dd0:	fbf5                	bnez	a5,1003dc4 <__spl_start+0x28d4>
 1003dd2:	0070                	addi	a2,sp,12
 1003dd4:	f09ff0ef          	jal	ra,1003cdc <__spl_start+0x27ec>
 1003dd8:	2501                	sext.w	a0,a0
 1003dda:	4785                	li	a5,1
 1003ddc:	fef514e3          	bne	a0,a5,1003dc4 <__spl_start+0x28d4>
 1003de0:	4532                	lw	a0,12(sp)
 1003de2:	b7d5                	j	1003dc6 <__spl_start+0x28d6>
 1003de4:	1101                	addi	sp,sp,-32
 1003de6:	ec06                	sd	ra,24(sp)
 1003de8:	c62e                	sw	a1,12(sp)
 1003dea:	0005d663          	bgez	a1,1003df6 <__spl_start+0x2906>
 1003dee:	5571                	li	a0,-4
 1003df0:	60e2                	ld	ra,24(sp)
 1003df2:	6105                	addi	sp,sp,32
 1003df4:	8082                	ret
 1003df6:	0035f793          	andi	a5,a1,3
 1003dfa:	fbf5                	bnez	a5,1003dee <__spl_start+0x28fe>
 1003dfc:	0070                	addi	a2,sp,12
 1003dfe:	edfff0ef          	jal	ra,1003cdc <__spl_start+0x27ec>
 1003e02:	2501                	sext.w	a0,a0
 1003e04:	478d                	li	a5,3
 1003e06:	fef514e3          	bne	a0,a5,1003dee <__spl_start+0x28fe>
 1003e0a:	4532                	lw	a0,12(sp)
 1003e0c:	b7d5                	j	1003df0 <__spl_start+0x2900>
 1003e0e:	715d                	addi	sp,sp,-80
 1003e10:	fc26                	sd	s1,56(sp)
 1003e12:	f84a                	sd	s2,48(sp)
 1003e14:	e486                	sd	ra,72(sp)
 1003e16:	e0a2                	sd	s0,64(sp)
 1003e18:	f44e                	sd	s3,40(sp)
 1003e1a:	f052                	sd	s4,32(sp)
 1003e1c:	ec56                	sd	s5,24(sp)
 1003e1e:	e85a                	sd	s6,16(sp)
 1003e20:	c602                	sw	zero,12(sp)
 1003e22:	892a                	mv	s2,a0
 1003e24:	84b2                	mv	s1,a2
 1003e26:	0205da63          	bgez	a1,1003e5a <__spl_start+0x296a>
 1003e2a:	00c10993          	addi	s3,sp,12
 1003e2e:	4a09                	li	s4,2
 1003e30:	4aa5                	li	s5,9
 1003e32:	4b05                	li	s6,1
 1003e34:	4432                	lw	s0,12(sp)
 1003e36:	864e                	mv	a2,s3
 1003e38:	854a                	mv	a0,s2
 1003e3a:	85a2                	mv	a1,s0
 1003e3c:	ea1ff0ef          	jal	ra,1003cdc <__spl_start+0x27ec>
 1003e40:	0005079b          	sext.w	a5,a0
 1003e44:	03478c63          	beq	a5,s4,1003e7c <__spl_start+0x298c>
 1003e48:	05578363          	beq	a5,s5,1003e8e <__spl_start+0x299e>
 1003e4c:	ff6794e3          	bne	a5,s6,1003e34 <__spl_start+0x2944>
 1003e50:	c899                	beqz	s1,1003e66 <__spl_start+0x2976>
 1003e52:	409c                	lw	a5,0(s1)
 1003e54:	2785                	addiw	a5,a5,1
 1003e56:	c09c                	sw	a5,0(s1)
 1003e58:	a039                	j	1003e66 <__spl_start+0x2976>
 1003e5a:	f61ff0ef          	jal	ra,1003dba <__spl_start+0x28ca>
 1003e5e:	c62a                	sw	a0,12(sp)
 1003e60:	842a                	mv	s0,a0
 1003e62:	fc0554e3          	bgez	a0,1003e2a <__spl_start+0x293a>
 1003e66:	60a6                	ld	ra,72(sp)
 1003e68:	8522                	mv	a0,s0
 1003e6a:	6406                	ld	s0,64(sp)
 1003e6c:	74e2                	ld	s1,56(sp)
 1003e6e:	7942                	ld	s2,48(sp)
 1003e70:	79a2                	ld	s3,40(sp)
 1003e72:	7a02                	ld	s4,32(sp)
 1003e74:	6ae2                	ld	s5,24(sp)
 1003e76:	6b42                	ld	s6,16(sp)
 1003e78:	6161                	addi	sp,sp,80
 1003e7a:	8082                	ret
 1003e7c:	dcc5                	beqz	s1,1003e34 <__spl_start+0x2944>
 1003e7e:	409c                	lw	a5,0(s1)
 1003e80:	fff7871b          	addiw	a4,a5,-1
 1003e84:	c098                	sw	a4,0(s1)
 1003e86:	fa0757e3          	bgez	a4,1003e34 <__spl_start+0x2944>
 1003e8a:	4432                	lw	s0,12(sp)
 1003e8c:	bfe9                	j	1003e66 <__spl_start+0x2976>
 1003e8e:	4432                	lw	s0,12(sp)
 1003e90:	00045663          	bgez	s0,1003e9c <__spl_start+0x29ac>
 1003e94:	57e1                	li	a5,-8
 1003e96:	fcf418e3          	bne	s0,a5,1003e66 <__spl_start+0x2976>
 1003e9a:	f4f1                	bnez	s1,1003e66 <__spl_start+0x2976>
 1003e9c:	547d                	li	s0,-1
 1003e9e:	b7e1                	j	1003e66 <__spl_start+0x2976>
 1003ea0:	1101                	addi	sp,sp,-32
 1003ea2:	0070                	addi	a2,sp,12
 1003ea4:	ec06                	sd	ra,24(sp)
 1003ea6:	c602                	sw	zero,12(sp)
 1003ea8:	f67ff0ef          	jal	ra,1003e0e <__spl_start+0x291e>
 1003eac:	00054663          	bltz	a0,1003eb8 <__spl_start+0x29c8>
 1003eb0:	4732                	lw	a4,12(sp)
 1003eb2:	4785                	li	a5,1
 1003eb4:	00f70363          	beq	a4,a5,1003eba <__spl_start+0x29ca>
 1003eb8:	557d                	li	a0,-1
 1003eba:	60e2                	ld	ra,24(sp)
 1003ebc:	6105                	addi	sp,sp,32
 1003ebe:	8082                	ret
 1003ec0:	7179                	addi	sp,sp,-48
 1003ec2:	4785                	li	a5,1
 1003ec4:	f022                	sd	s0,32(sp)
 1003ec6:	ec26                	sd	s1,24(sp)
 1003ec8:	e84a                	sd	s2,16(sp)
 1003eca:	f406                	sd	ra,40(sp)
 1003ecc:	842a                	mv	s0,a0
 1003ece:	c63e                	sw	a5,12(sp)
 1003ed0:	00c10913          	addi	s2,sp,12
 1003ed4:	4485                	li	s1,1
 1003ed6:	864a                	mv	a2,s2
 1003ed8:	8522                	mv	a0,s0
 1003eda:	f35ff0ef          	jal	ra,1003e0e <__spl_start+0x291e>
 1003ede:	85aa                	mv	a1,a0
 1003ee0:	00054e63          	bltz	a0,1003efc <__spl_start+0x2a0c>
 1003ee4:	47b2                	lw	a5,12(sp)
 1003ee6:	00f05b63          	blez	a5,1003efc <__spl_start+0x2a0c>
 1003eea:	fe9796e3          	bne	a5,s1,1003ed6 <__spl_start+0x29e6>
 1003eee:	70a2                	ld	ra,40(sp)
 1003ef0:	7402                	ld	s0,32(sp)
 1003ef2:	64e2                	ld	s1,24(sp)
 1003ef4:	6942                	ld	s2,16(sp)
 1003ef6:	852e                	mv	a0,a1
 1003ef8:	6145                	addi	sp,sp,48
 1003efa:	8082                	ret
 1003efc:	55fd                	li	a1,-1
 1003efe:	bfc5                	j	1003eee <__spl_start+0x29fe>
 1003f00:	7179                	addi	sp,sp,-48
 1003f02:	f022                	sd	s0,32(sp)
 1003f04:	842a                	mv	s0,a0
 1003f06:	8532                	mv	a0,a2
 1003f08:	ec26                	sd	s1,24(sp)
 1003f0a:	e84a                	sd	s2,16(sp)
 1003f0c:	e44e                	sd	s3,8(sp)
 1003f0e:	84ae                	mv	s1,a1
 1003f10:	f406                	sd	ra,40(sp)
 1003f12:	89b2                	mv	s3,a2
 1003f14:	29c010ef          	jal	ra,10051b0 <__spl_start+0x3cc0>
 1003f18:	0015091b          	addiw	s2,a0,1
 1003f1c:	412484b3          	sub	s1,s1,s2
 1003f20:	94a2                	add	s1,s1,s0
 1003f22:	0084fb63          	bgeu	s1,s0,1003f38 <__spl_start+0x2a48>
 1003f26:	4401                	li	s0,0
 1003f28:	70a2                	ld	ra,40(sp)
 1003f2a:	8522                	mv	a0,s0
 1003f2c:	7402                	ld	s0,32(sp)
 1003f2e:	64e2                	ld	s1,24(sp)
 1003f30:	6942                	ld	s2,16(sp)
 1003f32:	69a2                	ld	s3,8(sp)
 1003f34:	6145                	addi	sp,sp,48
 1003f36:	8082                	ret
 1003f38:	864a                	mv	a2,s2
 1003f3a:	85ce                	mv	a1,s3
 1003f3c:	8522                	mv	a0,s0
 1003f3e:	29c010ef          	jal	ra,10051da <__spl_start+0x3cea>
 1003f42:	d17d                	beqz	a0,1003f28 <__spl_start+0x2a38>
 1003f44:	0405                	addi	s0,s0,1
 1003f46:	bff1                	j	1003f22 <__spl_start+0x2a32>
 1003f48:	4918                	lw	a4,16(a0)
 1003f4a:	00ff0637          	lui	a2,0xff0
 1003f4e:	0592                	slli	a1,a1,0x4
 1003f50:	0187569b          	srliw	a3,a4,0x18
 1003f54:	0187179b          	slliw	a5,a4,0x18
 1003f58:	8fd5                	or	a5,a5,a3
 1003f5a:	0087169b          	slliw	a3,a4,0x8
 1003f5e:	8ef1                	and	a3,a3,a2
 1003f60:	8fd5                	or	a5,a5,a3
 1003f62:	66c1                	lui	a3,0x10
 1003f64:	f0068693          	addi	a3,a3,-256 # ff00 <_start-0xff0100>
 1003f68:	0087571b          	srliw	a4,a4,0x8
 1003f6c:	8f75                	and	a4,a4,a3
 1003f6e:	8fd9                	or	a5,a5,a4
 1003f70:	1782                	slli	a5,a5,0x20
 1003f72:	9381                	srli	a5,a5,0x20
 1003f74:	97ae                	add	a5,a5,a1
 1003f76:	953e                	add	a0,a0,a5
 1003f78:	8082                	ret
 1003f7a:	4518                	lw	a4,8(a0)
 1003f7c:	00ff0837          	lui	a6,0xff0
 1003f80:	0187569b          	srliw	a3,a4,0x18
 1003f84:	0187179b          	slliw	a5,a4,0x18
 1003f88:	8fd5                	or	a5,a5,a3
 1003f8a:	0087169b          	slliw	a3,a4,0x8
 1003f8e:	0106f6b3          	and	a3,a3,a6
 1003f92:	8fd5                	or	a5,a5,a3
 1003f94:	66c1                	lui	a3,0x10
 1003f96:	0087571b          	srliw	a4,a4,0x8
 1003f9a:	f0068693          	addi	a3,a3,-256 # ff00 <_start-0xff0100>
 1003f9e:	8f75                	and	a4,a4,a3
 1003fa0:	8fd9                	or	a5,a5,a4
 1003fa2:	1782                	slli	a5,a5,0x20
 1003fa4:	9381                	srli	a5,a5,0x20
 1003fa6:	97ae                	add	a5,a5,a1
 1003fa8:	953e                	add	a0,a0,a5
 1003faa:	c20d                	beqz	a2,1003fcc <__spl_start+0x2adc>
 1003fac:	415c                	lw	a5,4(a0)
 1003fae:	0187d59b          	srliw	a1,a5,0x18
 1003fb2:	0187971b          	slliw	a4,a5,0x18
 1003fb6:	8f4d                	or	a4,a4,a1
 1003fb8:	0087959b          	slliw	a1,a5,0x8
 1003fbc:	0105f5b3          	and	a1,a1,a6
 1003fc0:	0087d79b          	srliw	a5,a5,0x8
 1003fc4:	8f4d                	or	a4,a4,a1
 1003fc6:	8ff5                	and	a5,a5,a3
 1003fc8:	8fd9                	or	a5,a5,a4
 1003fca:	c21c                	sw	a5,0(a2)
 1003fcc:	8082                	ret
 1003fce:	715d                	addi	sp,sp,-80
 1003fd0:	e0a2                	sd	s0,64(sp)
 1003fd2:	fc26                	sd	s1,56(sp)
 1003fd4:	f84a                	sd	s2,48(sp)
 1003fd6:	f44e                	sd	s3,40(sp)
 1003fd8:	f052                	sd	s4,32(sp)
 1003fda:	ec56                	sd	s5,24(sp)
 1003fdc:	e486                	sd	ra,72(sp)
 1003fde:	84aa                	mv	s1,a0
 1003fe0:	842e                	mv	s0,a1
 1003fe2:	00c10993          	addi	s3,sp,12
 1003fe6:	4a0d                	li	s4,3
 1003fe8:	4aa5                	li	s5,9
 1003fea:	4911                	li	s2,4
 1003fec:	864e                	mv	a2,s3
 1003fee:	85a2                	mv	a1,s0
 1003ff0:	8526                	mv	a0,s1
 1003ff2:	cebff0ef          	jal	ra,1003cdc <__spl_start+0x27ec>
 1003ff6:	0005079b          	sext.w	a5,a0
 1003ffa:	01478c63          	beq	a5,s4,1004012 <__spl_start+0x2b22>
 1003ffe:	4432                	lw	s0,12(sp)
 1004000:	01579663          	bne	a5,s5,100400c <__spl_start+0x2b1c>
 1004004:	00044763          	bltz	s0,1004012 <__spl_start+0x2b22>
 1004008:	5455                	li	s0,-11
 100400a:	a021                	j	1004012 <__spl_start+0x2b22>
 100400c:	ff2780e3          	beq	a5,s2,1003fec <__spl_start+0x2afc>
 1004010:	547d                	li	s0,-1
 1004012:	60a6                	ld	ra,72(sp)
 1004014:	8522                	mv	a0,s0
 1004016:	6406                	ld	s0,64(sp)
 1004018:	74e2                	ld	s1,56(sp)
 100401a:	7942                	ld	s2,48(sp)
 100401c:	79a2                	ld	s3,40(sp)
 100401e:	7a02                	ld	s4,32(sp)
 1004020:	6ae2                	ld	s5,24(sp)
 1004022:	6161                	addi	sp,sp,80
 1004024:	8082                	ret
 1004026:	1101                	addi	sp,sp,-32
 1004028:	e822                	sd	s0,16(sp)
 100402a:	e426                	sd	s1,8(sp)
 100402c:	ec06                	sd	ra,24(sp)
 100402e:	4558                	lw	a4,12(a0)
 1004030:	84b2                	mv	s1,a2
 1004032:	00ff0637          	lui	a2,0xff0
 1004036:	0187569b          	srliw	a3,a4,0x18
 100403a:	0187179b          	slliw	a5,a4,0x18
 100403e:	8fd5                	or	a5,a5,a3
 1004040:	0087169b          	slliw	a3,a4,0x8
 1004044:	8ef1                	and	a3,a3,a2
 1004046:	8fd5                	or	a5,a5,a3
 1004048:	66c1                	lui	a3,0x10
 100404a:	0087571b          	srliw	a4,a4,0x8
 100404e:	f0068693          	addi	a3,a3,-256 # ff00 <_start-0xff0100>
 1004052:	8f75                	and	a4,a4,a3
 1004054:	8fd9                	or	a5,a5,a4
 1004056:	1782                	slli	a5,a5,0x20
 1004058:	9381                	srli	a5,a5,0x20
 100405a:	97ae                	add	a5,a5,a1
 100405c:	00f50433          	add	s0,a0,a5
 1004060:	c489                	beqz	s1,100406a <__spl_start+0x2b7a>
 1004062:	8522                	mv	a0,s0
 1004064:	14c010ef          	jal	ra,10051b0 <__spl_start+0x3cc0>
 1004068:	c088                	sw	a0,0(s1)
 100406a:	60e2                	ld	ra,24(sp)
 100406c:	8522                	mv	a0,s0
 100406e:	6442                	ld	s0,16(sp)
 1004070:	64a2                	ld	s1,8(sp)
 1004072:	6105                	addi	sp,sp,32
 1004074:	8082                	ret
 1004076:	1101                	addi	sp,sp,-32
 1004078:	e822                	sd	s0,16(sp)
 100407a:	e426                	sd	s1,8(sp)
 100407c:	ec06                	sd	ra,24(sp)
 100407e:	84b2                	mv	s1,a2
 1004080:	8436                	mv	s0,a3
 1004082:	ec7ff0ef          	jal	ra,1003f48 <__spl_start+0x2a58>
 1004086:	6118                	ld	a4,0(a0)
 1004088:	00ff0837          	lui	a6,0xff0
 100408c:	65c1                	lui	a1,0x10
 100408e:	0187561b          	srliw	a2,a4,0x18
 1004092:	0187179b          	slliw	a5,a4,0x18
 1004096:	8fd1                	or	a5,a5,a2
 1004098:	0087161b          	slliw	a2,a4,0x8
 100409c:	42075693          	srai	a3,a4,0x20
 10040a0:	f0058593          	addi	a1,a1,-256 # ff00 <_start-0xff0100>
 10040a4:	01067633          	and	a2,a2,a6
 10040a8:	0087571b          	srliw	a4,a4,0x8
 10040ac:	8fd1                	or	a5,a5,a2
 10040ae:	8f6d                	and	a4,a4,a1
 10040b0:	0186d61b          	srliw	a2,a3,0x18
 10040b4:	8fd9                	or	a5,a5,a4
 10040b6:	0186971b          	slliw	a4,a3,0x18
 10040ba:	8f51                	or	a4,a4,a2
 10040bc:	0086961b          	slliw	a2,a3,0x8
 10040c0:	01067633          	and	a2,a2,a6
 10040c4:	0086d69b          	srliw	a3,a3,0x8
 10040c8:	8f51                	or	a4,a4,a2
 10040ca:	8eed                	and	a3,a3,a1
 10040cc:	8f55                	or	a4,a4,a3
 10040ce:	1702                	slli	a4,a4,0x20
 10040d0:	9301                	srli	a4,a4,0x20
 10040d2:	1782                	slli	a5,a5,0x20
 10040d4:	8fd9                	or	a5,a5,a4
 10040d6:	e09c                	sd	a5,0(s1)
 10040d8:	6518                	ld	a4,8(a0)
 10040da:	60e2                	ld	ra,24(sp)
 10040dc:	64a2                	ld	s1,8(sp)
 10040de:	0187561b          	srliw	a2,a4,0x18
 10040e2:	0187179b          	slliw	a5,a4,0x18
 10040e6:	8fd1                	or	a5,a5,a2
 10040e8:	0087161b          	slliw	a2,a4,0x8
 10040ec:	42075693          	srai	a3,a4,0x20
 10040f0:	01067633          	and	a2,a2,a6
 10040f4:	0087571b          	srliw	a4,a4,0x8
 10040f8:	8fd1                	or	a5,a5,a2
 10040fa:	8f6d                	and	a4,a4,a1
 10040fc:	0186d61b          	srliw	a2,a3,0x18
 1004100:	8fd9                	or	a5,a5,a4
 1004102:	0186971b          	slliw	a4,a3,0x18
 1004106:	8f51                	or	a4,a4,a2
 1004108:	0086961b          	slliw	a2,a3,0x8
 100410c:	01067633          	and	a2,a2,a6
 1004110:	0086d69b          	srliw	a3,a3,0x8
 1004114:	8f51                	or	a4,a4,a2
 1004116:	8eed                	and	a3,a3,a1
 1004118:	8f55                	or	a4,a4,a3
 100411a:	1702                	slli	a4,a4,0x20
 100411c:	1782                	slli	a5,a5,0x20
 100411e:	9301                	srli	a4,a4,0x20
 1004120:	8fd9                	or	a5,a5,a4
 1004122:	e01c                	sd	a5,0(s0)
 1004124:	6442                	ld	s0,16(sp)
 1004126:	4501                	li	a0,0
 1004128:	6105                	addi	sp,sp,32
 100412a:	8082                	ret
 100412c:	7179                	addi	sp,sp,-48
 100412e:	ec26                	sd	s1,24(sp)
 1004130:	64c1                	lui	s1,0x10
 1004132:	f022                	sd	s0,32(sp)
 1004134:	e84a                	sd	s2,16(sp)
 1004136:	e44e                	sd	s3,8(sp)
 1004138:	f406                	sd	ra,40(sp)
 100413a:	892a                	mv	s2,a0
 100413c:	4401                	li	s0,0
 100413e:	00ff09b7          	lui	s3,0xff0
 1004142:	f0048493          	addi	s1,s1,-256 # ff00 <_start-0xff0100>
 1004146:	85a2                	mv	a1,s0
 1004148:	854a                	mv	a0,s2
 100414a:	dffff0ef          	jal	ra,1003f48 <__spl_start+0x2a58>
 100414e:	e911                	bnez	a0,1004162 <__spl_start+0x2c72>
 1004150:	5461                	li	s0,-8
 1004152:	70a2                	ld	ra,40(sp)
 1004154:	8522                	mv	a0,s0
 1004156:	7402                	ld	s0,32(sp)
 1004158:	64e2                	ld	s1,24(sp)
 100415a:	6942                	ld	s2,16(sp)
 100415c:	69a2                	ld	s3,8(sp)
 100415e:	6145                	addi	sp,sp,48
 1004160:	8082                	ret
 1004162:	6518                	ld	a4,8(a0)
 1004164:	0187561b          	srliw	a2,a4,0x18
 1004168:	0187179b          	slliw	a5,a4,0x18
 100416c:	8fd1                	or	a5,a5,a2
 100416e:	0087161b          	slliw	a2,a4,0x8
 1004172:	42075693          	srai	a3,a4,0x20
 1004176:	01367633          	and	a2,a2,s3
 100417a:	0087571b          	srliw	a4,a4,0x8
 100417e:	8fd1                	or	a5,a5,a2
 1004180:	8f65                	and	a4,a4,s1
 1004182:	0186d61b          	srliw	a2,a3,0x18
 1004186:	8fd9                	or	a5,a5,a4
 1004188:	0186971b          	slliw	a4,a3,0x18
 100418c:	8f51                	or	a4,a4,a2
 100418e:	0086961b          	slliw	a2,a3,0x8
 1004192:	01367633          	and	a2,a2,s3
 1004196:	0086d69b          	srliw	a3,a3,0x8
 100419a:	8f51                	or	a4,a4,a2
 100419c:	8ee5                	and	a3,a3,s1
 100419e:	8f55                	or	a4,a4,a3
 10041a0:	1702                	slli	a4,a4,0x20
 10041a2:	1782                	slli	a5,a5,0x20
 10041a4:	9301                	srli	a4,a4,0x20
 10041a6:	8fd9                	or	a5,a5,a4
 10041a8:	d7cd                	beqz	a5,1004152 <__spl_start+0x2c62>
 10041aa:	2405                	addiw	s0,s0,1
 10041ac:	bf69                	j	1004146 <__spl_start+0x2c56>
 10041ae:	1101                	addi	sp,sp,-32
 10041b0:	e822                	sd	s0,16(sp)
 10041b2:	e426                	sd	s1,8(sp)
 10041b4:	ec06                	sd	ra,24(sp)
 10041b6:	4518                	lw	a4,8(a0)
 10041b8:	84b2                	mv	s1,a2
 10041ba:	00ff0637          	lui	a2,0xff0
 10041be:	0187569b          	srliw	a3,a4,0x18
 10041c2:	0187179b          	slliw	a5,a4,0x18
 10041c6:	8fd5                	or	a5,a5,a3
 10041c8:	0087169b          	slliw	a3,a4,0x8
 10041cc:	8ef1                	and	a3,a3,a2
 10041ce:	8fd5                	or	a5,a5,a3
 10041d0:	66c1                	lui	a3,0x10
 10041d2:	0087571b          	srliw	a4,a4,0x8
 10041d6:	f0068693          	addi	a3,a3,-256 # ff00 <_start-0xff0100>
 10041da:	8f75                	and	a4,a4,a3
 10041dc:	8fd9                	or	a5,a5,a4
 10041de:	1782                	slli	a5,a5,0x20
 10041e0:	9381                	srli	a5,a5,0x20
 10041e2:	97ae                	add	a5,a5,a1
 10041e4:	953e                	add	a0,a0,a5
 10041e6:	00450413          	addi	s0,a0,4
 10041ea:	c489                	beqz	s1,10041f4 <__spl_start+0x2d04>
 10041ec:	8522                	mv	a0,s0
 10041ee:	7c3000ef          	jal	ra,10051b0 <__spl_start+0x3cc0>
 10041f2:	c088                	sw	a0,0(s1)
 10041f4:	60e2                	ld	ra,24(sp)
 10041f6:	8522                	mv	a0,s0
 10041f8:	6442                	ld	s0,16(sp)
 10041fa:	64a2                	ld	s1,8(sp)
 10041fc:	6105                	addi	sp,sp,32
 10041fe:	8082                	ret
 1004200:	711d                	addi	sp,sp,-96
 1004202:	e8a2                	sd	s0,80(sp)
 1004204:	e0ca                	sd	s2,64(sp)
 1004206:	fc4e                	sd	s3,56(sp)
 1004208:	f852                	sd	s4,48(sp)
 100420a:	f456                	sd	s5,40(sp)
 100420c:	f05a                	sd	s6,32(sp)
 100420e:	ec5e                	sd	s7,24(sp)
 1004210:	ec86                	sd	ra,88(sp)
 1004212:	e4a6                	sd	s1,72(sp)
 1004214:	89aa                	mv	s3,a0
 1004216:	8a32                	mv	s4,a2
 1004218:	8936                	mv	s2,a3
 100421a:	c402                	sw	zero,8(sp)
 100421c:	842e                	mv	s0,a1
 100421e:	4a85                	li	s5,1
 1004220:	00c10b13          	addi	s6,sp,12
 1004224:	00810b93          	addi	s7,sp,8
 1004228:	47a2                	lw	a5,8(sp)
 100422a:	04044c63          	bltz	s0,1004282 <__spl_start+0x2d92>
 100422e:	0007d463          	bgez	a5,1004236 <__spl_start+0x2d46>
 1004232:	547d                	li	s0,-1
 1004234:	a889                	j	1004286 <__spl_start+0x2d96>
 1004236:	03579f63          	bne	a5,s5,1004274 <__spl_start+0x2d84>
 100423a:	865a                	mv	a2,s6
 100423c:	85a2                	mv	a1,s0
 100423e:	854e                	mv	a0,s3
 1004240:	f6fff0ef          	jal	ra,10041ae <__spl_start+0x2cbe>
 1004244:	84aa                	mv	s1,a0
 1004246:	c51d                	beqz	a0,1004274 <__spl_start+0x2d84>
 1004248:	864a                	mv	a2,s2
 100424a:	85d2                	mv	a1,s4
 100424c:	78f000ef          	jal	ra,10051da <__spl_start+0x3cea>
 1004250:	e115                	bnez	a0,1004274 <__spl_start+0x2d84>
 1004252:	94ca                	add	s1,s1,s2
 1004254:	0004c783          	lbu	a5,0(s1)
 1004258:	c79d                	beqz	a5,1004286 <__spl_start+0x2d96>
 100425a:	864a                	mv	a2,s2
 100425c:	04000593          	li	a1,64
 1004260:	8552                	mv	a0,s4
 1004262:	79f000ef          	jal	ra,1005200 <__spl_start+0x3d10>
 1004266:	e519                	bnez	a0,1004274 <__spl_start+0x2d84>
 1004268:	0004c703          	lbu	a4,0(s1)
 100426c:	04000793          	li	a5,64
 1004270:	00f70b63          	beq	a4,a5,1004286 <__spl_start+0x2d96>
 1004274:	85a2                	mv	a1,s0
 1004276:	865e                	mv	a2,s7
 1004278:	854e                	mv	a0,s3
 100427a:	b95ff0ef          	jal	ra,1003e0e <__spl_start+0x291e>
 100427e:	842a                	mv	s0,a0
 1004280:	b765                	j	1004228 <__spl_start+0x2d38>
 1004282:	fa07c8e3          	bltz	a5,1004232 <__spl_start+0x2d42>
 1004286:	60e6                	ld	ra,88(sp)
 1004288:	8522                	mv	a0,s0
 100428a:	6446                	ld	s0,80(sp)
 100428c:	64a6                	ld	s1,72(sp)
 100428e:	6906                	ld	s2,64(sp)
 1004290:	79e2                	ld	s3,56(sp)
 1004292:	7a42                	ld	s4,48(sp)
 1004294:	7aa2                	ld	s5,40(sp)
 1004296:	7b02                	ld	s6,32(sp)
 1004298:	6be2                	ld	s7,24(sp)
 100429a:	6125                	addi	sp,sp,96
 100429c:	8082                	ret
 100429e:	1101                	addi	sp,sp,-32
 10042a0:	e822                	sd	s0,16(sp)
 10042a2:	842a                	mv	s0,a0
 10042a4:	8532                	mv	a0,a2
 10042a6:	ec06                	sd	ra,24(sp)
 10042a8:	e42e                	sd	a1,8(sp)
 10042aa:	e032                	sd	a2,0(sp)
 10042ac:	705000ef          	jal	ra,10051b0 <__spl_start+0x3cc0>
 10042b0:	0005069b          	sext.w	a3,a0
 10042b4:	8522                	mv	a0,s0
 10042b6:	6442                	ld	s0,16(sp)
 10042b8:	6602                	ld	a2,0(sp)
 10042ba:	65a2                	ld	a1,8(sp)
 10042bc:	60e2                	ld	ra,24(sp)
 10042be:	6105                	addi	sp,sp,32
 10042c0:	b781                	j	1004200 <__spl_start+0x2d10>
 10042c2:	1141                	addi	sp,sp,-16
 10042c4:	e022                	sd	s0,0(sp)
 10042c6:	e406                	sd	ra,8(sp)
 10042c8:	842a                	mv	s0,a0
 10042ca:	af1ff0ef          	jal	ra,1003dba <__spl_start+0x28ca>
 10042ce:	00054863          	bltz	a0,10042de <__spl_start+0x2dee>
 10042d2:	85aa                	mv	a1,a0
 10042d4:	8522                	mv	a0,s0
 10042d6:	6402                	ld	s0,0(sp)
 10042d8:	60a2                	ld	ra,8(sp)
 10042da:	0141                	addi	sp,sp,16
 10042dc:	b9cd                	j	1003fce <__spl_start+0x2ade>
 10042de:	60a2                	ld	ra,8(sp)
 10042e0:	6402                	ld	s0,0(sp)
 10042e2:	0141                	addi	sp,sp,16
 10042e4:	8082                	ret
 10042e6:	1141                	addi	sp,sp,-16
 10042e8:	e022                	sd	s0,0(sp)
 10042ea:	e406                	sd	ra,8(sp)
 10042ec:	842a                	mv	s0,a0
 10042ee:	af7ff0ef          	jal	ra,1003de4 <__spl_start+0x28f4>
 10042f2:	00054863          	bltz	a0,1004302 <__spl_start+0x2e12>
 10042f6:	85aa                	mv	a1,a0
 10042f8:	8522                	mv	a0,s0
 10042fa:	6402                	ld	s0,0(sp)
 10042fc:	60a2                	ld	ra,8(sp)
 10042fe:	0141                	addi	sp,sp,16
 1004300:	b1f9                	j	1003fce <__spl_start+0x2ade>
 1004302:	60a2                	ld	ra,8(sp)
 1004304:	6402                	ld	s0,0(sp)
 1004306:	0141                	addi	sp,sp,16
 1004308:	8082                	ret
 100430a:	7159                	addi	sp,sp,-112
 100430c:	f0a2                	sd	s0,96(sp)
 100430e:	eca6                	sd	s1,88(sp)
 1004310:	e8ca                	sd	s2,80(sp)
 1004312:	e4ce                	sd	s3,72(sp)
 1004314:	e0d2                	sd	s4,64(sp)
 1004316:	fc56                	sd	s5,56(sp)
 1004318:	f85a                	sd	s6,48(sp)
 100431a:	f45e                	sd	s7,40(sp)
 100431c:	f062                	sd	s8,32(sp)
 100431e:	f486                	sd	ra,104(sp)
 1004320:	ec66                	sd	s9,24(sp)
 1004322:	892a                	mv	s2,a0
 1004324:	8ab2                	mv	s5,a2
 1004326:	89b6                	mv	s3,a3
 1004328:	84ba                	mv	s1,a4
 100432a:	8a3e                	mv	s4,a5
 100432c:	6b41                	lui	s6,0x10
 100432e:	f95ff0ef          	jal	ra,10042c2 <__spl_start+0x2dd2>
 1004332:	842a                	mv	s0,a0
 1004334:	00c10b93          	addi	s7,sp,12
 1004338:	00ff0c37          	lui	s8,0xff0
 100433c:	f00b0b13          	addi	s6,s6,-256 # ff00 <_start-0xff0100>
 1004340:	00045663          	bgez	s0,100434c <__spl_start+0x2e5c>
 1004344:	4c81                	li	s9,0
 1004346:	c0bd                	beqz	s1,10043ac <__spl_start+0x2ebc>
 1004348:	c080                	sw	s0,0(s1)
 100434a:	a08d                	j	10043ac <__spl_start+0x2ebc>
 100434c:	8626                	mv	a2,s1
 100434e:	85a2                	mv	a1,s0
 1004350:	854a                	mv	a0,s2
 1004352:	c29ff0ef          	jal	ra,1003f7a <__spl_start+0x2a8a>
 1004356:	00852803          	lw	a6,8(a0)
 100435a:	8caa                	mv	s9,a0
 100435c:	865e                	mv	a2,s7
 100435e:	0188579b          	srliw	a5,a6,0x18
 1004362:	0188159b          	slliw	a1,a6,0x18
 1004366:	8ddd                	or	a1,a1,a5
 1004368:	0088179b          	slliw	a5,a6,0x8
 100436c:	0187f7b3          	and	a5,a5,s8
 1004370:	0088581b          	srliw	a6,a6,0x8
 1004374:	8ddd                	or	a1,a1,a5
 1004376:	01687833          	and	a6,a6,s6
 100437a:	0105e5b3          	or	a1,a1,a6
 100437e:	2581                	sext.w	a1,a1
 1004380:	854a                	mv	a0,s2
 1004382:	ca5ff0ef          	jal	ra,1004026 <__spl_start+0x2b36>
 1004386:	e519                	bnez	a0,1004394 <__spl_start+0x2ea4>
 1004388:	85a2                	mv	a1,s0
 100438a:	854a                	mv	a0,s2
 100438c:	f5bff0ef          	jal	ra,10042e6 <__spl_start+0x2df6>
 1004390:	842a                	mv	s0,a0
 1004392:	b77d                	j	1004340 <__spl_start+0x2e50>
 1004394:	47b2                	lw	a5,12(sp)
 1004396:	ff3799e3          	bne	a5,s3,1004388 <__spl_start+0x2e98>
 100439a:	864e                	mv	a2,s3
 100439c:	85d6                	mv	a1,s5
 100439e:	63d000ef          	jal	ra,10051da <__spl_start+0x3cea>
 10043a2:	f17d                	bnez	a0,1004388 <__spl_start+0x2e98>
 10043a4:	000a0463          	beqz	s4,10043ac <__spl_start+0x2ebc>
 10043a8:	008a2023          	sw	s0,0(s4) # ffffffffffffa000 <__soc_ctrl_scratch1+0xfffffffffdff9fe8>
 10043ac:	70a6                	ld	ra,104(sp)
 10043ae:	7406                	ld	s0,96(sp)
 10043b0:	64e6                	ld	s1,88(sp)
 10043b2:	6946                	ld	s2,80(sp)
 10043b4:	69a6                	ld	s3,72(sp)
 10043b6:	6a06                	ld	s4,64(sp)
 10043b8:	7ae2                	ld	s5,56(sp)
 10043ba:	7b42                	ld	s6,48(sp)
 10043bc:	7ba2                	ld	s7,40(sp)
 10043be:	7c02                	ld	s8,32(sp)
 10043c0:	8566                	mv	a0,s9
 10043c2:	6ce2                	ld	s9,24(sp)
 10043c4:	6165                	addi	sp,sp,112
 10043c6:	8082                	ret
 10043c8:	4781                	li	a5,0
 10043ca:	b781                	j	100430a <__spl_start+0x2e1a>
 10043cc:	7179                	addi	sp,sp,-48
 10043ce:	f022                	sd	s0,32(sp)
 10043d0:	842a                	mv	s0,a0
 10043d2:	8532                	mv	a0,a2
 10043d4:	f406                	sd	ra,40(sp)
 10043d6:	ec2e                	sd	a1,24(sp)
 10043d8:	e836                	sd	a3,16(sp)
 10043da:	e432                	sd	a2,8(sp)
 10043dc:	5d5000ef          	jal	ra,10051b0 <__spl_start+0x3cc0>
 10043e0:	0005069b          	sext.w	a3,a0
 10043e4:	8522                	mv	a0,s0
 10043e6:	7402                	ld	s0,32(sp)
 10043e8:	6742                	ld	a4,16(sp)
 10043ea:	6622                	ld	a2,8(sp)
 10043ec:	65e2                	ld	a1,24(sp)
 10043ee:	70a2                	ld	ra,40(sp)
 10043f0:	6145                	addi	sp,sp,48
 10043f2:	bfd9                	j	10043c8 <__spl_start+0x2ed8>
 10043f4:	1101                	addi	sp,sp,-32
 10043f6:	007c                	addi	a5,sp,12
 10043f8:	ec06                	sd	ra,24(sp)
 10043fa:	f11ff0ef          	jal	ra,100430a <__spl_start+0x2e1a>
 10043fe:	c111                	beqz	a0,1004402 <__spl_start+0x2f12>
 1004400:	0531                	addi	a0,a0,12
 1004402:	60e2                	ld	ra,24(sp)
 1004404:	6105                	addi	sp,sp,32
 1004406:	8082                	ret
 1004408:	7179                	addi	sp,sp,-48
 100440a:	f022                	sd	s0,32(sp)
 100440c:	842a                	mv	s0,a0
 100440e:	8532                	mv	a0,a2
 1004410:	f406                	sd	ra,40(sp)
 1004412:	ec2e                	sd	a1,24(sp)
 1004414:	e836                	sd	a3,16(sp)
 1004416:	e432                	sd	a2,8(sp)
 1004418:	599000ef          	jal	ra,10051b0 <__spl_start+0x3cc0>
 100441c:	0005069b          	sext.w	a3,a0
 1004420:	8522                	mv	a0,s0
 1004422:	7402                	ld	s0,32(sp)
 1004424:	6742                	ld	a4,16(sp)
 1004426:	6622                	ld	a2,8(sp)
 1004428:	65e2                	ld	a1,24(sp)
 100442a:	70a2                	ld	ra,40(sp)
 100442c:	6145                	addi	sp,sp,48
 100442e:	b7d9                	j	10043f4 <__spl_start+0x2f04>
 1004430:	7179                	addi	sp,sp,-48
 1004432:	ec26                	sd	s1,24(sp)
 1004434:	84ae                	mv	s1,a1
 1004436:	00005597          	auipc	a1,0x5
 100443a:	82a58593          	addi	a1,a1,-2006 # 1008c60 <__spl_start+0x7770>
 100443e:	f022                	sd	s0,32(sp)
 1004440:	f406                	sd	ra,40(sp)
 1004442:	842a                	mv	s0,a0
 1004444:	e432                	sd	a2,8(sp)
 1004446:	0d2000ef          	jal	ra,1004518 <__spl_start+0x3028>
 100444a:	00054c63          	bltz	a0,1004462 <__spl_start+0x2f72>
 100444e:	85aa                	mv	a1,a0
 1004450:	8522                	mv	a0,s0
 1004452:	7402                	ld	s0,32(sp)
 1004454:	66a2                	ld	a3,8(sp)
 1004456:	70a2                	ld	ra,40(sp)
 1004458:	8626                	mv	a2,s1
 100445a:	64e2                	ld	s1,24(sp)
 100445c:	4701                	li	a4,0
 100445e:	6145                	addi	sp,sp,48
 1004460:	bf51                	j	10043f4 <__spl_start+0x2f04>
 1004462:	70a2                	ld	ra,40(sp)
 1004464:	7402                	ld	s0,32(sp)
 1004466:	64e2                	ld	s1,24(sp)
 1004468:	4501                	li	a0,0
 100446a:	6145                	addi	sp,sp,48
 100446c:	8082                	ret
 100446e:	7139                	addi	sp,sp,-64
 1004470:	f822                	sd	s0,48(sp)
 1004472:	f426                	sd	s1,40(sp)
 1004474:	ec4e                	sd	s3,24(sp)
 1004476:	e852                	sd	s4,16(sp)
 1004478:	fc06                	sd	ra,56(sp)
 100447a:	f04a                	sd	s2,32(sp)
 100447c:	e456                	sd	s5,8(sp)
 100447e:	0005c703          	lbu	a4,0(a1)
 1004482:	02f00793          	li	a5,47
 1004486:	8a2a                	mv	s4,a0
 1004488:	842e                	mv	s0,a1
 100448a:	00c589b3          	add	s3,a1,a2
 100448e:	4481                	li	s1,0
 1004490:	02f70863          	beq	a4,a5,10044c0 <__spl_start+0x2fd0>
 1004494:	02f00593          	li	a1,47
 1004498:	8522                	mv	a0,s0
 100449a:	567000ef          	jal	ra,1005200 <__spl_start+0x3d10>
 100449e:	892a                	mv	s2,a0
 10044a0:	e111                	bnez	a0,10044a4 <__spl_start+0x2fb4>
 10044a2:	894e                	mv	s2,s3
 10044a4:	85a2                	mv	a1,s0
 10044a6:	4089063b          	subw	a2,s2,s0
 10044aa:	8552                	mv	a0,s4
 10044ac:	f85ff0ef          	jal	ra,1004430 <__spl_start+0x2f40>
 10044b0:	85aa                	mv	a1,a0
 10044b2:	54ed                	li	s1,-5
 10044b4:	cd01                	beqz	a0,10044cc <__spl_start+0x2fdc>
 10044b6:	8552                	mv	a0,s4
 10044b8:	060000ef          	jal	ra,1004518 <__spl_start+0x3028>
 10044bc:	84aa                	mv	s1,a0
 10044be:	844a                	mv	s0,s2
 10044c0:	02f00a93          	li	s5,47
 10044c4:	a0b9                	j	1004512 <__spl_start+0x3022>
 10044c6:	0905                	addi	s2,s2,1
 10044c8:	01299d63          	bne	s3,s2,10044e2 <__spl_start+0x2ff2>
 10044cc:	70e2                	ld	ra,56(sp)
 10044ce:	7442                	ld	s0,48(sp)
 10044d0:	7902                	ld	s2,32(sp)
 10044d2:	69e2                	ld	s3,24(sp)
 10044d4:	6a42                	ld	s4,16(sp)
 10044d6:	6aa2                	ld	s5,8(sp)
 10044d8:	8526                	mv	a0,s1
 10044da:	74a2                	ld	s1,40(sp)
 10044dc:	6121                	addi	sp,sp,64
 10044de:	8082                	ret
 10044e0:	8922                	mv	s2,s0
 10044e2:	00094783          	lbu	a5,0(s2)
 10044e6:	ff5780e3          	beq	a5,s5,10044c6 <__spl_start+0x2fd6>
 10044ea:	41298633          	sub	a2,s3,s2
 10044ee:	02f00593          	li	a1,47
 10044f2:	854a                	mv	a0,s2
 10044f4:	50d000ef          	jal	ra,1005200 <__spl_start+0x3d10>
 10044f8:	842a                	mv	s0,a0
 10044fa:	e111                	bnez	a0,10044fe <__spl_start+0x300e>
 10044fc:	844e                	mv	s0,s3
 10044fe:	85a6                	mv	a1,s1
 1004500:	412406bb          	subw	a3,s0,s2
 1004504:	864a                	mv	a2,s2
 1004506:	8552                	mv	a0,s4
 1004508:	cf9ff0ef          	jal	ra,1004200 <__spl_start+0x2d10>
 100450c:	84aa                	mv	s1,a0
 100450e:	fa054fe3          	bltz	a0,10044cc <__spl_start+0x2fdc>
 1004512:	fd3467e3          	bltu	s0,s3,10044e0 <__spl_start+0x2ff0>
 1004516:	bf5d                	j	10044cc <__spl_start+0x2fdc>
 1004518:	1101                	addi	sp,sp,-32
 100451a:	e822                	sd	s0,16(sp)
 100451c:	842a                	mv	s0,a0
 100451e:	852e                	mv	a0,a1
 1004520:	ec06                	sd	ra,24(sp)
 1004522:	e42e                	sd	a1,8(sp)
 1004524:	48d000ef          	jal	ra,10051b0 <__spl_start+0x3cc0>
 1004528:	0005061b          	sext.w	a2,a0
 100452c:	8522                	mv	a0,s0
 100452e:	6442                	ld	s0,16(sp)
 1004530:	65a2                	ld	a1,8(sp)
 1004532:	60e2                	ld	ra,24(sp)
 1004534:	6105                	addi	sp,sp,32
 1004536:	bf25                	j	100446e <__spl_start+0x2f7e>
 1004538:	87aa                	mv	a5,a0
 100453a:	02a04d63          	bgtz	a0,1004574 <__spl_start+0x3084>
 100453e:	00004517          	auipc	a0,0x4
 1004542:	77a50513          	addi	a0,a0,1914 # 1008cb8 <__spl_start+0x77c8>
 1004546:	cb9d                	beqz	a5,100457c <__spl_start+0x308c>
 1004548:	5739                	li	a4,-18
 100454a:	00004517          	auipc	a0,0x4
 100454e:	77e50513          	addi	a0,a0,1918 # 1008cc8 <__spl_start+0x77d8>
 1004552:	02e7c563          	blt	a5,a4,100457c <__spl_start+0x308c>
 1004556:	40f007bb          	negw	a5,a5
 100455a:	078e                	slli	a5,a5,0x3
 100455c:	00008717          	auipc	a4,0x8
 1004560:	88470713          	addi	a4,a4,-1916 # 100bde0 <__spl_start+0xa8f0>
 1004564:	97ba                	add	a5,a5,a4
 1004566:	6388                	ld	a0,0(a5)
 1004568:	e911                	bnez	a0,100457c <__spl_start+0x308c>
 100456a:	00004517          	auipc	a0,0x4
 100456e:	75e50513          	addi	a0,a0,1886 # 1008cc8 <__spl_start+0x77d8>
 1004572:	8082                	ret
 1004574:	00004517          	auipc	a0,0x4
 1004578:	72c50513          	addi	a0,a0,1836 # 1008ca0 <__spl_start+0x77b0>
 100457c:	8082                	ret
 100457e:	00c52883          	lw	a7,12(a0)
 1004582:	02052803          	lw	a6,32(a0)
 1004586:	832e                	mv	t1,a1
 1004588:	0188979b          	slliw	a5,a7,0x18
 100458c:	0188d59b          	srliw	a1,a7,0x18
 1004590:	8fcd                	or	a5,a5,a1
 1004592:	00ff0f37          	lui	t5,0xff0
 1004596:	0088959b          	slliw	a1,a7,0x8
 100459a:	01e5f5b3          	and	a1,a1,t5
 100459e:	872a                	mv	a4,a0
 10045a0:	8fcd                	or	a5,a5,a1
 10045a2:	0188551b          	srliw	a0,a6,0x18
 10045a6:	0188159b          	slliw	a1,a6,0x18
 10045aa:	8dc9                	or	a1,a1,a0
 10045ac:	6e41                	lui	t3,0x10
 10045ae:	0088151b          	slliw	a0,a6,0x8
 10045b2:	f00e0e13          	addi	t3,t3,-256 # ff00 <_start-0xff0100>
 10045b6:	0088d89b          	srliw	a7,a7,0x8
 10045ba:	01e57533          	and	a0,a0,t5
 10045be:	0088581b          	srliw	a6,a6,0x8
 10045c2:	01c8f8b3          	and	a7,a7,t3
 10045c6:	8dc9                	or	a1,a1,a0
 10045c8:	01c87833          	and	a6,a6,t3
 10045cc:	0117e7b3          	or	a5,a5,a7
 10045d0:	0105e5b3          	or	a1,a1,a6
 10045d4:	9fad                	addw	a5,a5,a1
 10045d6:	97ba                	add	a5,a5,a4
 10045d8:	06064763          	bltz	a2,1004646 <__spl_start+0x3156>
 10045dc:	00c305b3          	add	a1,t1,a2
 10045e0:	5571                	li	a0,-4
 10045e2:	06b7e463          	bltu	a5,a1,100464a <__spl_start+0x315a>
 10045e6:	06e36263          	bltu	t1,a4,100464a <__spl_start+0x315a>
 10045ea:	40c68eb3          	sub	t4,a3,a2
 10045ee:	9ebe                	add	t4,t4,a5
 10045f0:	04eeed63          	bltu	t4,a4,100464a <__spl_start+0x315a>
 10045f4:	00472883          	lw	a7,4(a4)
 10045f8:	0188d51b          	srliw	a0,a7,0x18
 10045fc:	0188981b          	slliw	a6,a7,0x18
 1004600:	00a86833          	or	a6,a6,a0
 1004604:	0088951b          	slliw	a0,a7,0x8
 1004608:	01e57533          	and	a0,a0,t5
 100460c:	0088d89b          	srliw	a7,a7,0x8
 1004610:	00a86833          	or	a6,a6,a0
 1004614:	01c8f8b3          	and	a7,a7,t3
 1004618:	01186833          	or	a6,a6,a7
 100461c:	1802                	slli	a6,a6,0x20
 100461e:	02085813          	srli	a6,a6,0x20
 1004622:	9742                	add	a4,a4,a6
 1004624:	5575                	li	a0,-3
 1004626:	03d76263          	bltu	a4,t4,100464a <__spl_start+0x315a>
 100462a:	406787b3          	sub	a5,a5,t1
 100462e:	1141                	addi	sp,sp,-16
 1004630:	40c78633          	sub	a2,a5,a2
 1004634:	00d30533          	add	a0,t1,a3
 1004638:	e406                	sd	ra,8(sp)
 100463a:	f86fd0ef          	jal	ra,1001dc0 <__spl_start+0x8d0>
 100463e:	60a2                	ld	ra,8(sp)
 1004640:	4501                	li	a0,0
 1004642:	0141                	addi	sp,sp,16
 1004644:	8082                	ret
 1004646:	5571                	li	a0,-4
 1004648:	8082                	ret
 100464a:	8082                	ret
 100464c:	1101                	addi	sp,sp,-32
 100464e:	e426                	sd	s1,8(sp)
 1004650:	e04a                	sd	s2,0(sp)
 1004652:	84b6                	mv	s1,a3
 1004654:	8932                	mv	s2,a2
 1004656:	0046969b          	slliw	a3,a3,0x4
 100465a:	0046161b          	slliw	a2,a2,0x4
 100465e:	e822                	sd	s0,16(sp)
 1004660:	ec06                	sd	ra,24(sp)
 1004662:	842a                	mv	s0,a0
 1004664:	f1bff0ef          	jal	ra,100457e <__spl_start+0x308e>
 1004668:	e941                	bnez	a0,10046f8 <__spl_start+0x3208>
 100466a:	4418                	lw	a4,8(s0)
 100466c:	00ff0837          	lui	a6,0xff0
 1004670:	65c1                	lui	a1,0x10
 1004672:	0187569b          	srliw	a3,a4,0x18
 1004676:	0187179b          	slliw	a5,a4,0x18
 100467a:	8fd5                	or	a5,a5,a3
 100467c:	0087169b          	slliw	a3,a4,0x8
 1004680:	f0058593          	addi	a1,a1,-256 # ff00 <_start-0xff0100>
 1004684:	0106f6b3          	and	a3,a3,a6
 1004688:	0087571b          	srliw	a4,a4,0x8
 100468c:	8fd5                	or	a5,a5,a3
 100468e:	8f6d                	and	a4,a4,a1
 1004690:	412484bb          	subw	s1,s1,s2
 1004694:	0044949b          	slliw	s1,s1,0x4
 1004698:	8fd9                	or	a5,a5,a4
 100469a:	9fa5                	addw	a5,a5,s1
 100469c:	0187d69b          	srliw	a3,a5,0x18
 10046a0:	0187971b          	slliw	a4,a5,0x18
 10046a4:	8f55                	or	a4,a4,a3
 10046a6:	0087969b          	slliw	a3,a5,0x8
 10046aa:	0106f6b3          	and	a3,a3,a6
 10046ae:	0087d79b          	srliw	a5,a5,0x8
 10046b2:	8f55                	or	a4,a4,a3
 10046b4:	8fed                	and	a5,a5,a1
 10046b6:	8fd9                	or	a5,a5,a4
 10046b8:	4458                	lw	a4,12(s0)
 10046ba:	c41c                	sw	a5,8(s0)
 10046bc:	0187569b          	srliw	a3,a4,0x18
 10046c0:	0187179b          	slliw	a5,a4,0x18
 10046c4:	8fd5                	or	a5,a5,a3
 10046c6:	0087169b          	slliw	a3,a4,0x8
 10046ca:	0106f6b3          	and	a3,a3,a6
 10046ce:	0087571b          	srliw	a4,a4,0x8
 10046d2:	8fd5                	or	a5,a5,a3
 10046d4:	8f6d                	and	a4,a4,a1
 10046d6:	8fd9                	or	a5,a5,a4
 10046d8:	9fa5                	addw	a5,a5,s1
 10046da:	0187d69b          	srliw	a3,a5,0x18
 10046de:	0187971b          	slliw	a4,a5,0x18
 10046e2:	8f55                	or	a4,a4,a3
 10046e4:	0087969b          	slliw	a3,a5,0x8
 10046e8:	0106f6b3          	and	a3,a3,a6
 10046ec:	0087d79b          	srliw	a5,a5,0x8
 10046f0:	8f55                	or	a4,a4,a3
 10046f2:	8fed                	and	a5,a5,a1
 10046f4:	8fd9                	or	a5,a5,a4
 10046f6:	c45c                	sw	a5,12(s0)
 10046f8:	60e2                	ld	ra,24(sp)
 10046fa:	6442                	ld	s0,16(sp)
 10046fc:	64a2                	ld	s1,8(sp)
 10046fe:	6902                	ld	s2,0(sp)
 1004700:	6105                	addi	sp,sp,32
 1004702:	8082                	ret
 1004704:	1101                	addi	sp,sp,-32
 1004706:	e822                	sd	s0,16(sp)
 1004708:	e426                	sd	s1,8(sp)
 100470a:	e04a                	sd	s2,0(sp)
 100470c:	ec06                	sd	ra,24(sp)
 100470e:	842a                	mv	s0,a0
 1004710:	84b2                	mv	s1,a2
 1004712:	8936                	mv	s2,a3
 1004714:	e6bff0ef          	jal	ra,100457e <__spl_start+0x308e>
 1004718:	e551                	bnez	a0,10047a4 <__spl_start+0x32b4>
 100471a:	5058                	lw	a4,36(s0)
 100471c:	00ff0837          	lui	a6,0xff0
 1004720:	65c1                	lui	a1,0x10
 1004722:	0187569b          	srliw	a3,a4,0x18
 1004726:	0187179b          	slliw	a5,a4,0x18
 100472a:	8fd5                	or	a5,a5,a3
 100472c:	0087169b          	slliw	a3,a4,0x8
 1004730:	f0058593          	addi	a1,a1,-256 # ff00 <_start-0xff0100>
 1004734:	0106f6b3          	and	a3,a3,a6
 1004738:	0087571b          	srliw	a4,a4,0x8
 100473c:	8fd5                	or	a5,a5,a3
 100473e:	8f6d                	and	a4,a4,a1
 1004740:	4099063b          	subw	a2,s2,s1
 1004744:	8fd9                	or	a5,a5,a4
 1004746:	9fb1                	addw	a5,a5,a2
 1004748:	0187d69b          	srliw	a3,a5,0x18
 100474c:	0187971b          	slliw	a4,a5,0x18
 1004750:	8f55                	or	a4,a4,a3
 1004752:	0087969b          	slliw	a3,a5,0x8
 1004756:	0106f6b3          	and	a3,a3,a6
 100475a:	0087d79b          	srliw	a5,a5,0x8
 100475e:	8f55                	or	a4,a4,a3
 1004760:	8fed                	and	a5,a5,a1
 1004762:	8fd9                	or	a5,a5,a4
 1004764:	d05c                	sw	a5,36(s0)
 1004766:	445c                	lw	a5,12(s0)
 1004768:	0187d71b          	srliw	a4,a5,0x18
 100476c:	0187969b          	slliw	a3,a5,0x18
 1004770:	8ed9                	or	a3,a3,a4
 1004772:	0087971b          	slliw	a4,a5,0x8
 1004776:	01077733          	and	a4,a4,a6
 100477a:	0087d79b          	srliw	a5,a5,0x8
 100477e:	8ed9                	or	a3,a3,a4
 1004780:	8fed                	and	a5,a5,a1
 1004782:	8edd                	or	a3,a3,a5
 1004784:	9eb1                	addw	a3,a3,a2
 1004786:	0186d71b          	srliw	a4,a3,0x18
 100478a:	0186979b          	slliw	a5,a3,0x18
 100478e:	8fd9                	or	a5,a5,a4
 1004790:	0086971b          	slliw	a4,a3,0x8
 1004794:	01077733          	and	a4,a4,a6
 1004798:	0086d69b          	srliw	a3,a3,0x8
 100479c:	8fd9                	or	a5,a5,a4
 100479e:	8eed                	and	a3,a3,a1
 10047a0:	8fd5                	or	a5,a5,a3
 10047a2:	c45c                	sw	a5,12(s0)
 10047a4:	60e2                	ld	ra,24(sp)
 10047a6:	6442                	ld	s0,16(sp)
 10047a8:	64a2                	ld	s1,8(sp)
 10047aa:	6902                	ld	s2,0(sp)
 10047ac:	6105                	addi	sp,sp,32
 10047ae:	8082                	ret
 10047b0:	7119                	addi	sp,sp,-128
 10047b2:	f0ca                	sd	s2,96(sp)
 10047b4:	ecce                	sd	s3,88(sp)
 10047b6:	e8d2                	sd	s4,80(sp)
 10047b8:	e0da                	sd	s6,64(sp)
 10047ba:	f862                	sd	s8,48(sp)
 10047bc:	fc86                	sd	ra,120(sp)
 10047be:	f8a2                	sd	s0,112(sp)
 10047c0:	f4a6                	sd	s1,104(sp)
 10047c2:	e4d6                	sd	s5,72(sp)
 10047c4:	fc5e                	sd	s7,56(sp)
 10047c6:	f466                	sd	s9,40(sp)
 10047c8:	f06a                	sd	s10,32(sp)
 10047ca:	ec6e                	sd	s11,24(sp)
 10047cc:	8b2a                	mv	s6,a0
 10047ce:	8a32                	mv	s4,a2
 10047d0:	8936                	mv	s2,a3
 10047d2:	89ba                	mv	s3,a4
 10047d4:	de6ff0ef          	jal	ra,1003dba <__spl_start+0x28ca>
 10047d8:	8c2a                	mv	s8,a0
 10047da:	10054b63          	bltz	a0,10048f0 <__spl_start+0x3400>
 10047de:	00cb2783          	lw	a5,12(s6)
 10047e2:	00ff0db7          	lui	s11,0xff0
 10047e6:	6cc1                	lui	s9,0x10
 10047e8:	0187d71b          	srliw	a4,a5,0x18
 10047ec:	0187949b          	slliw	s1,a5,0x18
 10047f0:	8cd9                	or	s1,s1,a4
 10047f2:	0087971b          	slliw	a4,a5,0x8
 10047f6:	01b77733          	and	a4,a4,s11
 10047fa:	f00c8c93          	addi	s9,s9,-256 # ff00 <_start-0xff0100>
 10047fe:	0087d79b          	srliw	a5,a5,0x8
 1004802:	8cd9                	or	s1,s1,a4
 1004804:	0197f7b3          	and	a5,a5,s9
 1004808:	8552                	mv	a0,s4
 100480a:	8cdd                	or	s1,s1,a5
 100480c:	1a5000ef          	jal	ra,10051b0 <__spl_start+0x3cc0>
 1004810:	020b2783          	lw	a5,32(s6)
 1004814:	1482                	slli	s1,s1,0x20
 1004816:	9081                	srli	s1,s1,0x20
 1004818:	0187d71b          	srliw	a4,a5,0x18
 100481c:	0187959b          	slliw	a1,a5,0x18
 1004820:	8dd9                	or	a1,a1,a4
 1004822:	0087971b          	slliw	a4,a5,0x8
 1004826:	01b77733          	and	a4,a4,s11
 100482a:	0087d79b          	srliw	a5,a5,0x8
 100482e:	8dd9                	or	a1,a1,a4
 1004830:	0197f7b3          	and	a5,a5,s9
 1004834:	94da                	add	s1,s1,s6
 1004836:	8ddd                	or	a1,a1,a5
 1004838:	842a                	mv	s0,a0
 100483a:	8652                	mv	a2,s4
 100483c:	2581                	sext.w	a1,a1
 100483e:	8526                	mv	a0,s1
 1004840:	ec0ff0ef          	jal	ra,1003f00 <__spl_start+0x2a10>
 1004844:	c571                	beqz	a0,1004910 <__spl_start+0x3420>
 1004846:	4095043b          	subw	s0,a0,s1
 100484a:	18044963          	bltz	s0,10049dc <__spl_start+0x34ec>
 100484e:	008b2783          	lw	a5,8(s6)
 1004852:	00ff0ab7          	lui	s5,0xff0
 1004856:	6a41                	lui	s4,0x10
 1004858:	0187d71b          	srliw	a4,a5,0x18
 100485c:	0187959b          	slliw	a1,a5,0x18
 1004860:	8dd9                	or	a1,a1,a4
 1004862:	0087971b          	slliw	a4,a5,0x8
 1004866:	01577733          	and	a4,a4,s5
 100486a:	0087d79b          	srliw	a5,a5,0x8
 100486e:	f00a0a13          	addi	s4,s4,-256 # ff00 <_start-0xff0100>
 1004872:	8dd9                	or	a1,a1,a4
 1004874:	0147f7b3          	and	a5,a5,s4
 1004878:	8ddd                	or	a1,a1,a5
 100487a:	1582                	slli	a1,a1,0x20
 100487c:	9181                	srli	a1,a1,0x20
 100487e:	95e2                	add	a1,a1,s8
 1004880:	0039069b          	addiw	a3,s2,3
 1004884:	95da                	add	a1,a1,s6
 1004886:	9af1                	andi	a3,a3,-4
 1004888:	00b9b023          	sd	a1,0(s3) # ff0000 <_start-0x10000>
 100488c:	26b1                	addiw	a3,a3,12
 100488e:	4601                	li	a2,0
 1004890:	855a                	mv	a0,s6
 1004892:	e73ff0ef          	jal	ra,1004704 <__spl_start+0x3214>
 1004896:	0009049b          	sext.w	s1,s2
 100489a:	8c2a                	mv	s8,a0
 100489c:	e931                	bnez	a0,10048f0 <__spl_start+0x3400>
 100489e:	0009b783          	ld	a5,0(s3)
 10048a2:	03000737          	lui	a4,0x3000
 10048a6:	c398                	sw	a4,0(a5)
 10048a8:	0184571b          	srliw	a4,s0,0x18
 10048ac:	0184179b          	slliw	a5,s0,0x18
 10048b0:	8fd9                	or	a5,a5,a4
 10048b2:	0084171b          	slliw	a4,s0,0x8
 10048b6:	0009b683          	ld	a3,0(s3)
 10048ba:	01577733          	and	a4,a4,s5
 10048be:	0084541b          	srliw	s0,s0,0x8
 10048c2:	8fd9                	or	a5,a5,a4
 10048c4:	01447433          	and	s0,s0,s4
 10048c8:	8fc1                	or	a5,a5,s0
 10048ca:	0184d71b          	srliw	a4,s1,0x18
 10048ce:	c69c                	sw	a5,8(a3)
 10048d0:	0184979b          	slliw	a5,s1,0x18
 10048d4:	8fd9                	or	a5,a5,a4
 10048d6:	0084971b          	slliw	a4,s1,0x8
 10048da:	0009b683          	ld	a3,0(s3)
 10048de:	01577733          	and	a4,a4,s5
 10048e2:	0084d49b          	srliw	s1,s1,0x8
 10048e6:	8fd9                	or	a5,a5,a4
 10048e8:	0144f4b3          	and	s1,s1,s4
 10048ec:	8fc5                	or	a5,a5,s1
 10048ee:	c2dc                	sw	a5,4(a3)
 10048f0:	70e6                	ld	ra,120(sp)
 10048f2:	7446                	ld	s0,112(sp)
 10048f4:	74a6                	ld	s1,104(sp)
 10048f6:	7906                	ld	s2,96(sp)
 10048f8:	69e6                	ld	s3,88(sp)
 10048fa:	6a46                	ld	s4,80(sp)
 10048fc:	6aa6                	ld	s5,72(sp)
 10048fe:	6b06                	ld	s6,64(sp)
 1004900:	7be2                	ld	s7,56(sp)
 1004902:	7ca2                	ld	s9,40(sp)
 1004904:	7d02                	ld	s10,32(sp)
 1004906:	6de2                	ld	s11,24(sp)
 1004908:	8562                	mv	a0,s8
 100490a:	7c42                	ld	s8,48(sp)
 100490c:	6109                	addi	sp,sp,128
 100490e:	8082                	ret
 1004910:	020b2783          	lw	a5,32(s6)
 1004914:	00140d1b          	addiw	s10,s0,1
 1004918:	4601                	li	a2,0
 100491a:	0187d69b          	srliw	a3,a5,0x18
 100491e:	01879b9b          	slliw	s7,a5,0x18
 1004922:	00dbebb3          	or	s7,s7,a3
 1004926:	0087969b          	slliw	a3,a5,0x8
 100492a:	01b6f6b3          	and	a3,a3,s11
 100492e:	0087d79b          	srliw	a5,a5,0x8
 1004932:	00dbebb3          	or	s7,s7,a3
 1004936:	0197f7b3          	and	a5,a5,s9
 100493a:	00fbebb3          	or	s7,s7,a5
 100493e:	00cb2783          	lw	a5,12(s6)
 1004942:	000b8a9b          	sext.w	s5,s7
 1004946:	1b82                	slli	s7,s7,0x20
 1004948:	0187d69b          	srliw	a3,a5,0x18
 100494c:	0187959b          	slliw	a1,a5,0x18
 1004950:	8dd5                	or	a1,a1,a3
 1004952:	0087969b          	slliw	a3,a5,0x8
 1004956:	01b6f6b3          	and	a3,a3,s11
 100495a:	0087d79b          	srliw	a5,a5,0x8
 100495e:	8dd5                	or	a1,a1,a3
 1004960:	0197f7b3          	and	a5,a5,s9
 1004964:	8ddd                	or	a1,a1,a5
 1004966:	1582                	slli	a1,a1,0x20
 1004968:	020bdb93          	srli	s7,s7,0x20
 100496c:	9181                	srli	a1,a1,0x20
 100496e:	95de                	add	a1,a1,s7
 1004970:	86ea                	mv	a3,s10
 1004972:	95da                	add	a1,a1,s6
 1004974:	855a                	mv	a0,s6
 1004976:	c66a                	sw	s10,12(sp)
 1004978:	c07ff0ef          	jal	ra,100457e <__spl_start+0x308e>
 100497c:	842a                	mv	s0,a0
 100497e:	ec0516e3          	bnez	a0,100484a <__spl_start+0x335a>
 1004982:	020b2683          	lw	a3,32(s6)
 1004986:	4732                	lw	a4,12(sp)
 1004988:	85d2                	mv	a1,s4
 100498a:	0186d61b          	srliw	a2,a3,0x18
 100498e:	0186979b          	slliw	a5,a3,0x18
 1004992:	8fd1                	or	a5,a5,a2
 1004994:	0086961b          	slliw	a2,a3,0x8
 1004998:	01b67633          	and	a2,a2,s11
 100499c:	0086d69b          	srliw	a3,a3,0x8
 10049a0:	8fd1                	or	a5,a5,a2
 10049a2:	0196f6b3          	and	a3,a3,s9
 10049a6:	8fd5                	or	a5,a5,a3
 10049a8:	9fb9                	addw	a5,a5,a4
 10049aa:	0187d69b          	srliw	a3,a5,0x18
 10049ae:	0187971b          	slliw	a4,a5,0x18
 10049b2:	8f55                	or	a4,a4,a3
 10049b4:	0087969b          	slliw	a3,a5,0x8
 10049b8:	01b6f6b3          	and	a3,a3,s11
 10049bc:	0087d79b          	srliw	a5,a5,0x8
 10049c0:	8f55                	or	a4,a4,a3
 10049c2:	0197f7b3          	and	a5,a5,s9
 10049c6:	8fd9                	or	a5,a5,a4
 10049c8:	02fb2023          	sw	a5,32(s6)
 10049cc:	866a                	mv	a2,s10
 10049ce:	01748533          	add	a0,s1,s7
 10049d2:	c7efd0ef          	jal	ra,1001e50 <__spl_start+0x960>
 10049d6:	000a841b          	sext.w	s0,s5
 10049da:	bd85                	j	100484a <__spl_start+0x335a>
 10049dc:	8c22                	mv	s8,s0
 10049de:	bf09                	j	10048f0 <__spl_start+0x3400>
 10049e0:	7139                	addi	sp,sp,-64
 10049e2:	f822                	sd	s0,48(sp)
 10049e4:	f426                	sd	s1,40(sp)
 10049e6:	f04a                	sd	s2,32(sp)
 10049e8:	ec4e                	sd	s3,24(sp)
 10049ea:	e852                	sd	s4,16(sp)
 10049ec:	e456                	sd	s5,8(sp)
 10049ee:	fc06                	sd	ra,56(sp)
 10049f0:	8aaa                	mv	s5,a0
 10049f2:	892e                	mv	s2,a1
 10049f4:	84b2                	mv	s1,a2
 10049f6:	f36ff0ef          	jal	ra,100412c <__spl_start+0x2c3c>
 10049fa:	010aa783          	lw	a5,16(s5) # ff0010 <_start-0xfff0>
 10049fe:	00ff0a37          	lui	s4,0xff0
 1004a02:	69c1                	lui	s3,0x10
 1004a04:	0187d71b          	srliw	a4,a5,0x18
 1004a08:	0187941b          	slliw	s0,a5,0x18
 1004a0c:	8c59                	or	s0,s0,a4
 1004a0e:	0087971b          	slliw	a4,a5,0x8
 1004a12:	01477733          	and	a4,a4,s4
 1004a16:	0087d79b          	srliw	a5,a5,0x8
 1004a1a:	f0098993          	addi	s3,s3,-256 # ff00 <_start-0xff0100>
 1004a1e:	8c59                	or	s0,s0,a4
 1004a20:	0137f7b3          	and	a5,a5,s3
 1004a24:	8c5d                	or	s0,s0,a5
 1004a26:	1402                	slli	s0,s0,0x20
 1004a28:	0512                	slli	a0,a0,0x4
 1004a2a:	9001                	srli	s0,s0,0x20
 1004a2c:	942a                	add	s0,s0,a0
 1004a2e:	9456                	add	s0,s0,s5
 1004a30:	4685                	li	a3,1
 1004a32:	4601                	li	a2,0
 1004a34:	85a2                	mv	a1,s0
 1004a36:	8556                	mv	a0,s5
 1004a38:	c15ff0ef          	jal	ra,100464c <__spl_start+0x315c>
 1004a3c:	ed41                	bnez	a0,1004ad4 <__spl_start+0x35e4>
 1004a3e:	0189571b          	srliw	a4,s2,0x18
 1004a42:	0189179b          	slliw	a5,s2,0x18
 1004a46:	8fd9                	or	a5,a5,a4
 1004a48:	0089171b          	slliw	a4,s2,0x8
 1004a4c:	42095693          	srai	a3,s2,0x20
 1004a50:	01477733          	and	a4,a4,s4
 1004a54:	0186d61b          	srliw	a2,a3,0x18
 1004a58:	8fd9                	or	a5,a5,a4
 1004a5a:	0186971b          	slliw	a4,a3,0x18
 1004a5e:	8f51                	or	a4,a4,a2
 1004a60:	0086961b          	slliw	a2,a3,0x8
 1004a64:	01467633          	and	a2,a2,s4
 1004a68:	0086d69b          	srliw	a3,a3,0x8
 1004a6c:	8f51                	or	a4,a4,a2
 1004a6e:	0136f6b3          	and	a3,a3,s3
 1004a72:	0089591b          	srliw	s2,s2,0x8
 1004a76:	8f55                	or	a4,a4,a3
 1004a78:	01397933          	and	s2,s2,s3
 1004a7c:	0127e7b3          	or	a5,a5,s2
 1004a80:	1702                	slli	a4,a4,0x20
 1004a82:	9301                	srli	a4,a4,0x20
 1004a84:	1782                	slli	a5,a5,0x20
 1004a86:	8fd9                	or	a5,a5,a4
 1004a88:	e01c                	sd	a5,0(s0)
 1004a8a:	0184d71b          	srliw	a4,s1,0x18
 1004a8e:	0184979b          	slliw	a5,s1,0x18
 1004a92:	8fd9                	or	a5,a5,a4
 1004a94:	0084971b          	slliw	a4,s1,0x8
 1004a98:	4204d693          	srai	a3,s1,0x20
 1004a9c:	01477733          	and	a4,a4,s4
 1004aa0:	0186d61b          	srliw	a2,a3,0x18
 1004aa4:	8fd9                	or	a5,a5,a4
 1004aa6:	0186971b          	slliw	a4,a3,0x18
 1004aaa:	8f51                	or	a4,a4,a2
 1004aac:	0086961b          	slliw	a2,a3,0x8
 1004ab0:	01467633          	and	a2,a2,s4
 1004ab4:	0086d69b          	srliw	a3,a3,0x8
 1004ab8:	0084d49b          	srliw	s1,s1,0x8
 1004abc:	8f51                	or	a4,a4,a2
 1004abe:	0136f6b3          	and	a3,a3,s3
 1004ac2:	0134f4b3          	and	s1,s1,s3
 1004ac6:	8f55                	or	a4,a4,a3
 1004ac8:	8fc5                	or	a5,a5,s1
 1004aca:	1702                	slli	a4,a4,0x20
 1004acc:	1782                	slli	a5,a5,0x20
 1004ace:	9301                	srli	a4,a4,0x20
 1004ad0:	8fd9                	or	a5,a5,a4
 1004ad2:	e41c                	sd	a5,8(s0)
 1004ad4:	70e2                	ld	ra,56(sp)
 1004ad6:	7442                	ld	s0,48(sp)
 1004ad8:	74a2                	ld	s1,40(sp)
 1004ada:	7902                	ld	s2,32(sp)
 1004adc:	69e2                	ld	s3,24(sp)
 1004ade:	6a42                	ld	s4,16(sp)
 1004ae0:	6aa2                	ld	s5,8(sp)
 1004ae2:	6121                	addi	sp,sp,64
 1004ae4:	8082                	ret
 1004ae6:	1101                	addi	sp,sp,-32
 1004ae8:	e822                	sd	s0,16(sp)
 1004aea:	e426                	sd	s1,8(sp)
 1004aec:	e04a                	sd	s2,0(sp)
 1004aee:	ec06                	sd	ra,24(sp)
 1004af0:	491c                	lw	a5,16(a0)
 1004af2:	00ff06b7          	lui	a3,0xff0
 1004af6:	892e                	mv	s2,a1
 1004af8:	0187d71b          	srliw	a4,a5,0x18
 1004afc:	0187941b          	slliw	s0,a5,0x18
 1004b00:	8c59                	or	s0,s0,a4
 1004b02:	0087971b          	slliw	a4,a5,0x8
 1004b06:	8f75                	and	a4,a4,a3
 1004b08:	8c59                	or	s0,s0,a4
 1004b0a:	6741                	lui	a4,0x10
 1004b0c:	0087d79b          	srliw	a5,a5,0x8
 1004b10:	f0070713          	addi	a4,a4,-256 # ff00 <_start-0xff0100>
 1004b14:	8ff9                	and	a5,a5,a4
 1004b16:	8c5d                	or	s0,s0,a5
 1004b18:	1402                	slli	s0,s0,0x20
 1004b1a:	9001                	srli	s0,s0,0x20
 1004b1c:	00459793          	slli	a5,a1,0x4
 1004b20:	943e                	add	s0,s0,a5
 1004b22:	84aa                	mv	s1,a0
 1004b24:	942a                	add	s0,s0,a0
 1004b26:	e06ff0ef          	jal	ra,100412c <__spl_start+0x2c3c>
 1004b2a:	00a95d63          	bge	s2,a0,1004b44 <__spl_start+0x3654>
 1004b2e:	85a2                	mv	a1,s0
 1004b30:	6442                	ld	s0,16(sp)
 1004b32:	60e2                	ld	ra,24(sp)
 1004b34:	6902                	ld	s2,0(sp)
 1004b36:	8526                	mv	a0,s1
 1004b38:	64a2                	ld	s1,8(sp)
 1004b3a:	4681                	li	a3,0
 1004b3c:	4605                	li	a2,1
 1004b3e:	6105                	addi	sp,sp,32
 1004b40:	b0dff06f          	j	100464c <__spl_start+0x315c>
 1004b44:	60e2                	ld	ra,24(sp)
 1004b46:	6442                	ld	s0,16(sp)
 1004b48:	64a2                	ld	s1,8(sp)
 1004b4a:	6902                	ld	s2,0(sp)
 1004b4c:	557d                	li	a0,-1
 1004b4e:	6105                	addi	sp,sp,32
 1004b50:	8082                	ret
 1004b52:	715d                	addi	sp,sp,-80
 1004b54:	f44e                	sd	s3,40(sp)
 1004b56:	89b6                	mv	s3,a3
 1004b58:	0054                	addi	a3,sp,4
 1004b5a:	fc26                	sd	s1,56(sp)
 1004b5c:	f84a                	sd	s2,48(sp)
 1004b5e:	f052                	sd	s4,32(sp)
 1004b60:	ec56                	sd	s5,24(sp)
 1004b62:	e85a                	sd	s6,16(sp)
 1004b64:	e486                	sd	ra,72(sp)
 1004b66:	e0a2                	sd	s0,64(sp)
 1004b68:	8a2a                	mv	s4,a0
 1004b6a:	8aae                	mv	s5,a1
 1004b6c:	8b32                	mv	s6,a2
 1004b6e:	84ba                	mv	s1,a4
 1004b70:	85dff0ef          	jal	ra,10043cc <__spl_start+0x2edc>
 1004b74:	892a                	mv	s2,a0
 1004b76:	e42a                	sd	a0,8(sp)
 1004b78:	4512                	lw	a0,4(sp)
 1004b7a:	02091063          	bnez	s2,1004b9a <__spl_start+0x36aa>
 1004b7e:	57fd                	li	a5,-1
 1004b80:	06f50a63          	beq	a0,a5,1004bf4 <__spl_start+0x3704>
 1004b84:	c125                	beqz	a0,1004be4 <__spl_start+0x36f4>
 1004b86:	60a6                	ld	ra,72(sp)
 1004b88:	6406                	ld	s0,64(sp)
 1004b8a:	74e2                	ld	s1,56(sp)
 1004b8c:	7942                	ld	s2,48(sp)
 1004b8e:	79a2                	ld	s3,40(sp)
 1004b90:	7a02                	ld	s4,32(sp)
 1004b92:	6ae2                	ld	s5,24(sp)
 1004b94:	6b42                	ld	s6,16(sp)
 1004b96:	6161                	addi	sp,sp,80
 1004b98:	8082                	ret
 1004b9a:	0035079b          	addiw	a5,a0,3
 1004b9e:	0039869b          	addiw	a3,s3,3
 1004ba2:	9af1                	andi	a3,a3,-4
 1004ba4:	9bf1                	andi	a5,a5,-4
 1004ba6:	2681                	sext.w	a3,a3
 1004ba8:	0007861b          	sext.w	a2,a5
 1004bac:	00c90593          	addi	a1,s2,12
 1004bb0:	8552                	mv	a0,s4
 1004bb2:	0009841b          	sext.w	s0,s3
 1004bb6:	b4fff0ef          	jal	ra,1004704 <__spl_start+0x3214>
 1004bba:	e915                	bnez	a0,1004bee <__spl_start+0x36fe>
 1004bbc:	0184571b          	srliw	a4,s0,0x18
 1004bc0:	0184179b          	slliw	a5,s0,0x18
 1004bc4:	8fd9                	or	a5,a5,a4
 1004bc6:	00ff06b7          	lui	a3,0xff0
 1004bca:	0084171b          	slliw	a4,s0,0x8
 1004bce:	8f75                	and	a4,a4,a3
 1004bd0:	8fd9                	or	a5,a5,a4
 1004bd2:	6741                	lui	a4,0x10
 1004bd4:	0084541b          	srliw	s0,s0,0x8
 1004bd8:	f0070713          	addi	a4,a4,-256 # ff00 <_start-0xff0100>
 1004bdc:	8c79                	and	s0,s0,a4
 1004bde:	8fc1                	or	a5,a5,s0
 1004be0:	00f92223          	sw	a5,4(s2)
 1004be4:	67a2                	ld	a5,8(sp)
 1004be6:	4501                	li	a0,0
 1004be8:	07b1                	addi	a5,a5,12
 1004bea:	e09c                	sd	a5,0(s1)
 1004bec:	bf69                	j	1004b86 <__spl_start+0x3696>
 1004bee:	57fd                	li	a5,-1
 1004bf0:	f8f51be3          	bne	a0,a5,1004b86 <__spl_start+0x3696>
 1004bf4:	0038                	addi	a4,sp,8
 1004bf6:	86ce                	mv	a3,s3
 1004bf8:	865a                	mv	a2,s6
 1004bfa:	85d6                	mv	a1,s5
 1004bfc:	8552                	mv	a0,s4
 1004bfe:	bb3ff0ef          	jal	ra,10047b0 <__spl_start+0x32c0>
 1004c02:	b749                	j	1004b84 <__spl_start+0x3694>
 1004c04:	7179                	addi	sp,sp,-48
 1004c06:	f022                	sd	s0,32(sp)
 1004c08:	843a                	mv	s0,a4
 1004c0a:	e84a                	sd	s2,16(sp)
 1004c0c:	0038                	addi	a4,sp,8
 1004c0e:	8936                	mv	s2,a3
 1004c10:	86a2                	mv	a3,s0
 1004c12:	ec26                	sd	s1,24(sp)
 1004c14:	f406                	sd	ra,40(sp)
 1004c16:	f3dff0ef          	jal	ra,1004b52 <__spl_start+0x3662>
 1004c1a:	84aa                	mv	s1,a0
 1004c1c:	e519                	bnez	a0,1004c2a <__spl_start+0x373a>
 1004c1e:	c411                	beqz	s0,1004c2a <__spl_start+0x373a>
 1004c20:	6522                	ld	a0,8(sp)
 1004c22:	8622                	mv	a2,s0
 1004c24:	85ca                	mv	a1,s2
 1004c26:	a2afd0ef          	jal	ra,1001e50 <__spl_start+0x960>
 1004c2a:	70a2                	ld	ra,40(sp)
 1004c2c:	7402                	ld	s0,32(sp)
 1004c2e:	6942                	ld	s2,16(sp)
 1004c30:	8526                	mv	a0,s1
 1004c32:	64e2                	ld	s1,24(sp)
 1004c34:	6145                	addi	sp,sp,48
 1004c36:	8082                	ret
 1004c38:	715d                	addi	sp,sp,-80
 1004c3a:	e0a2                	sd	s0,64(sp)
 1004c3c:	fc26                	sd	s1,56(sp)
 1004c3e:	f44e                	sd	s3,40(sp)
 1004c40:	f052                	sd	s4,32(sp)
 1004c42:	e486                	sd	ra,72(sp)
 1004c44:	f84a                	sd	s2,48(sp)
 1004c46:	ec56                	sd	s5,24(sp)
 1004c48:	8a2a                	mv	s4,a0
 1004c4a:	842e                	mv	s0,a1
 1004c4c:	89b2                	mv	s3,a2
 1004c4e:	84b6                	mv	s1,a3
 1004c50:	db0ff0ef          	jal	ra,1004200 <__spl_start+0x2d10>
 1004c54:	0a055a63          	bgez	a0,1004d08 <__spl_start+0x3818>
 1004c58:	57fd                	li	a5,-1
 1004c5a:	08f51e63          	bne	a0,a5,1004cf6 <__spl_start+0x3806>
 1004c5e:	00c10a93          	addi	s5,sp,12
 1004c62:	85a2                	mv	a1,s0
 1004c64:	8656                	mv	a2,s5
 1004c66:	8552                	mv	a0,s4
 1004c68:	874ff0ef          	jal	ra,1003cdc <__spl_start+0x27ec>
 1004c6c:	4405                	li	s0,1
 1004c6e:	4932                	lw	s2,12(sp)
 1004c70:	8656                	mv	a2,s5
 1004c72:	8552                	mv	a0,s4
 1004c74:	85ca                	mv	a1,s2
 1004c76:	866ff0ef          	jal	ra,1003cdc <__spl_start+0x27ec>
 1004c7a:	3575                	addiw	a0,a0,-3
 1004c7c:	fea479e3          	bgeu	s0,a0,1004c6e <__spl_start+0x377e>
 1004c80:	008a2783          	lw	a5,8(s4) # ff0008 <_start-0xfff8>
 1004c84:	00ff06b7          	lui	a3,0xff0
 1004c88:	00448a9b          	addiw	s5,s1,4
 1004c8c:	0187d71b          	srliw	a4,a5,0x18
 1004c90:	0187941b          	slliw	s0,a5,0x18
 1004c94:	8c59                	or	s0,s0,a4
 1004c96:	0087971b          	slliw	a4,a5,0x8
 1004c9a:	8f75                	and	a4,a4,a3
 1004c9c:	8c59                	or	s0,s0,a4
 1004c9e:	6741                	lui	a4,0x10
 1004ca0:	0087d79b          	srliw	a5,a5,0x8
 1004ca4:	f0070713          	addi	a4,a4,-256 # ff00 <_start-0xff0100>
 1004ca8:	8ff9                	and	a5,a5,a4
 1004caa:	8c5d                	or	s0,s0,a5
 1004cac:	1402                	slli	s0,s0,0x20
 1004cae:	9001                	srli	s0,s0,0x20
 1004cb0:	944a                	add	s0,s0,s2
 1004cb2:	ffcafa93          	andi	s5,s5,-4
 1004cb6:	9452                	add	s0,s0,s4
 1004cb8:	2aa1                	addiw	s5,s5,8
 1004cba:	86d6                	mv	a3,s5
 1004cbc:	4601                	li	a2,0
 1004cbe:	85a2                	mv	a1,s0
 1004cc0:	8552                	mv	a0,s4
 1004cc2:	a43ff0ef          	jal	ra,1004704 <__spl_start+0x3214>
 1004cc6:	e905                	bnez	a0,1004cf6 <__spl_start+0x3806>
 1004cc8:	010007b7          	lui	a5,0x1000
 1004ccc:	00440a13          	addi	s4,s0,4
 1004cd0:	00448613          	addi	a2,s1,4
 1004cd4:	c01c                	sw	a5,0(s0)
 1004cd6:	9a71                	andi	a2,a2,-4
 1004cd8:	4581                	li	a1,0
 1004cda:	8552                	mv	a0,s4
 1004cdc:	fd5fc0ef          	jal	ra,1001cb0 <__spl_start+0x7c0>
 1004ce0:	8626                	mv	a2,s1
 1004ce2:	85ce                	mv	a1,s3
 1004ce4:	8552                	mv	a0,s4
 1004ce6:	96afd0ef          	jal	ra,1001e50 <__spl_start+0x960>
 1004cea:	9456                	add	s0,s0,s5
 1004cec:	020007b7          	lui	a5,0x2000
 1004cf0:	fef42e23          	sw	a5,-4(s0)
 1004cf4:	854a                	mv	a0,s2
 1004cf6:	60a6                	ld	ra,72(sp)
 1004cf8:	6406                	ld	s0,64(sp)
 1004cfa:	74e2                	ld	s1,56(sp)
 1004cfc:	7942                	ld	s2,48(sp)
 1004cfe:	79a2                	ld	s3,40(sp)
 1004d00:	7a02                	ld	s4,32(sp)
 1004d02:	6ae2                	ld	s5,24(sp)
 1004d04:	6161                	addi	sp,sp,80
 1004d06:	8082                	ret
 1004d08:	5579                	li	a0,-2
 1004d0a:	b7f5                	j	1004cf6 <__spl_start+0x3806>
 1004d0c:	1101                	addi	sp,sp,-32
 1004d0e:	e822                	sd	s0,16(sp)
 1004d10:	842a                	mv	s0,a0
 1004d12:	8532                	mv	a0,a2
 1004d14:	ec06                	sd	ra,24(sp)
 1004d16:	e42e                	sd	a1,8(sp)
 1004d18:	e032                	sd	a2,0(sp)
 1004d1a:	496000ef          	jal	ra,10051b0 <__spl_start+0x3cc0>
 1004d1e:	0005069b          	sext.w	a3,a0
 1004d22:	8522                	mv	a0,s0
 1004d24:	6442                	ld	s0,16(sp)
 1004d26:	6602                	ld	a2,0(sp)
 1004d28:	65a2                	ld	a1,8(sp)
 1004d2a:	60e2                	ld	ra,24(sp)
 1004d2c:	6105                	addi	sp,sp,32
 1004d2e:	b729                	j	1004c38 <__spl_start+0x3748>
 1004d30:	1101                	addi	sp,sp,-32
 1004d32:	0074                	addi	a3,sp,12
 1004d34:	ec06                	sd	ra,24(sp)
 1004d36:	ed2ff0ef          	jal	ra,1004408 <__spl_start+0x2f18>
 1004d3a:	4732                	lw	a4,12(sp)
 1004d3c:	e509                	bnez	a0,1004d46 <__spl_start+0x3856>
 1004d3e:	853a                	mv	a0,a4
 1004d40:	60e2                	ld	ra,24(sp)
 1004d42:	6105                	addi	sp,sp,32
 1004d44:	8082                	ret
 1004d46:	4691                	li	a3,4
 1004d48:	87aa                	mv	a5,a0
 1004d4a:	0007061b          	sext.w	a2,a4
 1004d4e:	5549                	li	a0,-14
 1004d50:	fed718e3          	bne	a4,a3,1004d40 <__spl_start+0x3850>
 1004d54:	4398                	lw	a4,0(a5)
 1004d56:	00ff05b7          	lui	a1,0xff0
 1004d5a:	0187569b          	srliw	a3,a4,0x18
 1004d5e:	0187179b          	slliw	a5,a4,0x18
 1004d62:	8fd5                	or	a5,a5,a3
 1004d64:	0087169b          	slliw	a3,a4,0x8
 1004d68:	8eed                	and	a3,a3,a1
 1004d6a:	8fd5                	or	a5,a5,a3
 1004d6c:	66c1                	lui	a3,0x10
 1004d6e:	0087571b          	srliw	a4,a4,0x8
 1004d72:	f0068693          	addi	a3,a3,-256 # ff00 <_start-0xff0100>
 1004d76:	8f75                	and	a4,a4,a3
 1004d78:	8fd9                	or	a5,a5,a4
 1004d7a:	2781                	sext.w	a5,a5
 1004d7c:	fcf662e3          	bltu	a2,a5,1004d40 <__spl_start+0x3850>
 1004d80:	0007851b          	sext.w	a0,a5
 1004d84:	bf75                	j	1004d40 <__spl_start+0x3850>
 1004d86:	1141                	addi	sp,sp,-16
 1004d88:	00004617          	auipc	a2,0x4
 1004d8c:	e2060613          	addi	a2,a2,-480 # 1008ba8 <__spl_start+0x76b8>
 1004d90:	e406                	sd	ra,8(sp)
 1004d92:	f9fff0ef          	jal	ra,1004d30 <__spl_start+0x3840>
 1004d96:	c901                	beqz	a0,1004da6 <__spl_start+0x38b6>
 1004d98:	57fd                	li	a5,-1
 1004d9a:	00f51363          	bne	a0,a5,1004da0 <__spl_start+0x38b0>
 1004d9e:	4509                	li	a0,2
 1004da0:	60a2                	ld	ra,8(sp)
 1004da2:	0141                	addi	sp,sp,16
 1004da4:	8082                	ret
 1004da6:	5549                	li	a0,-14
 1004da8:	bfe5                	j	1004da0 <__spl_start+0x38b0>
 1004daa:	1141                	addi	sp,sp,-16
 1004dac:	00004617          	auipc	a2,0x4
 1004db0:	ee460613          	addi	a2,a2,-284 # 1008c90 <__spl_start+0x77a0>
 1004db4:	e406                	sd	ra,8(sp)
 1004db6:	f7bff0ef          	jal	ra,1004d30 <__spl_start+0x3840>
 1004dba:	57fd                	li	a5,-1
 1004dbc:	00f51363          	bne	a0,a5,1004dc2 <__spl_start+0x38d2>
 1004dc0:	4505                	li	a0,1
 1004dc2:	60a2                	ld	ra,8(sp)
 1004dc4:	0141                	addi	sp,sp,16
 1004dc6:	8082                	ret
 1004dc8:	1101                	addi	sp,sp,-32
 1004dca:	e822                	sd	s0,16(sp)
 1004dcc:	8436                	mv	s0,a3
 1004dce:	0074                	addi	a3,sp,12
 1004dd0:	ec06                	sd	ra,24(sp)
 1004dd2:	e36ff0ef          	jal	ra,1004408 <__spl_start+0x2f18>
 1004dd6:	c90d                	beqz	a0,1004e08 <__spl_start+0x3918>
 1004dd8:	4732                	lw	a4,12(sp)
 1004dda:	478d                	li	a5,3
 1004ddc:	02e7f663          	bgeu	a5,a4,1004e08 <__spl_start+0x3918>
 1004de0:	411c                	lw	a5,0(a0)
 1004de2:	00ff06b7          	lui	a3,0xff0
 1004de6:	0187d71b          	srliw	a4,a5,0x18
 1004dea:	0187941b          	slliw	s0,a5,0x18
 1004dee:	8c59                	or	s0,s0,a4
 1004df0:	0087971b          	slliw	a4,a5,0x8
 1004df4:	8f75                	and	a4,a4,a3
 1004df6:	8c59                	or	s0,s0,a4
 1004df8:	6741                	lui	a4,0x10
 1004dfa:	0087d79b          	srliw	a5,a5,0x8
 1004dfe:	f0070713          	addi	a4,a4,-256 # ff00 <_start-0xff0100>
 1004e02:	8ff9                	and	a5,a5,a4
 1004e04:	8c5d                	or	s0,s0,a5
 1004e06:	2401                	sext.w	s0,s0
 1004e08:	60e2                	ld	ra,24(sp)
 1004e0a:	8522                	mv	a0,s0
 1004e0c:	6442                	ld	s0,16(sp)
 1004e0e:	6105                	addi	sp,sp,32
 1004e10:	8082                	ret
 1004e12:	7179                	addi	sp,sp,-48
 1004e14:	ec26                	sd	s1,24(sp)
 1004e16:	84b6                	mv	s1,a3
 1004e18:	0074                	addi	a3,sp,12
 1004e1a:	f022                	sd	s0,32(sp)
 1004e1c:	f406                	sd	ra,40(sp)
 1004e1e:	843a                	mv	s0,a4
 1004e20:	de8ff0ef          	jal	ra,1004408 <__spl_start+0x2f18>
 1004e24:	57fd                	li	a5,-1
 1004e26:	c511                	beqz	a0,1004e32 <__spl_start+0x3942>
 1004e28:	4732                	lw	a4,12(sp)
 1004e2a:	4781                	li	a5,0
 1004e2c:	00975363          	bge	a4,s1,1004e32 <__spl_start+0x3942>
 1004e30:	57d1                	li	a5,-12
 1004e32:	70a2                	ld	ra,40(sp)
 1004e34:	c01c                	sw	a5,0(s0)
 1004e36:	7402                	ld	s0,32(sp)
 1004e38:	64e2                	ld	s1,24(sp)
 1004e3a:	6145                	addi	sp,sp,48
 1004e3c:	8082                	ret
 1004e3e:	1141                	addi	sp,sp,-16
 1004e40:	4681                	li	a3,0
 1004e42:	00004617          	auipc	a2,0x4
 1004e46:	ea660613          	addi	a2,a2,-346 # 1008ce8 <__spl_start+0x77f8>
 1004e4a:	e406                	sd	ra,8(sp)
 1004e4c:	dbcff0ef          	jal	ra,1004408 <__spl_start+0x2f18>
 1004e50:	cd01                	beqz	a0,1004e68 <__spl_start+0x3978>
 1004e52:	00004597          	auipc	a1,0x4
 1004e56:	e9e58593          	addi	a1,a1,-354 # 1008cf0 <__spl_start+0x7800>
 1004e5a:	31e000ef          	jal	ra,1005178 <__spl_start+0x3c88>
 1004e5e:	00153513          	seqz	a0,a0
 1004e62:	60a2                	ld	ra,8(sp)
 1004e64:	0141                	addi	sp,sp,16
 1004e66:	8082                	ret
 1004e68:	4505                	li	a0,1
 1004e6a:	bfe5                	j	1004e62 <__spl_start+0x3972>
 1004e6c:	1101                	addi	sp,sp,-32
 1004e6e:	ec06                	sd	ra,24(sp)
 1004e70:	e822                	sd	s0,16(sp)
 1004e72:	e42e                	sd	a1,8(sp)
 1004e74:	c10d                	beqz	a0,1004e96 <__spl_start+0x39a6>
 1004e76:	00004597          	auipc	a1,0x4
 1004e7a:	e6258593          	addi	a1,a1,-414 # 1008cd8 <__spl_start+0x77e8>
 1004e7e:	842a                	mv	s0,a0
 1004e80:	e98ff0ef          	jal	ra,1004518 <__spl_start+0x3028>
 1004e84:	85aa                	mv	a1,a0
 1004e86:	8522                	mv	a0,s0
 1004e88:	6442                	ld	s0,16(sp)
 1004e8a:	6622                	ld	a2,8(sp)
 1004e8c:	60e2                	ld	ra,24(sp)
 1004e8e:	4681                	li	a3,0
 1004e90:	6105                	addi	sp,sp,32
 1004e92:	d76ff06f          	j	1004408 <__spl_start+0x2f18>
 1004e96:	60e2                	ld	ra,24(sp)
 1004e98:	6442                	ld	s0,16(sp)
 1004e9a:	6105                	addi	sp,sp,32
 1004e9c:	8082                	ret
 1004e9e:	1141                	addi	sp,sp,-16
 1004ea0:	e406                	sd	ra,8(sp)
 1004ea2:	0d81b503          	ld	a0,216(gp)
 1004ea6:	e919                	bnez	a0,1004ebc <__spl_start+0x39cc>
 1004ea8:	00004517          	auipc	a0,0x4
 1004eac:	e5050513          	addi	a0,a0,-432 # 1008cf8 <__spl_start+0x7808>
 1004eb0:	8f2fe0ef          	jal	ra,1002fa2 <__spl_start+0x1ab2>
 1004eb4:	557d                	li	a0,-1
 1004eb6:	60a2                	ld	ra,8(sp)
 1004eb8:	0141                	addi	sp,sp,16
 1004eba:	8082                	ret
 1004ebc:	00357793          	andi	a5,a0,3
 1004ec0:	f7e5                	bnez	a5,1004ea8 <__spl_start+0x39b8>
 1004ec2:	d5ffe0ef          	jal	ra,1003c20 <__spl_start+0x2730>
 1004ec6:	d965                	beqz	a0,1004eb6 <__spl_start+0x39c6>
 1004ec8:	b7c5                	j	1004ea8 <__spl_start+0x39b8>
 1004eca:	7179                	addi	sp,sp,-48
 1004ecc:	f022                	sd	s0,32(sp)
 1004ece:	ec26                	sd	s1,24(sp)
 1004ed0:	843a                	mv	s0,a4
 1004ed2:	84b6                	mv	s1,a3
 1004ed4:	0027169b          	slliw	a3,a4,0x2
 1004ed8:	0078                	addi	a4,sp,12
 1004eda:	f406                	sd	ra,40(sp)
 1004edc:	c602                	sw	zero,12(sp)
 1004ede:	f35ff0ef          	jal	ra,1004e12 <__spl_start+0x3922>
 1004ee2:	882a                	mv	a6,a0
 1004ee4:	4532                	lw	a0,12(sp)
 1004ee6:	c521                	beqz	a0,1004f2e <__spl_start+0x3a3e>
 1004ee8:	70a2                	ld	ra,40(sp)
 1004eea:	7402                	ld	s0,32(sp)
 1004eec:	64e2                	ld	s1,24(sp)
 1004eee:	6145                	addi	sp,sp,48
 1004ef0:	8082                	ret
 1004ef2:	00271613          	slli	a2,a4,0x2
 1004ef6:	00c807b3          	add	a5,a6,a2
 1004efa:	439c                	lw	a5,0(a5)
 1004efc:	00c485b3          	add	a1,s1,a2
 1004f00:	0705                	addi	a4,a4,1
 1004f02:	0187d89b          	srliw	a7,a5,0x18
 1004f06:	0187961b          	slliw	a2,a5,0x18
 1004f0a:	01166633          	or	a2,a2,a7
 1004f0e:	0087989b          	slliw	a7,a5,0x8
 1004f12:	0068f8b3          	and	a7,a7,t1
 1004f16:	0087d79b          	srliw	a5,a5,0x8
 1004f1a:	01166633          	or	a2,a2,a7
 1004f1e:	8ff5                	and	a5,a5,a3
 1004f20:	8fd1                	or	a5,a5,a2
 1004f22:	c19c                	sw	a5,0(a1)
 1004f24:	0007079b          	sext.w	a5,a4
 1004f28:	fc87c5e3          	blt	a5,s0,1004ef2 <__spl_start+0x3a02>
 1004f2c:	bf75                	j	1004ee8 <__spl_start+0x39f8>
 1004f2e:	66c1                	lui	a3,0x10
 1004f30:	4701                	li	a4,0
 1004f32:	00ff0337          	lui	t1,0xff0
 1004f36:	f0068693          	addi	a3,a3,-256 # ff00 <_start-0xff0100>
 1004f3a:	b7ed                	j	1004f24 <__spl_start+0x3a34>
 1004f3c:	7179                	addi	sp,sp,-48
 1004f3e:	ec26                	sd	s1,24(sp)
 1004f40:	84ae                	mv	s1,a1
 1004f42:	00004597          	auipc	a1,0x4
 1004f46:	d9e58593          	addi	a1,a1,-610 # 1008ce0 <__spl_start+0x77f0>
 1004f4a:	f022                	sd	s0,32(sp)
 1004f4c:	f406                	sd	ra,40(sp)
 1004f4e:	842a                	mv	s0,a0
 1004f50:	e432                	sd	a2,8(sp)
 1004f52:	dc6ff0ef          	jal	ra,1004518 <__spl_start+0x3028>
 1004f56:	66a2                	ld	a3,8(sp)
 1004f58:	00054a63          	bltz	a0,1004f6c <__spl_start+0x3a7c>
 1004f5c:	85aa                	mv	a1,a0
 1004f5e:	8522                	mv	a0,s0
 1004f60:	7402                	ld	s0,32(sp)
 1004f62:	70a2                	ld	ra,40(sp)
 1004f64:	8626                	mv	a2,s1
 1004f66:	64e2                	ld	s1,24(sp)
 1004f68:	6145                	addi	sp,sp,48
 1004f6a:	bdb9                	j	1004dc8 <__spl_start+0x38d8>
 1004f6c:	70a2                	ld	ra,40(sp)
 1004f6e:	7402                	ld	s0,32(sp)
 1004f70:	64e2                	ld	s1,24(sp)
 1004f72:	8536                	mv	a0,a3
 1004f74:	6145                	addi	sp,sp,48
 1004f76:	8082                	ret
 1004f78:	6841                	lui	a6,0x10
 1004f7a:	862a                	mv	a2,a0
 1004f7c:	58fd                	li	a7,-1
 1004f7e:	4501                	li	a0,0
 1004f80:	00ff0337          	lui	t1,0xff0
 1004f84:	f0080813          	addi	a6,a6,-256 # ff00 <_start-0xff0100>
 1004f88:	35fd                	addiw	a1,a1,-1
 1004f8a:	01159363          	bne	a1,a7,1004f90 <__spl_start+0x3aa0>
 1004f8e:	8082                	ret
 1004f90:	4218                	lw	a4,0(a2)
 1004f92:	02051693          	slli	a3,a0,0x20
 1004f96:	0611                	addi	a2,a2,4
 1004f98:	0187551b          	srliw	a0,a4,0x18
 1004f9c:	0187179b          	slliw	a5,a4,0x18
 1004fa0:	8fc9                	or	a5,a5,a0
 1004fa2:	0087151b          	slliw	a0,a4,0x8
 1004fa6:	00657533          	and	a0,a0,t1
 1004faa:	0087571b          	srliw	a4,a4,0x8
 1004fae:	8fc9                	or	a5,a5,a0
 1004fb0:	01077733          	and	a4,a4,a6
 1004fb4:	8fd9                	or	a5,a5,a4
 1004fb6:	1782                	slli	a5,a5,0x20
 1004fb8:	9381                	srli	a5,a5,0x20
 1004fba:	00d7e533          	or	a0,a5,a3
 1004fbe:	b7e9                	j	1004f88 <__spl_start+0x3a98>
 1004fc0:	7139                	addi	sp,sp,-64
 1004fc2:	ec4e                	sd	s3,24(sp)
 1004fc4:	89b6                	mv	s3,a3
 1004fc6:	0074                	addi	a3,sp,12
 1004fc8:	f822                	sd	s0,48(sp)
 1004fca:	f426                	sd	s1,40(sp)
 1004fcc:	f04a                	sd	s2,32(sp)
 1004fce:	fc06                	sd	ra,56(sp)
 1004fd0:	843a                	mv	s0,a4
 1004fd2:	84be                	mv	s1,a5
 1004fd4:	8942                	mv	s2,a6
 1004fd6:	c32ff0ef          	jal	ra,1004408 <__spl_start+0x2f18>
 1004fda:	c539                	beqz	a0,1005028 <__spl_start+0x3b38>
 1004fdc:	009406bb          	addw	a3,s0,s1
 1004fe0:	033686bb          	mulw	a3,a3,s3
 1004fe4:	47b2                	lw	a5,12(sp)
 1004fe6:	862a                	mv	a2,a0
 1004fe8:	00241993          	slli	s3,s0,0x2
 1004fec:	9bf1                	andi	a5,a5,-4
 1004fee:	963e                	add	a2,a2,a5
 1004ff0:	00249793          	slli	a5,s1,0x2
 1004ff4:	068a                	slli	a3,a3,0x2
 1004ff6:	9536                	add	a0,a0,a3
 1004ff8:	99aa                	add	s3,s3,a0
 1004ffa:	97ce                	add	a5,a5,s3
 1004ffc:	02f66663          	bltu	a2,a5,1005028 <__spl_start+0x3b38>
 1005000:	85a2                	mv	a1,s0
 1005002:	f77ff0ef          	jal	ra,1004f78 <__spl_start+0x3a88>
 1005006:	842a                	mv	s0,a0
 1005008:	00090863          	beqz	s2,1005018 <__spl_start+0x3b28>
 100500c:	85a6                	mv	a1,s1
 100500e:	854e                	mv	a0,s3
 1005010:	f69ff0ef          	jal	ra,1004f78 <__spl_start+0x3a88>
 1005014:	00a93023          	sd	a0,0(s2)
 1005018:	70e2                	ld	ra,56(sp)
 100501a:	8522                	mv	a0,s0
 100501c:	7442                	ld	s0,48(sp)
 100501e:	74a2                	ld	s1,40(sp)
 1005020:	7902                	ld	s2,32(sp)
 1005022:	69e2                	ld	s3,24(sp)
 1005024:	6121                	addi	sp,sp,64
 1005026:	8082                	ret
 1005028:	547d                	li	s0,-1
 100502a:	9001                	srli	s0,s0,0x20
 100502c:	b7f5                	j	1005018 <__spl_start+0x3b28>
 100502e:	715d                	addi	sp,sp,-80
 1005030:	e0a2                	sd	s0,64(sp)
 1005032:	f84a                	sd	s2,48(sp)
 1005034:	f44e                	sd	s3,40(sp)
 1005036:	f052                	sd	s4,32(sp)
 1005038:	ec56                	sd	s5,24(sp)
 100503a:	e85a                	sd	s6,16(sp)
 100503c:	e45e                	sd	s7,8(sp)
 100503e:	e486                	sd	ra,72(sp)
 1005040:	fc26                	sd	s1,56(sp)
 1005042:	842a                	mv	s0,a0
 1005044:	8bae                	mv	s7,a1
 1005046:	8932                	mv	s2,a2
 1005048:	89b6                	mv	s3,a3
 100504a:	8a3a                	mv	s4,a4
 100504c:	8abe                	mv	s5,a5
 100504e:	8b42                	mv	s6,a6
 1005050:	d37ff0ef          	jal	ra,1004d86 <__spl_start+0x3896>
 1005054:	02a05c63          	blez	a0,100508c <__spl_start+0x3b9c>
 1005058:	84aa                	mv	s1,a0
 100505a:	85de                	mv	a1,s7
 100505c:	8522                	mv	a0,s0
 100505e:	d4dff0ef          	jal	ra,1004daa <__spl_start+0x38ba>
 1005062:	87aa                	mv	a5,a0
 1005064:	02054463          	bltz	a0,100508c <__spl_start+0x3b9c>
 1005068:	8522                	mv	a0,s0
 100506a:	6406                	ld	s0,64(sp)
 100506c:	60a6                	ld	ra,72(sp)
 100506e:	6ba2                	ld	s7,8(sp)
 1005070:	88da                	mv	a7,s6
 1005072:	8856                	mv	a6,s5
 1005074:	6b42                	ld	s6,16(sp)
 1005076:	6ae2                	ld	s5,24(sp)
 1005078:	8726                	mv	a4,s1
 100507a:	86d2                	mv	a3,s4
 100507c:	74e2                	ld	s1,56(sp)
 100507e:	7a02                	ld	s4,32(sp)
 1005080:	864e                	mv	a2,s3
 1005082:	85ca                	mv	a1,s2
 1005084:	79a2                	ld	s3,40(sp)
 1005086:	7942                	ld	s2,48(sp)
 1005088:	6161                	addi	sp,sp,80
 100508a:	bf1d                	j	1004fc0 <__spl_start+0x3ad0>
 100508c:	60a6                	ld	ra,72(sp)
 100508e:	6406                	ld	s0,64(sp)
 1005090:	557d                	li	a0,-1
 1005092:	74e2                	ld	s1,56(sp)
 1005094:	7942                	ld	s2,48(sp)
 1005096:	79a2                	ld	s3,40(sp)
 1005098:	7a02                	ld	s4,32(sp)
 100509a:	6ae2                	ld	s5,24(sp)
 100509c:	6b42                	ld	s6,16(sp)
 100509e:	6ba2                	ld	s7,8(sp)
 10050a0:	9101                	srli	a0,a0,0x20
 10050a2:	6161                	addi	sp,sp,80
 10050a4:	8082                	ret
 10050a6:	4501                	li	a0,0
 10050a8:	8082                	ret
 10050aa:	1141                	addi	sp,sp,-16
 10050ac:	e406                	sd	ra,8(sp)
 10050ae:	00007797          	auipc	a5,0x7
 10050b2:	1127b783          	ld	a5,274(a5) # 100c1c0 <__spl_start+0xacd0>
 10050b6:	639c                	ld	a5,0(a5)
 10050b8:	0cf1bc23          	sd	a5,216(gp)
 10050bc:	de3ff0ef          	jal	ra,1004e9e <__spl_start+0x39ae>
 10050c0:	e911                	bnez	a0,10050d4 <__spl_start+0x3be4>
 10050c2:	60a2                	ld	ra,8(sp)
 10050c4:	0d81b503          	ld	a0,216(gp)
 10050c8:	00007317          	auipc	t1,0x7
 10050cc:	12833303          	ld	t1,296(t1) # 100c1f0 <__spl_start+0xad00>
 10050d0:	0141                	addi	sp,sp,16
 10050d2:	8302                	jr	t1
 10050d4:	60a2                	ld	ra,8(sp)
 10050d6:	0141                	addi	sp,sp,16
 10050d8:	8082                	ret
 10050da:	1141                	addi	sp,sp,-16
 10050dc:	00004517          	auipc	a0,0x4
 10050e0:	d5c50513          	addi	a0,a0,-676 # 1008e38 <__spl_start+0x7948>
 10050e4:	e406                	sd	ra,8(sp)
 10050e6:	ebdfd0ef          	jal	ra,1002fa2 <__spl_start+0x1ab2>
 10050ea:	5509                	li	a0,-30
 10050ec:	e75fc0ef          	jal	ra,1001f60 <__spl_start+0xa70>
 10050f0:	a001                	j	10050f0 <__spl_start+0x3c00>
 10050f2:	c625                	beqz	a2,100515a <__spl_start+0x3c6a>
 10050f4:	4681                	li	a3,0
 10050f6:	00007897          	auipc	a7,0x7
 10050fa:	0828b883          	ld	a7,130(a7) # 100c178 <__spl_start+0xac88>
 10050fe:	00d507b3          	add	a5,a0,a3
 1005102:	0007c703          	lbu	a4,0(a5)
 1005106:	00d587b3          	add	a5,a1,a3
 100510a:	0007c783          	lbu	a5,0(a5)
 100510e:	c339                	beqz	a4,1005154 <__spl_start+0x3c64>
 1005110:	c3b1                	beqz	a5,1005154 <__spl_start+0x3c64>
 1005112:	02f70d63          	beq	a4,a5,100514c <__spl_start+0x3c5c>
 1005116:	00e88833          	add	a6,a7,a4
 100511a:	00084803          	lbu	a6,0(a6)
 100511e:	00187813          	andi	a6,a6,1
 1005122:	00080663          	beqz	a6,100512e <__spl_start+0x3c3e>
 1005126:	0207071b          	addiw	a4,a4,32
 100512a:	0ff77713          	andi	a4,a4,255
 100512e:	0007881b          	sext.w	a6,a5
 1005132:	9846                	add	a6,a6,a7
 1005134:	00084803          	lbu	a6,0(a6)
 1005138:	00187813          	andi	a6,a6,1
 100513c:	00080663          	beqz	a6,1005148 <__spl_start+0x3c58>
 1005140:	0207879b          	addiw	a5,a5,32
 1005144:	0ff7f793          	andi	a5,a5,255
 1005148:	00e79663          	bne	a5,a4,1005154 <__spl_start+0x3c64>
 100514c:	0685                	addi	a3,a3,1
 100514e:	fac698e3          	bne	a3,a2,10050fe <__spl_start+0x3c0e>
 1005152:	87ba                	mv	a5,a4
 1005154:	40f7053b          	subw	a0,a4,a5
 1005158:	8082                	ret
 100515a:	4781                	li	a5,0
 100515c:	4701                	li	a4,0
 100515e:	bfdd                	j	1005154 <__spl_start+0x3c64>
 1005160:	567d                	li	a2,-1
 1005162:	9201                	srli	a2,a2,0x20
 1005164:	b779                	j	10050f2 <__spl_start+0x3c02>
 1005166:	87aa                	mv	a5,a0
 1005168:	0005c703          	lbu	a4,0(a1)
 100516c:	0585                	addi	a1,a1,1
 100516e:	0785                	addi	a5,a5,1
 1005170:	fee78fa3          	sb	a4,-1(a5)
 1005174:	fb75                	bnez	a4,1005168 <__spl_start+0x3c78>
 1005176:	8082                	ret
 1005178:	872a                	mv	a4,a0
 100517a:	00074683          	lbu	a3,0(a4)
 100517e:	0005c783          	lbu	a5,0(a1)
 1005182:	0585                	addi	a1,a1,1
 1005184:	40f687bb          	subw	a5,a3,a5
 1005188:	0187951b          	slliw	a0,a5,0x18
 100518c:	4185551b          	sraiw	a0,a0,0x18
 1005190:	e119                	bnez	a0,1005196 <__spl_start+0x3ca6>
 1005192:	0705                	addi	a4,a4,1
 1005194:	f2fd                	bnez	a3,100517a <__spl_start+0x3c8a>
 1005196:	8082                	ret
 1005198:	0ff5f593          	andi	a1,a1,255
 100519c:	00054783          	lbu	a5,0(a0)
 10051a0:	00b79363          	bne	a5,a1,10051a6 <__spl_start+0x3cb6>
 10051a4:	8082                	ret
 10051a6:	c399                	beqz	a5,10051ac <__spl_start+0x3cbc>
 10051a8:	0505                	addi	a0,a0,1
 10051aa:	bfcd                	j	100519c <__spl_start+0x3cac>
 10051ac:	4501                	li	a0,0
 10051ae:	8082                	ret
 10051b0:	87aa                	mv	a5,a0
 10051b2:	0007c703          	lbu	a4,0(a5)
 10051b6:	e701                	bnez	a4,10051be <__spl_start+0x3cce>
 10051b8:	40a78533          	sub	a0,a5,a0
 10051bc:	8082                	ret
 10051be:	0785                	addi	a5,a5,1
 10051c0:	bfcd                	j	10051b2 <__spl_start+0x3cc2>
 10051c2:	95aa                	add	a1,a1,a0
 10051c4:	87aa                	mv	a5,a0
 10051c6:	00b78563          	beq	a5,a1,10051d0 <__spl_start+0x3ce0>
 10051ca:	0007c703          	lbu	a4,0(a5)
 10051ce:	e701                	bnez	a4,10051d6 <__spl_start+0x3ce6>
 10051d0:	40a78533          	sub	a0,a5,a0
 10051d4:	8082                	ret
 10051d6:	0785                	addi	a5,a5,1
 10051d8:	b7fd                	j	10051c6 <__spl_start+0x3cd6>
 10051da:	86aa                	mv	a3,a0
 10051dc:	4701                	li	a4,0
 10051de:	00e61463          	bne	a2,a4,10051e6 <__spl_start+0x3cf6>
 10051e2:	4501                	li	a0,0
 10051e4:	a829                	j	10051fe <__spl_start+0x3d0e>
 10051e6:	00e687b3          	add	a5,a3,a4
 10051ea:	00e58533          	add	a0,a1,a4
 10051ee:	0007c783          	lbu	a5,0(a5)
 10051f2:	00054503          	lbu	a0,0(a0)
 10051f6:	0705                	addi	a4,a4,1
 10051f8:	40a7853b          	subw	a0,a5,a0
 10051fc:	d16d                	beqz	a0,10051de <__spl_start+0x3cee>
 10051fe:	8082                	ret
 1005200:	962a                	add	a2,a2,a0
 1005202:	0ff5f593          	andi	a1,a1,255
 1005206:	00c51463          	bne	a0,a2,100520e <__spl_start+0x3d1e>
 100520a:	4501                	li	a0,0
 100520c:	8082                	ret
 100520e:	00054703          	lbu	a4,0(a0)
 1005212:	00150793          	addi	a5,a0,1
 1005216:	feb70be3          	beq	a4,a1,100520c <__spl_start+0x3d1c>
 100521a:	853e                	mv	a0,a5
 100521c:	b7ed                	j	1005206 <__spl_start+0x3d16>
 100521e:	0d01b783          	ld	a5,208(gp)
 1005222:	ef99                	bnez	a5,1005240 <__spl_start+0x3d50>
 1005224:	1141                	addi	sp,sp,-16
 1005226:	e406                	sd	ra,8(sp)
 1005228:	1f0030ef          	jal	ra,1008418 <__spl_start+0x6f28>
 100522c:	e519                	bnez	a0,100523a <__spl_start+0x3d4a>
 100522e:	60a2                	ld	ra,8(sp)
 1005230:	0d01b503          	ld	a0,208(gp)
 1005234:	0141                	addi	sp,sp,16
 1005236:	1a20306f          	j	10083d8 <__spl_start+0x6ee8>
 100523a:	60a2                	ld	ra,8(sp)
 100523c:	0141                	addi	sp,sp,16
 100523e:	8082                	ret
 1005240:	0d01b503          	ld	a0,208(gp)
 1005244:	bfcd                	j	1005236 <__spl_start+0x3d46>
 1005246:	1101                	addi	sp,sp,-32
 1005248:	ec06                	sd	ra,24(sp)
 100524a:	0d01b783          	ld	a5,208(gp)
 100524e:	eb89                	bnez	a5,1005260 <__spl_start+0x3d70>
 1005250:	1c8030ef          	jal	ra,1008418 <__spl_start+0x6f28>
 1005254:	85aa                	mv	a1,a0
 1005256:	00004517          	auipc	a0,0x4
 100525a:	b5a50513          	addi	a0,a0,-1190 # 1008db0 <__spl_start+0x78c0>
 100525e:	ed81                	bnez	a1,1005276 <__spl_start+0x3d86>
 1005260:	0d01b503          	ld	a0,208(gp)
 1005264:	002c                	addi	a1,sp,8
 1005266:	14e030ef          	jal	ra,10083b4 <__spl_start+0x6ec4>
 100526a:	85aa                	mv	a1,a0
 100526c:	c519                	beqz	a0,100527a <__spl_start+0x3d8a>
 100526e:	00004517          	auipc	a0,0x4
 1005272:	b6a50513          	addi	a0,a0,-1174 # 1008dd8 <__spl_start+0x78e8>
 1005276:	0fc000ef          	jal	ra,1005372 <__spl_start+0x3e82>
 100527a:	60e2                	ld	ra,24(sp)
 100527c:	6522                	ld	a0,8(sp)
 100527e:	6105                	addi	sp,sp,32
 1005280:	8082                	ret
 1005282:	4501                	li	a0,0
 1005284:	8082                	ret
 1005286:	1101                	addi	sp,sp,-32
 1005288:	ec06                	sd	ra,24(sp)
 100528a:	e822                	sd	s0,16(sp)
 100528c:	e426                	sd	s1,8(sp)
 100528e:	84aa                	mv	s1,a0
 1005290:	fb7ff0ef          	jal	ra,1005246 <__spl_start+0x3d56>
 1005294:	842a                	mv	s0,a0
 1005296:	f89ff0ef          	jal	ra,100521e <__spl_start+0x3d2e>
 100529a:	3e800793          	li	a5,1000
 100529e:	02f40433          	mul	s0,s0,a5
 10052a2:	1502                	slli	a0,a0,0x20
 10052a4:	9101                	srli	a0,a0,0x20
 10052a6:	60e2                	ld	ra,24(sp)
 10052a8:	02a45533          	divu	a0,s0,a0
 10052ac:	6442                	ld	s0,16(sp)
 10052ae:	8d05                	sub	a0,a0,s1
 10052b0:	64a2                	ld	s1,8(sp)
 10052b2:	6105                	addi	sp,sp,32
 10052b4:	8082                	ret
 10052b6:	1141                	addi	sp,sp,-16
 10052b8:	e022                	sd	s0,0(sp)
 10052ba:	e406                	sd	ra,8(sp)
 10052bc:	842a                	mv	s0,a0
 10052be:	f61ff0ef          	jal	ra,100521e <__spl_start+0x3d2e>
 10052c2:	02a40433          	mul	s0,s0,a0
 10052c6:	000f4537          	lui	a0,0xf4
 10052ca:	24050513          	addi	a0,a0,576 # f4240 <_start-0xf0bdc0>
 10052ce:	60a2                	ld	ra,8(sp)
 10052d0:	02a45533          	divu	a0,s0,a0
 10052d4:	6402                	ld	s0,0(sp)
 10052d6:	0141                	addi	sp,sp,16
 10052d8:	8082                	ret
 10052da:	1101                	addi	sp,sp,-32
 10052dc:	ec06                	sd	ra,24(sp)
 10052de:	e822                	sd	s0,16(sp)
 10052e0:	e426                	sd	s1,8(sp)
 10052e2:	84aa                	mv	s1,a0
 10052e4:	f63ff0ef          	jal	ra,1005246 <__spl_start+0x3d56>
 10052e8:	842a                	mv	s0,a0
 10052ea:	8526                	mv	a0,s1
 10052ec:	fcbff0ef          	jal	ra,10052b6 <__spl_start+0x3dc6>
 10052f0:	942a                	add	s0,s0,a0
 10052f2:	0405                	addi	s0,s0,1
 10052f4:	f53ff0ef          	jal	ra,1005246 <__spl_start+0x3d56>
 10052f8:	fe856ee3          	bltu	a0,s0,10052f4 <__spl_start+0x3e04>
 10052fc:	60e2                	ld	ra,24(sp)
 10052fe:	6442                	ld	s0,16(sp)
 1005300:	64a2                	ld	s1,8(sp)
 1005302:	6105                	addi	sp,sp,32
 1005304:	8082                	ret
 1005306:	7179                	addi	sp,sp,-48
 1005308:	ec26                	sd	s1,24(sp)
 100530a:	009894b7          	lui	s1,0x989
 100530e:	f022                	sd	s0,32(sp)
 1005310:	e44e                	sd	s3,8(sp)
 1005312:	f406                	sd	ra,40(sp)
 1005314:	e84a                	sd	s2,16(sp)
 1005316:	842a                	mv	s0,a0
 1005318:	68048493          	addi	s1,s1,1664 # 989680 <_start-0x676980>
 100531c:	00007997          	auipc	s3,0x7
 1005320:	dbc9b983          	ld	s3,-580(s3) # 100c0d8 <__spl_start+0xabe8>
 1005324:	8922                	mv	s2,s0
 1005326:	0084f363          	bgeu	s1,s0,100532c <__spl_start+0x3e3c>
 100532a:	8926                	mv	s2,s1
 100532c:	854a                	mv	a0,s2
 100532e:	41240433          	sub	s0,s0,s2
 1005332:	9982                	jalr	s3
 1005334:	f865                	bnez	s0,1005324 <__spl_start+0x3e34>
 1005336:	70a2                	ld	ra,40(sp)
 1005338:	7402                	ld	s0,32(sp)
 100533a:	64e2                	ld	s1,24(sp)
 100533c:	6942                	ld	s2,16(sp)
 100533e:	69a2                	ld	s3,8(sp)
 1005340:	6145                	addi	sp,sp,48
 1005342:	8082                	ret
 1005344:	1141                	addi	sp,sp,-16
 1005346:	4529                	li	a0,10
 1005348:	e406                	sd	ra,8(sp)
 100534a:	c21fd0ef          	jal	ra,1002f6a <__spl_start+0x1a7a>
 100534e:	6561                	lui	a0,0x18
 1005350:	6a050513          	addi	a0,a0,1696 # 186a0 <_start-0xfe7960>
 1005354:	fb3ff0ef          	jal	ra,1005306 <__spl_start+0x3e16>
 1005358:	4681                	li	a3,0
 100535a:	4601                	li	a2,0
 100535c:	4581                	li	a1,0
 100535e:	4501                	li	a0,0
 1005360:	ed4fc0ef          	jal	ra,1001a34 <__spl_start+0x544>
 1005364:	a001                	j	1005364 <__spl_start+0x3e74>
 1005366:	1141                	addi	sp,sp,-16
 1005368:	e406                	sd	ra,8(sp)
 100536a:	c39fd0ef          	jal	ra,1002fa2 <__spl_start+0x1ab2>
 100536e:	fd7ff0ef          	jal	ra,1005344 <__spl_start+0x3e54>
 1005372:	711d                	addi	sp,sp,-96
 1005374:	f42e                	sd	a1,40(sp)
 1005376:	102c                	addi	a1,sp,40
 1005378:	ec06                	sd	ra,24(sp)
 100537a:	f832                	sd	a2,48(sp)
 100537c:	fc36                	sd	a3,56(sp)
 100537e:	e0ba                	sd	a4,64(sp)
 1005380:	e4be                	sd	a5,72(sp)
 1005382:	e8c2                	sd	a6,80(sp)
 1005384:	ecc6                	sd	a7,88(sp)
 1005386:	e42e                	sd	a1,8(sp)
 1005388:	2ee000ef          	jal	ra,1005676 <__spl_start+0x4186>
 100538c:	fb9ff0ef          	jal	ra,1005344 <__spl_start+0x3e54>
 1005390:	4781                	li	a5,0
 1005392:	6198                	ld	a4,0(a1)
 1005394:	02c77863          	bgeu	a4,a2,10053c4 <__spl_start+0x3ed4>
 1005398:	00854703          	lbu	a4,8(a0)
 100539c:	8f5d                	or	a4,a4,a5
 100539e:	c315                	beqz	a4,10053c2 <__spl_start+0x3ed2>
 10053a0:	4725                	li	a4,9
 10053a2:	03000693          	li	a3,48
 10053a6:	00f77463          	bgeu	a4,a5,10053ae <__spl_start+0x3ebe>
 10053aa:	05700693          	li	a3,87
 10053ae:	6118                	ld	a4,0(a0)
 10053b0:	9fb5                	addw	a5,a5,a3
 10053b2:	00170613          	addi	a2,a4,1
 10053b6:	e110                	sd	a2,0(a0)
 10053b8:	00f70023          	sb	a5,0(a4)
 10053bc:	4785                	li	a5,1
 10053be:	00f50423          	sb	a5,8(a0)
 10053c2:	8082                	ret
 10053c4:	8f11                	sub	a4,a4,a2
 10053c6:	2785                	addiw	a5,a5,1
 10053c8:	e198                	sd	a4,0(a1)
 10053ca:	0ff7f793          	andi	a5,a5,255
 10053ce:	b7d1                	j	1005392 <__spl_start+0x3ea2>
 10053d0:	691c                	ld	a5,16(a0)
 10053d2:	00178713          	addi	a4,a5,1
 10053d6:	e918                	sd	a4,16(a0)
 10053d8:	00b78023          	sb	a1,0(a5)
 10053dc:	8082                	ret
 10053de:	852e                	mv	a0,a1
 10053e0:	b8bfd06f          	j	1002f6a <__spl_start+0x1a7a>
 10053e4:	7135                	addi	sp,sp,-160
 10053e6:	ecde                	sd	s7,88(sp)
 10053e8:	083c                	addi	a5,sp,24
 10053ea:	3b9adbb7          	lui	s7,0x3b9ad
 10053ee:	e922                	sd	s0,144(sp)
 10053f0:	e526                	sd	s1,136(sp)
 10053f2:	e14a                	sd	s2,128(sp)
 10053f4:	f8d2                	sd	s4,112(sp)
 10053f6:	f4d6                	sd	s5,104(sp)
 10053f8:	f0da                	sd	s6,96(sp)
 10053fa:	e8e2                	sd	s8,80(sp)
 10053fc:	e4e6                	sd	s9,72(sp)
 10053fe:	ed06                	sd	ra,152(sp)
 1005400:	fcce                	sd	s3,120(sp)
 1005402:	e0ea                	sd	s10,64(sp)
 1005404:	fc6e                	sd	s11,56(sp)
 1005406:	842a                	mv	s0,a0
 1005408:	84ae                	mv	s1,a1
 100540a:	8932                	mv	s2,a2
 100540c:	02500a93          	li	s5,37
 1005410:	02010b13          	addi	s6,sp,32
 1005414:	e43e                	sd	a5,8(sp)
 1005416:	a00b8c13          	addi	s8,s7,-1536 # 3b9aca00 <__soc_ctrl_scratch1+0x399ac9e8>
 100541a:	02110a13          	addi	s4,sp,33
 100541e:	00003c97          	auipc	s9,0x3
 1005422:	6dacbc83          	ld	s9,1754(s9) # 1008af8 <__spl_start+0x7608>
 1005426:	0004c583          	lbu	a1,0(s1)
 100542a:	00148993          	addi	s3,s1,1
 100542e:	e18d                	bnez	a1,1005450 <__spl_start+0x3f60>
 1005430:	60ea                	ld	ra,152(sp)
 1005432:	644a                	ld	s0,144(sp)
 1005434:	64aa                	ld	s1,136(sp)
 1005436:	690a                	ld	s2,128(sp)
 1005438:	79e6                	ld	s3,120(sp)
 100543a:	7a46                	ld	s4,112(sp)
 100543c:	7aa6                	ld	s5,104(sp)
 100543e:	7b06                	ld	s6,96(sp)
 1005440:	6be6                	ld	s7,88(sp)
 1005442:	6c46                	ld	s8,80(sp)
 1005444:	6ca6                	ld	s9,72(sp)
 1005446:	6d06                	ld	s10,64(sp)
 1005448:	7de2                	ld	s11,56(sp)
 100544a:	4501                	li	a0,0
 100544c:	610d                	addi	sp,sp,160
 100544e:	8082                	ret
 1005450:	01558763          	beq	a1,s5,100545e <__spl_start+0x3f6e>
 1005454:	6c1c                	ld	a5,24(s0)
 1005456:	8522                	mv	a0,s0
 1005458:	84ce                	mv	s1,s3
 100545a:	9782                	jalr	a5
 100545c:	b7e9                	j	1005426 <__spl_start+0x3f36>
 100545e:	0014c783          	lbu	a5,1(s1)
 1005462:	02d00693          	li	a3,45
 1005466:	06d78e63          	beq	a5,a3,10054e2 <__spl_start+0x3ff2>
 100546a:	0489                	addi	s1,s1,2
 100546c:	03000693          	li	a3,48
 1005470:	4d01                	li	s10,0
 1005472:	00d79663          	bne	a5,a3,100547e <__spl_start+0x3f8e>
 1005476:	0004c783          	lbu	a5,0(s1)
 100547a:	4d05                	li	s10,1
 100547c:	0485                	addi	s1,s1,1
 100547e:	fd07869b          	addiw	a3,a5,-48
 1005482:	0ff6f693          	andi	a3,a3,255
 1005486:	4625                	li	a2,9
 1005488:	4d81                	li	s11,0
 100548a:	02d66263          	bltu	a2,a3,10054ae <__spl_start+0x3fbe>
 100548e:	45a9                	li	a1,10
 1005490:	03b58dbb          	mulw	s11,a1,s11
 1005494:	0485                	addi	s1,s1,1
 1005496:	00fd8dbb          	addw	s11,s11,a5
 100549a:	fff4c783          	lbu	a5,-1(s1)
 100549e:	fd0d8d9b          	addiw	s11,s11,-48
 10054a2:	fd07869b          	addiw	a3,a5,-48
 10054a6:	0ff6f693          	andi	a3,a3,255
 10054aa:	fed673e3          	bgeu	a2,a3,1005490 <__spl_start+0x3fa0>
 10054ae:	06c00613          	li	a2,108
 10054b2:	4681                	li	a3,0
 10054b4:	00c79663          	bne	a5,a2,10054c0 <__spl_start+0x3fd0>
 10054b8:	0004c783          	lbu	a5,0(s1)
 10054bc:	4685                	li	a3,1
 10054be:	0485                	addi	s1,s1,1
 10054c0:	01643023          	sd	s6,0(s0)
 10054c4:	00040423          	sb	zero,8(s0)
 10054c8:	06900613          	li	a2,105
 10054cc:	02c78763          	beq	a5,a2,10054fa <__spl_start+0x400a>
 10054d0:	04f66f63          	bltu	a2,a5,100552e <__spl_start+0x403e>
 10054d4:	19578363          	beq	a5,s5,100565a <__spl_start+0x416a>
 10054d8:	00fae963          	bltu	s5,a5,10054ea <__spl_start+0x3ffa>
 10054dc:	dbb1                	beqz	a5,1005430 <__spl_start+0x3f40>
 10054de:	89da                	mv	s3,s6
 10054e0:	aa15                	j	1005614 <__spl_start+0x4124>
 10054e2:	0024c783          	lbu	a5,2(s1)
 10054e6:	048d                	addi	s1,s1,3
 10054e8:	b751                	j	100546c <__spl_start+0x3f7c>
 10054ea:	06300613          	li	a2,99
 10054ee:	10c78863          	beq	a5,a2,10055fe <__spl_start+0x410e>
 10054f2:	06400613          	li	a2,100
 10054f6:	fec794e3          	bne	a5,a2,10054de <__spl_start+0x3fee>
 10054fa:	00890993          	addi	s3,s2,8
 10054fe:	c2d1                	beqz	a3,1005582 <__spl_start+0x4092>
 1005500:	00093683          	ld	a3,0(s2)
 1005504:	07500613          	li	a2,117
 1005508:	8966                	mv	s2,s9
 100550a:	ec36                	sd	a3,24(sp)
 100550c:	0ac79663          	bne	a5,a2,10055b8 <__spl_start+0x40c8>
 1005510:	67e2                	ld	a5,24(sp)
 1005512:	cfdd                	beqz	a5,10055d0 <__spl_start+0x40e0>
 1005514:	65a2                	ld	a1,8(sp)
 1005516:	864a                	mv	a2,s2
 1005518:	8522                	mv	a0,s0
 100551a:	e77ff0ef          	jal	ra,1005390 <__spl_start+0x3ea0>
 100551e:	86ca                	mv	a3,s2
 1005520:	4829                	li	a6,10
 1005522:	47a5                	li	a5,9
 1005524:	03095933          	divu	s2,s2,a6
 1005528:	fed7e6e3          	bltu	a5,a3,1005514 <__spl_start+0x4024>
 100552c:	a86d                	j	10055e6 <__spl_start+0x40f6>
 100552e:	07300613          	li	a2,115
 1005532:	0cc78e63          	beq	a5,a2,100560e <__spl_start+0x411e>
 1005536:	02f66763          	bltu	a2,a5,1005564 <__spl_start+0x4074>
 100553a:	07000693          	li	a3,112
 100553e:	fad790e3          	bne	a5,a3,10054de <__spl_start+0x3fee>
 1005542:	4985                	li	s3,1
 1005544:	00093783          	ld	a5,0(s2)
 1005548:	19f2                	slli	s3,s3,0x3c
 100554a:	0921                	addi	s2,s2,8
 100554c:	ec3e                	sd	a5,24(sp)
 100554e:	efd1                	bnez	a5,10055ea <__spl_start+0x40fa>
 1005550:	03000793          	li	a5,48
 1005554:	02f10023          	sb	a5,32(sp)
 1005558:	4785                	li	a5,1
 100555a:	01443023          	sd	s4,0(s0)
 100555e:	00f40423          	sb	a5,8(s0)
 1005562:	bfb5                	j	10054de <__spl_start+0x3fee>
 1005564:	07500613          	li	a2,117
 1005568:	f8c789e3          	beq	a5,a2,10054fa <__spl_start+0x400a>
 100556c:	07800613          	li	a2,120
 1005570:	f6c797e3          	bne	a5,a2,10054de <__spl_start+0x3fee>
 1005574:	f6f9                	bnez	a3,1005542 <__spl_start+0x4052>
 1005576:	00096783          	lwu	a5,0(s2)
 100557a:	100009b7          	lui	s3,0x10000
 100557e:	0921                	addi	s2,s2,8
 1005580:	b7f1                	j	100554c <__spl_start+0x405c>
 1005582:	00092683          	lw	a3,0(s2)
 1005586:	8962                	mv	s2,s8
 1005588:	02069613          	slli	a2,a3,0x20
 100558c:	9201                	srli	a2,a2,0x20
 100558e:	ec32                	sd	a2,24(sp)
 1005590:	07500613          	li	a2,117
 1005594:	f6c78ee3          	beq	a5,a2,1005510 <__spl_start+0x4020>
 1005598:	0006879b          	sext.w	a5,a3
 100559c:	f606dae3          	bgez	a3,1005510 <__spl_start+0x4020>
 10055a0:	40f007bb          	negw	a5,a5
 10055a4:	ec3e                	sd	a5,24(sp)
 10055a6:	02d00793          	li	a5,45
 10055aa:	01443023          	sd	s4,0(s0)
 10055ae:	02f10023          	sb	a5,32(sp)
 10055b2:	a00b8913          	addi	s2,s7,-1536
 10055b6:	bfa9                	j	1005510 <__spl_start+0x4020>
 10055b8:	f406dce3          	bgez	a3,1005510 <__spl_start+0x4020>
 10055bc:	40d006b3          	neg	a3,a3
 10055c0:	02d00793          	li	a5,45
 10055c4:	ec36                	sd	a3,24(sp)
 10055c6:	01443023          	sd	s4,0(s0)
 10055ca:	02f10023          	sb	a5,32(sp)
 10055ce:	b789                	j	1005510 <__spl_start+0x4020>
 10055d0:	601c                	ld	a5,0(s0)
 10055d2:	00178693          	addi	a3,a5,1
 10055d6:	e014                	sd	a3,0(s0)
 10055d8:	03000693          	li	a3,48
 10055dc:	00d78023          	sb	a3,0(a5)
 10055e0:	4785                	li	a5,1
 10055e2:	00f40423          	sb	a5,8(s0)
 10055e6:	894e                	mv	s2,s3
 10055e8:	bddd                	j	10054de <__spl_start+0x3fee>
 10055ea:	65a2                	ld	a1,8(sp)
 10055ec:	864e                	mv	a2,s3
 10055ee:	8522                	mv	a0,s0
 10055f0:	0049d993          	srli	s3,s3,0x4
 10055f4:	d9dff0ef          	jal	ra,1005390 <__spl_start+0x3ea0>
 10055f8:	fe0999e3          	bnez	s3,10055ea <__spl_start+0x40fa>
 10055fc:	b5cd                	j	10054de <__spl_start+0x3fee>
 10055fe:	00094783          	lbu	a5,0(s2)
 1005602:	01443023          	sd	s4,0(s0)
 1005606:	0921                	addi	s2,s2,8
 1005608:	02f10023          	sb	a5,32(sp)
 100560c:	bdc9                	j	10054de <__spl_start+0x3fee>
 100560e:	00093983          	ld	s3,0(s2)
 1005612:	0921                	addi	s2,s2,8
 1005614:	601c                	ld	a5,0(s0)
 1005616:	00078023          	sb	zero,0(a5)
 100561a:	01343023          	sd	s3,0(s0)
 100561e:	601c                	ld	a5,0(s0)
 1005620:	00178693          	addi	a3,a5,1
 1005624:	e014                	sd	a3,0(s0)
 1005626:	0007c783          	lbu	a5,0(a5)
 100562a:	ef8d                	bnez	a5,1005664 <__spl_start+0x4174>
 100562c:	02000593          	li	a1,32
 1005630:	000d0463          	beqz	s10,1005638 <__spl_start+0x4148>
 1005634:	03000593          	li	a1,48
 1005638:	0ff5fd13          	andi	s10,a1,255
 100563c:	57fd                	li	a5,-1
 100563e:	3dfd                	addiw	s11,s11,-1
 1005640:	02fd9663          	bne	s11,a5,100566c <__spl_start+0x417c>
 1005644:	de0981e3          	beqz	s3,1005426 <__spl_start+0x3f36>
 1005648:	0009c583          	lbu	a1,0(s3) # 10000000 <__soc_ctrl_scratch1+0xdffffe8>
 100564c:	0985                	addi	s3,s3,1
 100564e:	dc058ce3          	beqz	a1,1005426 <__spl_start+0x3f36>
 1005652:	6c1c                	ld	a5,24(s0)
 1005654:	8522                	mv	a0,s0
 1005656:	9782                	jalr	a5
 1005658:	bfc5                	j	1005648 <__spl_start+0x4158>
 100565a:	01443023          	sd	s4,0(s0)
 100565e:	03510023          	sb	s5,32(sp)
 1005662:	bdb5                	j	10054de <__spl_start+0x3fee>
 1005664:	fc0d84e3          	beqz	s11,100562c <__spl_start+0x413c>
 1005668:	3dfd                	addiw	s11,s11,-1
 100566a:	bf55                	j	100561e <__spl_start+0x412e>
 100566c:	6c14                	ld	a3,24(s0)
 100566e:	85ea                	mv	a1,s10
 1005670:	8522                	mv	a0,s0
 1005672:	9682                	jalr	a3
 1005674:	b7e1                	j	100563c <__spl_start+0x414c>
 1005676:	7179                	addi	sp,sp,-48
 1005678:	862e                	mv	a2,a1
 100567a:	00000797          	auipc	a5,0x0
 100567e:	d6478793          	addi	a5,a5,-668 # 10053de <__spl_start+0x3eee>
 1005682:	85aa                	mv	a1,a0
 1005684:	850a                	mv	a0,sp
 1005686:	f406                	sd	ra,40(sp)
 1005688:	ec3e                	sd	a5,24(sp)
 100568a:	d5bff0ef          	jal	ra,10053e4 <__spl_start+0x3ef4>
 100568e:	70a2                	ld	ra,40(sp)
 1005690:	6145                	addi	sp,sp,48
 1005692:	8082                	ret
 1005694:	7119                	addi	sp,sp,-128
 1005696:	e4ae                	sd	a1,72(sp)
 1005698:	e8b2                	sd	a2,80(sp)
 100569a:	f4be                	sd	a5,104(sp)
 100569c:	00b0                	addi	a2,sp,72
 100569e:	00000797          	auipc	a5,0x0
 10056a2:	d4078793          	addi	a5,a5,-704 # 10053de <__spl_start+0x3eee>
 10056a6:	85aa                	mv	a1,a0
 10056a8:	0808                	addi	a0,sp,16
 10056aa:	fc06                	sd	ra,56(sp)
 10056ac:	ecb6                	sd	a3,88(sp)
 10056ae:	f0ba                	sd	a4,96(sp)
 10056b0:	f8c2                	sd	a6,112(sp)
 10056b2:	fcc6                	sd	a7,120(sp)
 10056b4:	f43e                	sd	a5,40(sp)
 10056b6:	e432                	sd	a2,8(sp)
 10056b8:	d2dff0ef          	jal	ra,10053e4 <__spl_start+0x3ef4>
 10056bc:	70e2                	ld	ra,56(sp)
 10056be:	6109                	addi	sp,sp,128
 10056c0:	8082                	ret
 10056c2:	7159                	addi	sp,sp,-112
 10056c4:	e0b2                	sd	a2,64(sp)
 10056c6:	ecbe                	sd	a5,88(sp)
 10056c8:	0090                	addi	a2,sp,64
 10056ca:	f02a                	sd	a0,32(sp)
 10056cc:	00000797          	auipc	a5,0x0
 10056d0:	d0478793          	addi	a5,a5,-764 # 10053d0 <__spl_start+0x3ee0>
 10056d4:	0808                	addi	a0,sp,16
 10056d6:	fc06                	sd	ra,56(sp)
 10056d8:	f43e                	sd	a5,40(sp)
 10056da:	e4b6                	sd	a3,72(sp)
 10056dc:	e8ba                	sd	a4,80(sp)
 10056de:	f0c2                	sd	a6,96(sp)
 10056e0:	f4c6                	sd	a7,104(sp)
 10056e2:	e432                	sd	a2,8(sp)
 10056e4:	d01ff0ef          	jal	ra,10053e4 <__spl_start+0x3ef4>
 10056e8:	7782                	ld	a5,32(sp)
 10056ea:	00078023          	sb	zero,0(a5)
 10056ee:	70e2                	ld	ra,56(sp)
 10056f0:	6165                	addi	sp,sp,112
 10056f2:	8082                	ret
 10056f4:	1101                	addi	sp,sp,-32
 10056f6:	e822                	sd	s0,16(sp)
 10056f8:	e426                	sd	s1,8(sp)
 10056fa:	00007417          	auipc	s0,0x7
 10056fe:	fae40413          	addi	s0,s0,-82 # 100c6a8 <__spl_start+0xb1b8>
 1005702:	00007497          	auipc	s1,0x7
 1005706:	fa648493          	addi	s1,s1,-90 # 100c6a8 <__spl_start+0xb1b8>
 100570a:	8c05                	sub	s0,s0,s1
 100570c:	00003797          	auipc	a5,0x3
 1005710:	3f47b783          	ld	a5,1012(a5) # 1008b00 <__spl_start+0x7610>
 1005714:	840d                	srai	s0,s0,0x3
 1005716:	02f4043b          	mulw	s0,s0,a5
 100571a:	02800793          	li	a5,40
 100571e:	e04a                	sd	s2,0(sp)
 1005720:	ec06                	sd	ra,24(sp)
 1005722:	892a                	mv	s2,a0
 1005724:	00050423          	sb	zero,8(a0)
 1005728:	02f40433          	mul	s0,s0,a5
 100572c:	9426                	add	s0,s0,s1
 100572e:	00848963          	beq	s1,s0,1005740 <__spl_start+0x4250>
 1005732:	709c                	ld	a5,32(s1)
 1005734:	854a                	mv	a0,s2
 1005736:	9782                	jalr	a5
 1005738:	e911                	bnez	a0,100574c <__spl_start+0x425c>
 100573a:	449c                	lw	a5,8(s1)
 100573c:	00f90423          	sb	a5,8(s2)
 1005740:	60e2                	ld	ra,24(sp)
 1005742:	6442                	ld	s0,16(sp)
 1005744:	64a2                	ld	s1,8(sp)
 1005746:	6902                	ld	s2,0(sp)
 1005748:	6105                	addi	sp,sp,32
 100574a:	8082                	ret
 100574c:	02848493          	addi	s1,s1,40
 1005750:	bff9                	j	100572e <__spl_start+0x423e>
 1005752:	0205f593          	andi	a1,a1,32
 1005756:	cd9d                	beqz	a1,1005794 <__spl_start+0x42a4>
 1005758:	1101                	addi	sp,sp,-32
 100575a:	e822                	sd	s0,16(sp)
 100575c:	01f5041b          	addiw	s0,a0,31
 1005760:	9801                	andi	s0,s0,-32
 1005762:	2401                	sext.w	s0,s0
 1005764:	85a2                	mv	a1,s0
 1005766:	02000513          	li	a0,32
 100576a:	e426                	sd	s1,8(sp)
 100576c:	ec06                	sd	ra,24(sp)
 100576e:	8d2fe0ef          	jal	ra,1003840 <__spl_start+0x2350>
 1005772:	84aa                	mv	s1,a0
 1005774:	c911                	beqz	a0,1005788 <__spl_start+0x4298>
 1005776:	4581                	li	a1,0
 1005778:	8622                	mv	a2,s0
 100577a:	d36fc0ef          	jal	ra,1001cb0 <__spl_start+0x7c0>
 100577e:	008485b3          	add	a1,s1,s0
 1005782:	8526                	mv	a0,s1
 1005784:	946fc0ef          	jal	ra,10018ca <__spl_start+0x3da>
 1005788:	60e2                	ld	ra,24(sp)
 100578a:	6442                	ld	s0,16(sp)
 100578c:	8526                	mv	a0,s1
 100578e:	64a2                	ld	s1,8(sp)
 1005790:	6105                	addi	sp,sp,32
 1005792:	8082                	ret
 1005794:	85aa                	mv	a1,a0
 1005796:	4505                	li	a0,1
 1005798:	fe7fd06f          	j	100377e <__spl_start+0x228e>
 100579c:	c111                	beqz	a0,10057a0 <__spl_start+0x42b0>
 100579e:	6908                	ld	a0,16(a0)
 10057a0:	8082                	ret
 10057a2:	c111                	beqz	a0,10057a6 <__spl_start+0x42b6>
 10057a4:	6d08                	ld	a0,24(a0)
 10057a6:	8082                	ret
 10057a8:	c111                	beqz	a0,10057ac <__spl_start+0x42bc>
 10057aa:	7108                	ld	a0,32(a0)
 10057ac:	8082                	ret
 10057ae:	c111                	beqz	a0,10057b2 <__spl_start+0x42c2>
 10057b0:	7d08                	ld	a0,56(a0)
 10057b2:	8082                	ret
 10057b4:	c111                	beqz	a0,10057b8 <__spl_start+0x42c8>
 10057b6:	6528                	ld	a0,72(a0)
 10057b8:	8082                	ret
 10057ba:	c111                	beqz	a0,10057be <__spl_start+0x42ce>
 10057bc:	6928                	ld	a0,80(a0)
 10057be:	8082                	ret
 10057c0:	7538                	ld	a4,104(a0)
 10057c2:	06850513          	addi	a0,a0,104
 10057c6:	4781                	li	a5,0
 10057c8:	00a70463          	beq	a4,a0,10057d0 <__spl_start+0x42e0>
 10057cc:	f8870793          	addi	a5,a4,-120
 10057d0:	e19c                	sd	a5,0(a1)
 10057d2:	4501                	li	a0,0
 10057d4:	8082                	ret
 10057d6:	611c                	ld	a5,0(a0)
 10057d8:	4701                	li	a4,0
 10057da:	7fb4                	ld	a3,120(a5)
 10057dc:	7b9c                	ld	a5,48(a5)
 10057de:	06878793          	addi	a5,a5,104
 10057e2:	00f68463          	beq	a3,a5,10057ea <__spl_start+0x42fa>
 10057e6:	f8868713          	addi	a4,a3,-120
 10057ea:	e118                	sd	a4,0(a0)
 10057ec:	4501                	li	a0,0
 10057ee:	8082                	ret
 10057f0:	7908                	ld	a0,48(a0)
 10057f2:	8082                	ret
 10057f4:	7508                	ld	a0,40(a0)
 10057f6:	8082                	ret
 10057f8:	613c                	ld	a5,64(a0)
 10057fa:	679c                	ld	a5,8(a5)
 10057fc:	4788                	lw	a0,8(a5)
 10057fe:	8082                	ret
 1005800:	fd0c                	sd	a1,56(a0)
 1005802:	8082                	ret
 1005804:	e92c                	sd	a1,80(a0)
 1005806:	8082                	ret
 1005808:	e52c                	sd	a1,72(a0)
 100580a:	8082                	ret
 100580c:	0e050263          	beqz	a0,10058f0 <__spl_start+0x4400>
 1005810:	1101                	addi	sp,sp,-32
 1005812:	e822                	sd	s0,16(sp)
 1005814:	e426                	sd	s1,8(sp)
 1005816:	ec06                	sd	ra,24(sp)
 1005818:	e04a                	sd	s2,0(sp)
 100581a:	08852783          	lw	a5,136(a0)
 100581e:	6485                	lui	s1,0x1
 1005820:	842a                	mv	s0,a0
 1005822:	8fe5                	and	a5,a5,s1
 1005824:	2781                	sext.w	a5,a5
 1005826:	c399                	beqz	a5,100582c <__spl_start+0x433c>
 1005828:	4501                	li	a0,0
 100582a:	a02d                	j	1005854 <__spl_start+0x4364>
 100582c:	7908                	ld	a0,48(a0)
 100582e:	e90d                	bnez	a0,1005860 <__spl_start+0x4370>
 1005830:	00043903          	ld	s2,0(s0)
 1005834:	05892783          	lw	a5,88(s2)
 1005838:	c3a1                	beqz	a5,1005878 <__spl_start+0x4388>
 100583a:	8522                	mv	a0,s0
 100583c:	f73ff0ef          	jal	ra,10057ae <__spl_start+0x42be>
 1005840:	ed05                	bnez	a0,1005878 <__spl_start+0x4388>
 1005842:	07092583          	lw	a1,112(s2)
 1005846:	05892503          	lw	a0,88(s2)
 100584a:	f09ff0ef          	jal	ra,1005752 <__spl_start+0x4262>
 100584e:	85aa                	mv	a1,a0
 1005850:	e10d                	bnez	a0,1005872 <__spl_start+0x4382>
 1005852:	5551                	li	a0,-12
 1005854:	60e2                	ld	ra,24(sp)
 1005856:	6442                	ld	s0,16(sp)
 1005858:	64a2                	ld	s1,8(sp)
 100585a:	6902                	ld	s2,0(sp)
 100585c:	6105                	addi	sp,sp,32
 100585e:	8082                	ret
 1005860:	fadff0ef          	jal	ra,100580c <__spl_start+0x431c>
 1005864:	f965                	bnez	a0,1005854 <__spl_start+0x4364>
 1005866:	08842783          	lw	a5,136(s0)
 100586a:	8fe5                	and	a5,a5,s1
 100586c:	2781                	sext.w	a5,a5
 100586e:	d3e9                	beqz	a5,1005830 <__spl_start+0x4340>
 1005870:	bf65                	j	1005828 <__spl_start+0x4338>
 1005872:	8522                	mv	a0,s0
 1005874:	f8dff0ef          	jal	ra,1005800 <__spl_start+0x4310>
 1005878:	603c                	ld	a5,64(s0)
 100587a:	679c                	ld	a5,8(a5)
 100587c:	53e4                	lw	s1,100(a5)
 100587e:	c08d                	beqz	s1,10058a0 <__spl_start+0x43b0>
 1005880:	8522                	mv	a0,s0
 1005882:	f33ff0ef          	jal	ra,10057b4 <__spl_start+0x42c4>
 1005886:	ed09                	bnez	a0,10058a0 <__spl_start+0x43b0>
 1005888:	603c                	ld	a5,64(s0)
 100588a:	8526                	mv	a0,s1
 100588c:	679c                	ld	a5,8(a5)
 100588e:	0807a583          	lw	a1,128(a5)
 1005892:	ec1ff0ef          	jal	ra,1005752 <__spl_start+0x4262>
 1005896:	85aa                	mv	a1,a0
 1005898:	dd4d                	beqz	a0,1005852 <__spl_start+0x4362>
 100589a:	8522                	mv	a0,s0
 100589c:	f6dff0ef          	jal	ra,1005808 <__spl_start+0x4318>
 10058a0:	781c                	ld	a5,48(s0)
 10058a2:	c795                	beqz	a5,10058ce <__spl_start+0x43de>
 10058a4:	6398                	ld	a4,0(a5)
 10058a6:	5324                	lw	s1,96(a4)
 10058a8:	e489                	bnez	s1,10058b2 <__spl_start+0x43c2>
 10058aa:	63bc                	ld	a5,64(a5)
 10058ac:	679c                	ld	a5,8(a5)
 10058ae:	57e4                	lw	s1,108(a5)
 10058b0:	cc99                	beqz	s1,10058ce <__spl_start+0x43de>
 10058b2:	8522                	mv	a0,s0
 10058b4:	f07ff0ef          	jal	ra,10057ba <__spl_start+0x42ca>
 10058b8:	e919                	bnez	a0,10058ce <__spl_start+0x43de>
 10058ba:	07092583          	lw	a1,112(s2)
 10058be:	8526                	mv	a0,s1
 10058c0:	e93ff0ef          	jal	ra,1005752 <__spl_start+0x4262>
 10058c4:	85aa                	mv	a1,a0
 10058c6:	d551                	beqz	a0,1005852 <__spl_start+0x4362>
 10058c8:	8522                	mv	a0,s0
 10058ca:	f3bff0ef          	jal	ra,1005804 <__spl_start+0x4314>
 10058ce:	601c                	ld	a5,0(s0)
 10058d0:	7f9c                	ld	a5,56(a5)
 10058d2:	eb81                	bnez	a5,10058e2 <__spl_start+0x43f2>
 10058d4:	08842783          	lw	a5,136(s0)
 10058d8:	6705                	lui	a4,0x1
 10058da:	8fd9                	or	a5,a5,a4
 10058dc:	08f42423          	sw	a5,136(s0)
 10058e0:	b7a1                	j	1005828 <__spl_start+0x4338>
 10058e2:	6858                	ld	a4,144(s0)
 10058e4:	fe0748e3          	bltz	a4,10058d4 <__spl_start+0x43e4>
 10058e8:	8522                	mv	a0,s0
 10058ea:	9782                	jalr	a5
 10058ec:	d565                	beqz	a0,10058d4 <__spl_start+0x43e4>
 10058ee:	b79d                	j	1005854 <__spl_start+0x4364>
 10058f0:	5529                	li	a0,-22
 10058f2:	8082                	ret
 10058f4:	1101                	addi	sp,sp,-32
 10058f6:	e822                	sd	s0,16(sp)
 10058f8:	ec06                	sd	ra,24(sp)
 10058fa:	e426                	sd	s1,8(sp)
 10058fc:	e04a                	sd	s2,0(sp)
 10058fe:	5429                	li	s0,-22
 1005900:	c519                	beqz	a0,100590e <__spl_start+0x441e>
 1005902:	08852783          	lw	a5,136(a0)
 1005906:	84aa                	mv	s1,a0
 1005908:	8b85                	andi	a5,a5,1
 100590a:	cb89                	beqz	a5,100591c <__spl_start+0x442c>
 100590c:	4401                	li	s0,0
 100590e:	60e2                	ld	ra,24(sp)
 1005910:	8522                	mv	a0,s0
 1005912:	6442                	ld	s0,16(sp)
 1005914:	64a2                	ld	s1,8(sp)
 1005916:	6902                	ld	s2,0(sp)
 1005918:	6105                	addi	sp,sp,32
 100591a:	8082                	ret
 100591c:	00053903          	ld	s2,0(a0)
 1005920:	eedff0ef          	jal	ra,100580c <__spl_start+0x431c>
 1005924:	842a                	mv	s0,a0
 1005926:	e525                	bnez	a0,100598e <__spl_start+0x449e>
 1005928:	7888                	ld	a0,48(s1)
 100592a:	ed15                	bnez	a0,1005966 <__spl_start+0x4476>
 100592c:	0884a783          	lw	a5,136(s1) # 1088 <_start-0xffef78>
 1005930:	0017e793          	ori	a5,a5,1
 1005934:	08f4a423          	sw	a5,136(s1)
 1005938:	789c                	ld	a5,48(s1)
 100593a:	ef9d                	bnez	a5,1005978 <__spl_start+0x4488>
 100593c:	8526                	mv	a0,s1
 100593e:	3d9000ef          	jal	ra,1006516 <__spl_start+0x5026>
 1005942:	842a                	mv	s0,a0
 1005944:	e529                	bnez	a0,100598e <__spl_start+0x449e>
 1005946:	789c                	ld	a5,48(s1)
 1005948:	ef85                	bnez	a5,1005980 <__spl_start+0x4490>
 100594a:	02093783          	ld	a5,32(s2)
 100594e:	e7b1                	bnez	a5,100599a <__spl_start+0x44aa>
 1005950:	8526                	mv	a0,s1
 1005952:	3fb000ef          	jal	ra,100654c <__spl_start+0x505c>
 1005956:	842a                	mv	s0,a0
 1005958:	e91d                	bnez	a0,100598e <__spl_start+0x449e>
 100595a:	789c                	ld	a5,48(s1)
 100595c:	dbc5                	beqz	a5,100590c <__spl_start+0x441c>
 100595e:	8526                	mv	a0,s1
 1005960:	e99ff0ef          	jal	ra,10057f8 <__spl_start+0x4308>
 1005964:	b76d                	j	100590e <__spl_start+0x441e>
 1005966:	f8fff0ef          	jal	ra,10058f4 <__spl_start+0x4404>
 100596a:	842a                	mv	s0,a0
 100596c:	e10d                	bnez	a0,100598e <__spl_start+0x449e>
 100596e:	0884a783          	lw	a5,136(s1)
 1005972:	8b85                	andi	a5,a5,1
 1005974:	dfc5                	beqz	a5,100592c <__spl_start+0x443c>
 1005976:	bf59                	j	100590c <__spl_start+0x441c>
 1005978:	8526                	mv	a0,s1
 100597a:	e7fff0ef          	jal	ra,10057f8 <__spl_start+0x4308>
 100597e:	bf7d                	j	100593c <__spl_start+0x444c>
 1005980:	639c                	ld	a5,0(a5)
 1005982:	67bc                	ld	a5,72(a5)
 1005984:	d3f9                	beqz	a5,100594a <__spl_start+0x445a>
 1005986:	8526                	mv	a0,s1
 1005988:	9782                	jalr	a5
 100598a:	842a                	mv	s0,a0
 100598c:	dd5d                	beqz	a0,100594a <__spl_start+0x445a>
 100598e:	0884a783          	lw	a5,136(s1)
 1005992:	9bf9                	andi	a5,a5,-2
 1005994:	08f4a423          	sw	a5,136(s1)
 1005998:	bf9d                	j	100590e <__spl_start+0x441e>
 100599a:	8526                	mv	a0,s1
 100599c:	9782                	jalr	a5
 100599e:	842a                	mv	s0,a0
 10059a0:	d945                	beqz	a0,1005950 <__spl_start+0x4460>
 10059a2:	b7f5                	j	100598e <__spl_start+0x449e>
 10059a4:	e90c                	sd	a1,16(a0)
 10059a6:	8082                	ret
 10059a8:	ed0c                	sd	a1,24(a0)
 10059aa:	8082                	ret
 10059ac:	f10c                	sd	a1,32(a0)
 10059ae:	8082                	ret
 10059b0:	711d                	addi	sp,sp,-96
 10059b2:	e4a6                	sd	s1,72(sp)
 10059b4:	fc4e                	sd	s3,56(sp)
 10059b6:	f852                	sd	s4,48(sp)
 10059b8:	f456                	sd	s5,40(sp)
 10059ba:	f05a                	sd	s6,32(sp)
 10059bc:	ec5e                	sd	s7,24(sp)
 10059be:	e862                	sd	s8,16(sp)
 10059c0:	ec86                	sd	ra,88(sp)
 10059c2:	e8a2                	sd	s0,80(sp)
 10059c4:	e0ca                	sd	s2,64(sp)
 10059c6:	89aa                	mv	s3,a0
 10059c8:	84ae                	mv	s1,a1
 10059ca:	8b32                	mv	s6,a2
 10059cc:	8ab6                	mv	s5,a3
 10059ce:	8c3a                	mv	s8,a4
 10059d0:	8bbe                	mv	s7,a5
 10059d2:	8a42                	mv	s4,a6
 10059d4:	00080463          	beqz	a6,10059dc <__spl_start+0x44ec>
 10059d8:	00083023          	sd	zero,0(a6)
 10059dc:	5929                	li	s2,-22
 10059de:	120b0863          	beqz	s6,1005b0e <__spl_start+0x461e>
 10059e2:	4488                	lw	a0,8(s1)
 10059e4:	002c                	addi	a1,sp,8
 10059e6:	6ce000ef          	jal	ra,10060b4 <__spl_start+0x4bc4>
 10059ea:	892a                	mv	s2,a0
 10059ec:	12051163          	bnez	a0,1005b0e <__spl_start+0x461e>
 10059f0:	09800593          	li	a1,152
 10059f4:	4505                	li	a0,1
 10059f6:	d89fd0ef          	jal	ra,100377e <__spl_start+0x228e>
 10059fa:	842a                	mv	s0,a0
 10059fc:	5951                	li	s2,-12
 10059fe:	10050863          	beqz	a0,1005b0e <__spl_start+0x461e>
 1005a02:	06850793          	addi	a5,a0,104
 1005a06:	07850913          	addi	s2,a0,120
 1005a0a:	f53c                	sd	a5,104(a0)
 1005a0c:	f93c                	sd	a5,112(a0)
 1005a0e:	05850793          	addi	a5,a0,88
 1005a12:	ed3c                	sd	a5,88(a0)
 1005a14:	f13c                	sd	a5,96(a0)
 1005a16:	07253c23          	sd	s2,120(a0)
 1005a1a:	09253023          	sd	s2,128(a0)
 1005a1e:	85d6                	mv	a1,s5
 1005a20:	f85ff0ef          	jal	ra,10059a4 <__spl_start+0x44b4>
 1005a24:	e004                	sd	s1,0(s0)
 1005a26:	6522                	ld	a0,8(sp)
 1005a28:	57fd                	li	a5,-1
 1005a2a:	03843423          	sd	s8,40(s0)
 1005a2e:	01643423          	sd	s6,8(s0)
 1005a32:	09743823          	sd	s7,144(s0)
 1005a36:	03343823          	sd	s3,48(s0)
 1005a3a:	e028                	sd	a0,64(s0)
 1005a3c:	08f42623          	sw	a5,140(s0)
 1005a40:	651c                	ld	a5,8(a0)
 1005a42:	0807a783          	lw	a5,128(a5)
 1005a46:	8b89                	andi	a5,a5,2
 1005a48:	e789                	bnez	a5,1005a52 <__spl_start+0x4562>
 1005a4a:	7d2000ef          	jal	ra,100621c <__spl_start+0x4d2c>
 1005a4e:	08a42623          	sw	a0,140(s0)
 1005a52:	4cfc                	lw	a5,92(s1)
 1005a54:	c39d                	beqz	a5,1005a7a <__spl_start+0x458a>
 1005a56:	020a9263          	bnez	s5,1005a7a <__spl_start+0x458a>
 1005a5a:	08842783          	lw	a5,136(s0)
 1005a5e:	4505                	li	a0,1
 1005a60:	0027e793          	ori	a5,a5,2
 1005a64:	08f42423          	sw	a5,136(s0)
 1005a68:	4cec                	lw	a1,92(s1)
 1005a6a:	d15fd0ef          	jal	ra,100377e <__spl_start+0x228e>
 1005a6e:	85aa                	mv	a1,a0
 1005a70:	0e050663          	beqz	a0,1005b5c <__spl_start+0x466c>
 1005a74:	8522                	mv	a0,s0
 1005a76:	f2fff0ef          	jal	ra,10059a4 <__spl_start+0x44b4>
 1005a7a:	67a2                	ld	a5,8(sp)
 1005a7c:	679c                	ld	a5,8(a5)
 1005a7e:	57ac                	lw	a1,104(a5)
 1005a80:	cd99                	beqz	a1,1005a9e <__spl_start+0x45ae>
 1005a82:	08842783          	lw	a5,136(s0)
 1005a86:	4505                	li	a0,1
 1005a88:	0107e793          	ori	a5,a5,16
 1005a8c:	08f42423          	sw	a5,136(s0)
 1005a90:	ceffd0ef          	jal	ra,100377e <__spl_start+0x228e>
 1005a94:	85aa                	mv	a1,a0
 1005a96:	c179                	beqz	a0,1005b5c <__spl_start+0x466c>
 1005a98:	8522                	mv	a0,s0
 1005a9a:	f13ff0ef          	jal	ra,10059ac <__spl_start+0x44bc>
 1005a9e:	04098363          	beqz	s3,1005ae4 <__spl_start+0x45f4>
 1005aa2:	0009b783          	ld	a5,0(s3)
 1005aa6:	53ec                	lw	a1,100(a5)
 1005aa8:	e591                	bnez	a1,1005ab4 <__spl_start+0x45c4>
 1005aaa:	0409b783          	ld	a5,64(s3)
 1005aae:	679c                	ld	a5,8(a5)
 1005ab0:	5bac                	lw	a1,112(a5)
 1005ab2:	cd99                	beqz	a1,1005ad0 <__spl_start+0x45e0>
 1005ab4:	08842783          	lw	a5,136(s0)
 1005ab8:	4505                	li	a0,1
 1005aba:	0087e793          	ori	a5,a5,8
 1005abe:	08f42423          	sw	a5,136(s0)
 1005ac2:	cbdfd0ef          	jal	ra,100377e <__spl_start+0x228e>
 1005ac6:	85aa                	mv	a1,a0
 1005ac8:	c951                	beqz	a0,1005b5c <__spl_start+0x466c>
 1005aca:	8522                	mv	a0,s0
 1005acc:	eddff0ef          	jal	ra,10059a8 <__spl_start+0x44b8>
 1005ad0:	0709b783          	ld	a5,112(s3)
 1005ad4:	06898713          	addi	a4,s3,104
 1005ad8:	0729b823          	sd	s2,112(s3)
 1005adc:	fc38                	sd	a4,120(s0)
 1005ade:	e05c                	sd	a5,128(s0)
 1005ae0:	0127b023          	sd	s2,0(a5)
 1005ae4:	8522                	mv	a0,s0
 1005ae6:	1e3000ef          	jal	ra,10064c8 <__spl_start+0x4fd8>
 1005aea:	892a                	mv	s2,a0
 1005aec:	e935                	bnez	a0,1005b60 <__spl_start+0x4670>
 1005aee:	6c9c                	ld	a5,24(s1)
 1005af0:	ef85                	bnez	a5,1005b28 <__spl_start+0x4638>
 1005af2:	04099463          	bnez	s3,1005b3a <__spl_start+0x464a>
 1005af6:	67a2                	ld	a5,8(sp)
 1005af8:	679c                	ld	a5,8(a5)
 1005afa:	6b9c                	ld	a5,16(a5)
 1005afc:	eba1                	bnez	a5,1005b4c <__spl_start+0x465c>
 1005afe:	040a1c63          	bnez	s4,1005b56 <__spl_start+0x4666>
 1005b02:	08842783          	lw	a5,136(s0)
 1005b06:	0407e793          	ori	a5,a5,64
 1005b0a:	08f42423          	sw	a5,136(s0)
 1005b0e:	60e6                	ld	ra,88(sp)
 1005b10:	6446                	ld	s0,80(sp)
 1005b12:	64a6                	ld	s1,72(sp)
 1005b14:	79e2                	ld	s3,56(sp)
 1005b16:	7a42                	ld	s4,48(sp)
 1005b18:	7aa2                	ld	s5,40(sp)
 1005b1a:	7b02                	ld	s6,32(sp)
 1005b1c:	6be2                	ld	s7,24(sp)
 1005b1e:	6c42                	ld	s8,16(sp)
 1005b20:	854a                	mv	a0,s2
 1005b22:	6906                	ld	s2,64(sp)
 1005b24:	6125                	addi	sp,sp,96
 1005b26:	8082                	ret
 1005b28:	8522                	mv	a0,s0
 1005b2a:	9782                	jalr	a5
 1005b2c:	84aa                	mv	s1,a0
 1005b2e:	d171                	beqz	a0,1005af2 <__spl_start+0x4602>
 1005b30:	8522                	mv	a0,s0
 1005b32:	dbafd0ef          	jal	ra,10030ec <__spl_start+0x1bfc>
 1005b36:	8926                	mv	s2,s1
 1005b38:	bfd9                	j	1005b0e <__spl_start+0x461e>
 1005b3a:	0009b783          	ld	a5,0(s3)
 1005b3e:	63bc                	ld	a5,64(a5)
 1005b40:	dbdd                	beqz	a5,1005af6 <__spl_start+0x4606>
 1005b42:	8522                	mv	a0,s0
 1005b44:	9782                	jalr	a5
 1005b46:	84aa                	mv	s1,a0
 1005b48:	d55d                	beqz	a0,1005af6 <__spl_start+0x4606>
 1005b4a:	b7dd                	j	1005b30 <__spl_start+0x4640>
 1005b4c:	8522                	mv	a0,s0
 1005b4e:	9782                	jalr	a5
 1005b50:	84aa                	mv	s1,a0
 1005b52:	d555                	beqz	a0,1005afe <__spl_start+0x460e>
 1005b54:	bff1                	j	1005b30 <__spl_start+0x4640>
 1005b56:	008a3023          	sd	s0,0(s4)
 1005b5a:	b765                	j	1005b02 <__spl_start+0x4612>
 1005b5c:	54d1                	li	s1,-12
 1005b5e:	bfc9                	j	1005b30 <__spl_start+0x4640>
 1005b60:	84aa                	mv	s1,a0
 1005b62:	b7f9                	j	1005b30 <__spl_start+0x4640>
 1005b64:	7179                	addi	sp,sp,-48
 1005b66:	f022                	sd	s0,32(sp)
 1005b68:	ec26                	sd	s1,24(sp)
 1005b6a:	e84a                	sd	s2,16(sp)
 1005b6c:	f406                	sd	ra,40(sp)
 1005b6e:	84aa                	mv	s1,a0
 1005b70:	6208                	ld	a0,0(a2)
 1005b72:	892e                	mv	s2,a1
 1005b74:	8432                	mv	s0,a2
 1005b76:	e436                	sd	a3,8(sp)
 1005b78:	0c0000ef          	jal	ra,1005c38 <__spl_start+0x4748>
 1005b7c:	c11d                	beqz	a0,1005ba2 <__spl_start+0x46b2>
 1005b7e:	6822                	ld	a6,8(sp)
 1005b80:	85aa                	mv	a1,a0
 1005b82:	00090563          	beqz	s2,1005b8c <__spl_start+0x469c>
 1005b86:	593c                	lw	a5,112(a0)
 1005b88:	8b91                	andi	a5,a5,4
 1005b8a:	c39d                	beqz	a5,1005bb0 <__spl_start+0x46c0>
 1005b8c:	6414                	ld	a3,8(s0)
 1005b8e:	6010                	ld	a2,0(s0)
 1005b90:	7402                	ld	s0,32(sp)
 1005b92:	70a2                	ld	ra,40(sp)
 1005b94:	6942                	ld	s2,16(sp)
 1005b96:	8526                	mv	a0,s1
 1005b98:	64e2                	ld	s1,24(sp)
 1005b9a:	57fd                	li	a5,-1
 1005b9c:	4701                	li	a4,0
 1005b9e:	6145                	addi	sp,sp,48
 1005ba0:	bd01                	j	10059b0 <__spl_start+0x44c0>
 1005ba2:	5579                	li	a0,-2
 1005ba4:	70a2                	ld	ra,40(sp)
 1005ba6:	7402                	ld	s0,32(sp)
 1005ba8:	64e2                	ld	s1,24(sp)
 1005baa:	6942                	ld	s2,16(sp)
 1005bac:	6145                	addi	sp,sp,48
 1005bae:	8082                	ret
 1005bb0:	557d                	li	a0,-1
 1005bb2:	bfcd                	j	1005ba4 <__spl_start+0x46b4>
 1005bb4:	883e                	mv	a6,a5
 1005bb6:	87ba                	mv	a5,a4
 1005bb8:	8736                	mv	a4,a3
 1005bba:	4681                	li	a3,0
 1005bbc:	bbd5                	j	10059b0 <__spl_start+0x44c0>
 1005bbe:	1101                	addi	sp,sp,-32
 1005bc0:	e822                	sd	s0,16(sp)
 1005bc2:	ec06                	sd	ra,24(sp)
 1005bc4:	842a                	mv	s0,a0
 1005bc6:	7908                	ld	a0,48(a0)
 1005bc8:	872e                	mv	a4,a1
 1005bca:	09042603          	lw	a2,144(s0)
 1005bce:	09052583          	lw	a1,144(a0)
 1005bd2:	0d81b503          	ld	a0,216(gp)
 1005bd6:	4781                	li	a5,0
 1005bd8:	4801                	li	a6,0
 1005bda:	00003697          	auipc	a3,0x3
 1005bde:	3c668693          	addi	a3,a3,966 # 1008fa0 <__spl_start+0x7ab0>
 1005be2:	c4cff0ef          	jal	ra,100502e <__spl_start+0x3b3e>
 1005be6:	57fd                	li	a5,-1
 1005be8:	9381                	srli	a5,a5,0x20
 1005bea:	85aa                	mv	a1,a0
 1005bec:	02f50163          	beq	a0,a5,1005c0e <__spl_start+0x471e>
 1005bf0:	e42a                	sd	a0,8(sp)
 1005bf2:	7808                	ld	a0,48(s0)
 1005bf4:	c05ff0ef          	jal	ra,10057f8 <__spl_start+0x4308>
 1005bf8:	05600793          	li	a5,86
 1005bfc:	65a2                	ld	a1,8(sp)
 1005bfe:	00f51863          	bne	a0,a5,1005c0e <__spl_start+0x471e>
 1005c02:	7808                	ld	a0,48(s0)
 1005c04:	6442                	ld	s0,16(sp)
 1005c06:	60e2                	ld	ra,24(sp)
 1005c08:	6105                	addi	sp,sp,32
 1005c0a:	1bb0006f          	j	10065c4 <__spl_start+0x50d4>
 1005c0e:	60e2                	ld	ra,24(sp)
 1005c10:	6442                	ld	s0,16(sp)
 1005c12:	852e                	mv	a0,a1
 1005c14:	6105                	addi	sp,sp,32
 1005c16:	8082                	ret
 1005c18:	4581                	li	a1,0
 1005c1a:	b755                	j	1005bbe <__spl_start+0x46ce>
 1005c1c:	1141                	addi	sp,sp,-16
 1005c1e:	4581                	li	a1,0
 1005c20:	e406                	sd	ra,8(sp)
 1005c22:	f9dff0ef          	jal	ra,1005bbe <__spl_start+0x46ce>
 1005c26:	57fd                	li	a5,-1
 1005c28:	9381                	srli	a5,a5,0x20
 1005c2a:	00f51363          	bne	a0,a5,1005c30 <__spl_start+0x4740>
 1005c2e:	4501                	li	a0,0
 1005c30:	60a2                	ld	ra,8(sp)
 1005c32:	0141                	addi	sp,sp,16
 1005c34:	8082                	ret
 1005c36:	b7cd                	j	1005c18 <__spl_start+0x4728>
 1005c38:	1101                	addi	sp,sp,-32
 1005c3a:	e822                	sd	s0,16(sp)
 1005c3c:	e426                	sd	s1,8(sp)
 1005c3e:	00007417          	auipc	s0,0x7
 1005c42:	a6a40413          	addi	s0,s0,-1430 # 100c6a8 <__spl_start+0xb1b8>
 1005c46:	00006497          	auipc	s1,0x6
 1005c4a:	5b248493          	addi	s1,s1,1458 # 100c1f8 <__spl_start+0xad08>
 1005c4e:	8c05                	sub	s0,s0,s1
 1005c50:	00003797          	auipc	a5,0x3
 1005c54:	eb87b783          	ld	a5,-328(a5) # 1008b08 <__spl_start+0x7618>
 1005c58:	840d                	srai	s0,s0,0x3
 1005c5a:	02f4043b          	mulw	s0,s0,a5
 1005c5e:	07800793          	li	a5,120
 1005c62:	e04a                	sd	s2,0(sp)
 1005c64:	ec06                	sd	ra,24(sp)
 1005c66:	892a                	mv	s2,a0
 1005c68:	02f40433          	mul	s0,s0,a5
 1005c6c:	9426                	add	s0,s0,s1
 1005c6e:	00941a63          	bne	s0,s1,1005c82 <__spl_start+0x4792>
 1005c72:	4481                	li	s1,0
 1005c74:	60e2                	ld	ra,24(sp)
 1005c76:	6442                	ld	s0,16(sp)
 1005c78:	6902                	ld	s2,0(sp)
 1005c7a:	8526                	mv	a0,s1
 1005c7c:	64a2                	ld	s1,8(sp)
 1005c7e:	6105                	addi	sp,sp,32
 1005c80:	8082                	ret
 1005c82:	608c                	ld	a1,0(s1)
 1005c84:	854a                	mv	a0,s2
 1005c86:	cf2ff0ef          	jal	ra,1005178 <__spl_start+0x3c88>
 1005c8a:	d56d                	beqz	a0,1005c74 <__spl_start+0x4784>
 1005c8c:	07848493          	addi	s1,s1,120
 1005c90:	bff9                	j	1005c6e <__spl_start+0x477e>
 1005c92:	872a                	mv	a4,a0
 1005c94:	00007797          	auipc	a5,0x7
 1005c98:	01c78793          	addi	a5,a5,28 # 100ccb0 <__spl_start+0xb7c0>
 1005c9c:	00007517          	auipc	a0,0x7
 1005ca0:	a3c50513          	addi	a0,a0,-1476 # 100c6d8 <__spl_start+0xb1e8>
 1005ca4:	8f89                	sub	a5,a5,a0
 1005ca6:	00003697          	auipc	a3,0x3
 1005caa:	e6a6b683          	ld	a3,-406(a3) # 1008b10 <__spl_start+0x7620>
 1005cae:	878d                	srai	a5,a5,0x3
 1005cb0:	02d787bb          	mulw	a5,a5,a3
 1005cb4:	08800693          	li	a3,136
 1005cb8:	02d787b3          	mul	a5,a5,a3
 1005cbc:	97aa                	add	a5,a5,a0
 1005cbe:	00a79463          	bne	a5,a0,1005cc6 <__spl_start+0x47d6>
 1005cc2:	4501                	li	a0,0
 1005cc4:	8082                	ret
 1005cc6:	4514                	lw	a3,8(a0)
 1005cc8:	fee68ee3          	beq	a3,a4,1005cc4 <__spl_start+0x47d4>
 1005ccc:	08850513          	addi	a0,a0,136
 1005cd0:	b7fd                	j	1005cbe <__spl_start+0x47ce>
 1005cd2:	7119                	addi	sp,sp,-128
 1005cd4:	f8a2                	sd	s0,112(sp)
 1005cd6:	00007797          	auipc	a5,0x7
 1005cda:	9d278793          	addi	a5,a5,-1582 # 100c6a8 <__spl_start+0xb1b8>
 1005cde:	00007417          	auipc	s0,0x7
 1005ce2:	9ca40413          	addi	s0,s0,-1590 # 100c6a8 <__spl_start+0xb1b8>
 1005ce6:	8c1d                	sub	s0,s0,a5
 1005ce8:	8411                	srai	s0,s0,0x4
 1005cea:	f0ca                	sd	s2,96(sp)
 1005cec:	ecce                	sd	s3,88(sp)
 1005cee:	e8d2                	sd	s4,80(sp)
 1005cf0:	e4d6                	sd	s5,72(sp)
 1005cf2:	f862                	sd	s8,48(sp)
 1005cf4:	f466                	sd	s9,40(sp)
 1005cf6:	f06a                	sd	s10,32(sp)
 1005cf8:	ec6e                	sd	s11,24(sp)
 1005cfa:	fc86                	sd	ra,120(sp)
 1005cfc:	f4a6                	sd	s1,104(sp)
 1005cfe:	e0da                	sd	s6,64(sp)
 1005d00:	fc5e                	sd	s7,56(sp)
 1005d02:	8a2a                	mv	s4,a0
 1005d04:	8aae                	mv	s5,a1
 1005d06:	2401                	sext.w	s0,s0
 1005d08:	49a9                	li	s3,10
 1005d0a:	4901                	li	s2,0
 1005d0c:	00810c13          	addi	s8,sp,8
 1005d10:	4c85                	li	s9,1
 1005d12:	5d79                	li	s10,-2
 1005d14:	5dd5                	li	s11,-11
 1005d16:	00007b97          	auipc	s7,0x7
 1005d1a:	992b8b93          	addi	s7,s7,-1646 # 100c6a8 <__spl_start+0xb1b8>
 1005d1e:	4b01                	li	s6,0
 1005d20:	4481                	li	s1,0
 1005d22:	03641b63          	bne	s0,s6,1005d58 <__spl_start+0x4868>
 1005d26:	c889                	beqz	s1,1005d38 <__spl_start+0x4848>
 1005d28:	01b48563          	beq	s1,s11,1005d32 <__spl_start+0x4842>
 1005d2c:	00091363          	bnez	s2,1005d32 <__spl_start+0x4842>
 1005d30:	8926                	mv	s2,s1
 1005d32:	39fd                	addiw	s3,s3,-1
 1005d34:	fe0991e3          	bnez	s3,1005d16 <__spl_start+0x4826>
 1005d38:	70e6                	ld	ra,120(sp)
 1005d3a:	7446                	ld	s0,112(sp)
 1005d3c:	74a6                	ld	s1,104(sp)
 1005d3e:	69e6                	ld	s3,88(sp)
 1005d40:	6a46                	ld	s4,80(sp)
 1005d42:	6aa6                	ld	s5,72(sp)
 1005d44:	6b06                	ld	s6,64(sp)
 1005d46:	7be2                	ld	s7,56(sp)
 1005d48:	7c42                	ld	s8,48(sp)
 1005d4a:	7ca2                	ld	s9,40(sp)
 1005d4c:	7d02                	ld	s10,32(sp)
 1005d4e:	6de2                	ld	s11,24(sp)
 1005d50:	854a                	mv	a0,s2
 1005d52:	7906                	ld	s2,96(sp)
 1005d54:	6109                	addi	sp,sp,128
 1005d56:	8082                	ret
 1005d58:	86e2                	mv	a3,s8
 1005d5a:	865e                	mv	a2,s7
 1005d5c:	85d6                	mv	a1,s5
 1005d5e:	8552                	mv	a0,s4
 1005d60:	e05ff0ef          	jal	ra,1005b64 <__spl_start+0x4674>
 1005d64:	0015079b          	addiw	a5,a0,1
 1005d68:	00fcf663          	bgeu	s9,a5,1005d74 <__spl_start+0x4884>
 1005d6c:	c099                	beqz	s1,1005d72 <__spl_start+0x4882>
 1005d6e:	01a50363          	beq	a0,s10,1005d74 <__spl_start+0x4884>
 1005d72:	84aa                	mv	s1,a0
 1005d74:	2b05                	addiw	s6,s6,1
 1005d76:	0bc1                	addi	s7,s7,16
 1005d78:	b76d                	j	1005d22 <__spl_start+0x4832>
 1005d7a:	7179                	addi	sp,sp,-48
 1005d7c:	f022                	sd	s0,32(sp)
 1005d7e:	842a                	mv	s0,a0
 1005d80:	852e                	mv	a0,a1
 1005d82:	ec26                	sd	s1,24(sp)
 1005d84:	f406                	sd	ra,40(sp)
 1005d86:	e432                	sd	a2,8(sp)
 1005d88:	84b6                	mv	s1,a3
 1005d8a:	e03a                	sd	a4,0(sp)
 1005d8c:	eadff0ef          	jal	ra,1005c38 <__spl_start+0x4748>
 1005d90:	cd01                	beqz	a0,1005da8 <__spl_start+0x48b8>
 1005d92:	85aa                	mv	a1,a0
 1005d94:	8522                	mv	a0,s0
 1005d96:	7402                	ld	s0,32(sp)
 1005d98:	6782                	ld	a5,0(sp)
 1005d9a:	6622                	ld	a2,8(sp)
 1005d9c:	70a2                	ld	ra,40(sp)
 1005d9e:	8726                	mv	a4,s1
 1005da0:	64e2                	ld	s1,24(sp)
 1005da2:	4681                	li	a3,0
 1005da4:	6145                	addi	sp,sp,48
 1005da6:	b539                	j	1005bb4 <__spl_start+0x46c4>
 1005da8:	70a2                	ld	ra,40(sp)
 1005daa:	7402                	ld	s0,32(sp)
 1005dac:	64e2                	ld	s1,24(sp)
 1005dae:	5579                	li	a0,-2
 1005db0:	6145                	addi	sp,sp,48
 1005db2:	8082                	ret
 1005db4:	8736                	mv	a4,a3
 1005db6:	56fd                	li	a3,-1
 1005db8:	b7c9                	j	1005d7a <__spl_start+0x488a>
 1005dba:	7175                	addi	sp,sp,-144
 1005dbc:	e122                	sd	s0,128(sp)
 1005dbe:	fca6                	sd	s1,120(sp)
 1005dc0:	f0d2                	sd	s4,96(sp)
 1005dc2:	ecd6                	sd	s5,88(sp)
 1005dc4:	e506                	sd	ra,136(sp)
 1005dc6:	f8ca                	sd	s2,112(sp)
 1005dc8:	f4ce                	sd	s3,104(sp)
 1005dca:	e8da                	sd	s6,80(sp)
 1005dcc:	e4de                	sd	s7,72(sp)
 1005dce:	e0e2                	sd	s8,64(sp)
 1005dd0:	fc66                	sd	s9,56(sp)
 1005dd2:	f86a                	sd	s10,48(sp)
 1005dd4:	f46e                	sd	s11,40(sp)
 1005dd6:	8a2a                	mv	s4,a0
 1005dd8:	842e                	mv	s0,a1
 1005dda:	84b2                	mv	s1,a2
 1005ddc:	8ab6                	mv	s5,a3
 1005dde:	c219                	beqz	a2,1005de4 <__spl_start+0x48f4>
 1005de0:	00063023          	sd	zero,0(a2)
 1005de4:	8522                	mv	a0,s0
 1005de6:	0fb000ef          	jal	ra,10066e0 <__spl_start+0x51f0>
 1005dea:	e42a                	sd	a0,8(sp)
 1005dec:	0850                	addi	a2,sp,20
 1005dee:	00003597          	auipc	a1,0x3
 1005df2:	07a58593          	addi	a1,a1,122 # 1008e68 <__spl_start+0x7978>
 1005df6:	8522                	mv	a0,s0
 1005df8:	15b000ef          	jal	ra,1006752 <__spl_start+0x5262>
 1005dfc:	892a                	mv	s2,a0
 1005dfe:	cd29                	beqz	a0,1005e58 <__spl_start+0x4968>
 1005e00:	00006b17          	auipc	s6,0x6
 1005e04:	3f8b0b13          	addi	s6,s6,1016 # 100c1f8 <__spl_start+0xad08>
 1005e08:	00007797          	auipc	a5,0x7
 1005e0c:	8a078793          	addi	a5,a5,-1888 # 100c6a8 <__spl_start+0xb1b8>
 1005e10:	416787b3          	sub	a5,a5,s6
 1005e14:	00003717          	auipc	a4,0x3
 1005e18:	cf473703          	ld	a4,-780(a4) # 1008b08 <__spl_start+0x7618>
 1005e1c:	878d                	srai	a5,a5,0x3
 1005e1e:	02e787bb          	mulw	a5,a5,a4
 1005e22:	07800713          	li	a4,120
 1005e26:	4b81                	li	s7,0
 1005e28:	01810c93          	addi	s9,sp,24
 1005e2c:	5d35                	li	s10,-19
 1005e2e:	02e787b3          	mul	a5,a5,a4
 1005e32:	9b3e                	add	s6,s6,a5
 1005e34:	47d2                	lw	a5,20(sp)
 1005e36:	02fbd563          	bge	s7,a5,1005e60 <__spl_start+0x4970>
 1005e3a:	01790c33          	add	s8,s2,s7
 1005e3e:	00006d97          	auipc	s11,0x6
 1005e42:	3bad8d93          	addi	s11,s11,954 # 100c1f8 <__spl_start+0xad08>
 1005e46:	03bb1d63          	bne	s6,s11,1005e80 <__spl_start+0x4990>
 1005e4a:	8562                	mv	a0,s8
 1005e4c:	b64ff0ef          	jal	ra,10051b0 <__spl_start+0x3cc0>
 1005e50:	0505                	addi	a0,a0,1
 1005e52:	01750bbb          	addw	s7,a0,s7
 1005e56:	bff9                	j	1005e34 <__spl_start+0x4944>
 1005e58:	4552                	lw	a0,20(sp)
 1005e5a:	57fd                	li	a5,-1
 1005e5c:	00f51363          	bne	a0,a5,1005e62 <__spl_start+0x4972>
 1005e60:	4501                	li	a0,0
 1005e62:	60aa                	ld	ra,136(sp)
 1005e64:	640a                	ld	s0,128(sp)
 1005e66:	74e6                	ld	s1,120(sp)
 1005e68:	7946                	ld	s2,112(sp)
 1005e6a:	79a6                	ld	s3,104(sp)
 1005e6c:	7a06                	ld	s4,96(sp)
 1005e6e:	6ae6                	ld	s5,88(sp)
 1005e70:	6b46                	ld	s6,80(sp)
 1005e72:	6ba6                	ld	s7,72(sp)
 1005e74:	6c06                	ld	s8,64(sp)
 1005e76:	7ce2                	ld	s9,56(sp)
 1005e78:	7d42                	ld	s10,48(sp)
 1005e7a:	7da2                	ld	s11,40(sp)
 1005e7c:	6149                	addi	sp,sp,144
 1005e7e:	8082                	ret
 1005e80:	010db983          	ld	s3,16(s11)
 1005e84:	00099a63          	bnez	s3,1005e98 <__spl_start+0x49a8>
 1005e88:	078d8d93          	addi	s11,s11,120
 1005e8c:	bf6d                	j	1005e46 <__spl_start+0x4956>
 1005e8e:	85e2                	mv	a1,s8
 1005e90:	ae8ff0ef          	jal	ra,1005178 <__spl_start+0x3c88>
 1005e94:	c919                	beqz	a0,1005eaa <__spl_start+0x49ba>
 1005e96:	09c1                	addi	s3,s3,16
 1005e98:	0009b503          	ld	a0,0(s3)
 1005e9c:	f96d                	bnez	a0,1005e8e <__spl_start+0x499e>
 1005e9e:	b7ed                	j	1005e88 <__spl_start+0x4998>
 1005ea0:	070da783          	lw	a5,112(s11)
 1005ea4:	8b91                	andi	a5,a5,4
 1005ea6:	eb81                	bnez	a5,1005eb6 <__spl_start+0x49c6>
 1005ea8:	bf65                	j	1005e60 <__spl_start+0x4970>
 1005eaa:	000a8663          	beqz	s5,1005eb6 <__spl_start+0x49c6>
 1005eae:	8522                	mv	a0,s0
 1005eb0:	0e1000ef          	jal	ra,1006790 <__spl_start+0x52a0>
 1005eb4:	d575                	beqz	a0,1005ea0 <__spl_start+0x49b0>
 1005eb6:	0089b683          	ld	a3,8(s3)
 1005eba:	6622                	ld	a2,8(sp)
 1005ebc:	87e6                	mv	a5,s9
 1005ebe:	8722                	mv	a4,s0
 1005ec0:	85ee                	mv	a1,s11
 1005ec2:	8552                	mv	a0,s4
 1005ec4:	cf1ff0ef          	jal	ra,1005bb4 <__spl_start+0x46c4>
 1005ec8:	f9a501e3          	beq	a0,s10,1005e4a <__spl_start+0x495a>
 1005ecc:	f959                	bnez	a0,1005e62 <__spl_start+0x4972>
 1005ece:	d8c9                	beqz	s1,1005e60 <__spl_start+0x4970>
 1005ed0:	67e2                	ld	a5,24(sp)
 1005ed2:	e09c                	sd	a5,0(s1)
 1005ed4:	b779                	j	1005e62 <__spl_start+0x4972>
 1005ed6:	7139                	addi	sp,sp,-64
 1005ed8:	f426                	sd	s1,40(sp)
 1005eda:	fc06                	sd	ra,56(sp)
 1005edc:	f822                	sd	s0,48(sp)
 1005ede:	f04a                	sd	s2,32(sp)
 1005ee0:	ec4e                	sd	s3,24(sp)
 1005ee2:	e852                	sd	s4,16(sp)
 1005ee4:	e456                	sd	s5,8(sp)
 1005ee6:	4481                	li	s1,0
 1005ee8:	0205c263          	bltz	a1,1005f0c <__spl_start+0x4a1c>
 1005eec:	892a                	mv	s2,a0
 1005eee:	0d81b503          	ld	a0,216(gp)
 1005ef2:	2581                	sext.w	a1,a1
 1005ef4:	89b2                	mv	s3,a2
 1005ef6:	fabfd0ef          	jal	ra,1003ea0 <__spl_start+0x29b0>
 1005efa:	0005041b          	sext.w	s0,a0
 1005efe:	00055363          	bgez	a0,1005f04 <__spl_start+0x4a14>
 1005f02:	547d                	li	s0,-1
 1005f04:	4481                	li	s1,0
 1005f06:	5afd                	li	s5,-1
 1005f08:	01541c63          	bne	s0,s5,1005f20 <__spl_start+0x4a30>
 1005f0c:	70e2                	ld	ra,56(sp)
 1005f0e:	7442                	ld	s0,48(sp)
 1005f10:	7902                	ld	s2,32(sp)
 1005f12:	69e2                	ld	s3,24(sp)
 1005f14:	6a42                	ld	s4,16(sp)
 1005f16:	6aa2                	ld	s5,8(sp)
 1005f18:	8526                	mv	a0,s1
 1005f1a:	74a2                	ld	s1,40(sp)
 1005f1c:	6121                	addi	sp,sp,64
 1005f1e:	8082                	ret
 1005f20:	8522                	mv	a0,s0
 1005f22:	7be000ef          	jal	ra,10066e0 <__spl_start+0x51f0>
 1005f26:	0d81b503          	ld	a0,216(gp)
 1005f2a:	00040a1b          	sext.w	s4,s0
 1005f2e:	85d2                	mv	a1,s4
 1005f30:	f0ffe0ef          	jal	ra,1004e3e <__spl_start+0x394e>
 1005f34:	c911                	beqz	a0,1005f48 <__spl_start+0x4a58>
 1005f36:	86ce                	mv	a3,s3
 1005f38:	4601                	li	a2,0
 1005f3a:	85a2                	mv	a1,s0
 1005f3c:	854a                	mv	a0,s2
 1005f3e:	e7dff0ef          	jal	ra,1005dba <__spl_start+0x48ca>
 1005f42:	c119                	beqz	a0,1005f48 <__spl_start+0x4a58>
 1005f44:	e091                	bnez	s1,1005f48 <__spl_start+0x4a58>
 1005f46:	84aa                	mv	s1,a0
 1005f48:	0d81b503          	ld	a0,216(gp)
 1005f4c:	85d2                	mv	a1,s4
 1005f4e:	f73fd0ef          	jal	ra,1003ec0 <__spl_start+0x29d0>
 1005f52:	0005041b          	sext.w	s0,a0
 1005f56:	fa0559e3          	bgez	a0,1005f08 <__spl_start+0x4a18>
 1005f5a:	547d                	li	s0,-1
 1005f5c:	b775                	j	1005f08 <__spl_start+0x4a18>
 1005f5e:	0a81b503          	ld	a0,168(gp)
 1005f62:	8082                	ret
 1005f64:	0a81b783          	ld	a5,168(gp)
 1005f68:	e3a1                	bnez	a5,1005fa8 <__spl_start+0x4ab8>
 1005f6a:	1141                	addi	sp,sp,-16
 1005f6c:	e406                	sd	ra,8(sp)
 1005f6e:	0b818793          	addi	a5,gp,184
 1005f72:	0cf1b423          	sd	a5,200(gp)
 1005f76:	0af1bc23          	sd	a5,184(gp)
 1005f7a:	0cf1b023          	sd	a5,192(gp)
 1005f7e:	0a818693          	addi	a3,gp,168
 1005f82:	00006617          	auipc	a2,0x6
 1005f86:	ef660613          	addi	a2,a2,-266 # 100be78 <__spl_start+0xa988>
 1005f8a:	4581                	li	a1,0
 1005f8c:	4501                	li	a0,0
 1005f8e:	bd7ff0ef          	jal	ra,1005b64 <__spl_start+0x4674>
 1005f92:	ed09                	bnez	a0,1005fac <__spl_start+0x4abc>
 1005f94:	0a81b703          	ld	a4,168(gp)
 1005f98:	08073823          	sd	zero,144(a4)
 1005f9c:	60a2                	ld	ra,8(sp)
 1005f9e:	0a81b503          	ld	a0,168(gp)
 1005fa2:	0141                	addi	sp,sp,16
 1005fa4:	951ff06f          	j	10058f4 <__spl_start+0x4404>
 1005fa8:	5529                	li	a0,-22
 1005faa:	8082                	ret
 1005fac:	60a2                	ld	ra,8(sp)
 1005fae:	0141                	addi	sp,sp,16
 1005fb0:	8082                	ret
 1005fb2:	1141                	addi	sp,sp,-16
 1005fb4:	e406                	sd	ra,8(sp)
 1005fb6:	85aa                	mv	a1,a0
 1005fb8:	0a81b503          	ld	a0,168(gp)
 1005fbc:	d17ff0ef          	jal	ra,1005cd2 <__spl_start+0x47e2>
 1005fc0:	57f9                	li	a5,-2
 1005fc2:	00f51363          	bne	a0,a5,1005fc8 <__spl_start+0x4ad8>
 1005fc6:	4501                	li	a0,0
 1005fc8:	60a2                	ld	ra,8(sp)
 1005fca:	0141                	addi	sp,sp,16
 1005fcc:	8082                	ret
 1005fce:	0081b603          	ld	a2,8(gp)
 1005fd2:	694c                	ld	a1,144(a0)
 1005fd4:	fff64613          	not	a2,a2
 1005fd8:	8a05                	andi	a2,a2,1
 1005fda:	bdf5                	j	1005ed6 <__spl_start+0x49e6>
 1005fdc:	862a                	mv	a2,a0
 1005fde:	0a81b503          	ld	a0,168(gp)
 1005fe2:	4581                	li	a1,0
 1005fe4:	bdcd                	j	1005ed6 <__spl_start+0x49e6>
 1005fe6:	715d                	addi	sp,sp,-80
 1005fe8:	00003797          	auipc	a5,0x3
 1005fec:	cf078793          	addi	a5,a5,-784 # 1008cd8 <__spl_start+0x77e8>
 1005ff0:	ec3e                	sd	a5,24(sp)
 1005ff2:	00003797          	auipc	a5,0x3
 1005ff6:	b5e78793          	addi	a5,a5,-1186 # 1008b50 <__spl_start+0x7660>
 1005ffa:	f03e                	sd	a5,32(sp)
 1005ffc:	00003797          	auipc	a5,0x3
 1006000:	b5c78793          	addi	a5,a5,-1188 # 1008b58 <__spl_start+0x7668>
 1006004:	fc26                	sd	s1,56(sp)
 1006006:	e486                	sd	ra,72(sp)
 1006008:	e0a2                	sd	s0,64(sp)
 100600a:	84aa                	mv	s1,a0
 100600c:	f43e                	sd	a5,40(sp)
 100600e:	fcfff0ef          	jal	ra,1005fdc <__spl_start+0x4aec>
 1006012:	e115                	bnez	a0,1006036 <__spl_start+0x4b46>
 1006014:	181c                	addi	a5,sp,48
 1006016:	0820                	addi	s0,sp,24
 1006018:	e43e                	sd	a5,8(sp)
 100601a:	6008                	ld	a0,0(s0)
 100601c:	6da000ef          	jal	ra,10066f6 <__spl_start+0x5206>
 1006020:	85aa                	mv	a1,a0
 1006022:	0a81b503          	ld	a0,168(gp)
 1006026:	8626                	mv	a2,s1
 1006028:	eafff0ef          	jal	ra,1005ed6 <__spl_start+0x49e6>
 100602c:	e509                	bnez	a0,1006036 <__spl_start+0x4b46>
 100602e:	67a2                	ld	a5,8(sp)
 1006030:	0421                	addi	s0,s0,8
 1006032:	fef414e3          	bne	s0,a5,100601a <__spl_start+0x4b2a>
 1006036:	60a6                	ld	ra,72(sp)
 1006038:	6406                	ld	s0,64(sp)
 100603a:	74e2                	ld	s1,56(sp)
 100603c:	6161                	addi	sp,sp,80
 100603e:	8082                	ret
 1006040:	4501                	li	a0,0
 1006042:	8082                	ret
 1006044:	1141                	addi	sp,sp,-16
 1006046:	e022                	sd	s0,0(sp)
 1006048:	842a                	mv	s0,a0
 100604a:	4501                	li	a0,0
 100604c:	e406                	sd	ra,8(sp)
 100604e:	f17ff0ef          	jal	ra,1005f64 <__spl_start+0x4a74>
 1006052:	e115                	bnez	a0,1006076 <__spl_start+0x4b86>
 1006054:	8522                	mv	a0,s0
 1006056:	f5dff0ef          	jal	ra,1005fb2 <__spl_start+0x4ac2>
 100605a:	ed11                	bnez	a0,1006076 <__spl_start+0x4b86>
 100605c:	8522                	mv	a0,s0
 100605e:	f89ff0ef          	jal	ra,1005fe6 <__spl_start+0x4af6>
 1006062:	e911                	bnez	a0,1006076 <__spl_start+0x4b86>
 1006064:	8522                	mv	a0,s0
 1006066:	6402                	ld	s0,0(sp)
 1006068:	60a2                	ld	ra,8(sp)
 100606a:	00006317          	auipc	t1,0x6
 100606e:	0a633303          	ld	t1,166(t1) # 100c110 <__spl_start+0xac20>
 1006072:	0141                	addi	sp,sp,16
 1006074:	8302                	jr	t1
 1006076:	60a2                	ld	ra,8(sp)
 1006078:	6402                	ld	s0,0(sp)
 100607a:	0141                	addi	sp,sp,16
 100607c:	8082                	ret
 100607e:	872a                	mv	a4,a0
 1006080:	0a81b503          	ld	a0,168(gp)
 1006084:	cd01                	beqz	a0,100609c <__spl_start+0x4bac>
 1006086:	0c81b683          	ld	a3,200(gp)
 100608a:	629c                	ld	a5,0(a3)
 100608c:	fe078513          	addi	a0,a5,-32
 1006090:	02050793          	addi	a5,a0,32
 1006094:	7110                	ld	a2,32(a0)
 1006096:	00f69463          	bne	a3,a5,100609e <__spl_start+0x4bae>
 100609a:	4501                	li	a0,0
 100609c:	8082                	ret
 100609e:	651c                	ld	a5,8(a0)
 10060a0:	479c                	lw	a5,8(a5)
 10060a2:	fee78de3          	beq	a5,a4,100609c <__spl_start+0x4bac>
 10060a6:	fe060513          	addi	a0,a2,-32
 10060aa:	b7dd                	j	1006090 <__spl_start+0x4ba0>
 10060ac:	6108                	ld	a0,0(a0)
 10060ae:	8082                	ret
 10060b0:	e10c                	sd	a1,0(a0)
 10060b2:	8082                	ret
 10060b4:	7179                	addi	sp,sp,-48
 10060b6:	f022                	sd	s0,32(sp)
 10060b8:	e44e                	sd	s3,8(sp)
 10060ba:	f406                	sd	ra,40(sp)
 10060bc:	ec26                	sd	s1,24(sp)
 10060be:	e84a                	sd	s2,16(sp)
 10060c0:	0005b023          	sd	zero,0(a1)
 10060c4:	842a                	mv	s0,a0
 10060c6:	89ae                	mv	s3,a1
 10060c8:	fb7ff0ef          	jal	ra,100607e <__spl_start+0x4b8e>
 10060cc:	e955                	bnez	a0,1006180 <__spl_start+0x4c90>
 10060ce:	0009b023          	sd	zero,0(s3)
 10060d2:	8522                	mv	a0,s0
 10060d4:	bbfff0ef          	jal	ra,1005c92 <__spl_start+0x47a2>
 10060d8:	892a                	mv	s2,a0
 10060da:	fa000493          	li	s1,-96
 10060de:	c159                	beqz	a0,1006164 <__spl_start+0x4c74>
 10060e0:	03000593          	li	a1,48
 10060e4:	4505                	li	a0,1
 10060e6:	e98fd0ef          	jal	ra,100377e <__spl_start+0x228e>
 10060ea:	842a                	mv	s0,a0
 10060ec:	54d1                	li	s1,-12
 10060ee:	c93d                	beqz	a0,1006164 <__spl_start+0x4c74>
 10060f0:	06092583          	lw	a1,96(s2)
 10060f4:	c989                	beqz	a1,1006106 <__spl_start+0x4c16>
 10060f6:	4505                	li	a0,1
 10060f8:	e86fd0ef          	jal	ra,100377e <__spl_start+0x228e>
 10060fc:	85aa                	mv	a1,a0
 10060fe:	cd3d                	beqz	a0,100617c <__spl_start+0x4c8c>
 1006100:	8522                	mv	a0,s0
 1006102:	fafff0ef          	jal	ra,10060b0 <__spl_start+0x4bc0>
 1006106:	02040793          	addi	a5,s0,32
 100610a:	01040713          	addi	a4,s0,16
 100610e:	f01c                	sd	a5,32(s0)
 1006110:	f41c                	sd	a5,40(s0)
 1006112:	01243423          	sd	s2,8(s0)
 1006116:	e818                	sd	a4,16(s0)
 1006118:	ec18                	sd	a4,24(s0)
 100611a:	0c81b703          	ld	a4,200(gp)
 100611e:	6314                	ld	a3,0(a4)
 1006120:	e69c                	sd	a5,8(a3)
 1006122:	f014                	sd	a3,32(s0)
 1006124:	f418                	sd	a4,40(s0)
 1006126:	e31c                	sd	a5,0(a4)
 1006128:	05093783          	ld	a5,80(s2)
 100612c:	c7a1                	beqz	a5,1006174 <__spl_start+0x4c84>
 100612e:	8522                	mv	a0,s0
 1006130:	9782                	jalr	a5
 1006132:	84aa                	mv	s1,a0
 1006134:	c121                	beqz	a0,1006174 <__spl_start+0x4c84>
 1006136:	06092783          	lw	a5,96(s2)
 100613a:	cb91                	beqz	a5,100614e <__spl_start+0x4c5e>
 100613c:	8522                	mv	a0,s0
 100613e:	f6fff0ef          	jal	ra,10060ac <__spl_start+0x4bbc>
 1006142:	fabfc0ef          	jal	ra,10030ec <__spl_start+0x1bfc>
 1006146:	4581                	li	a1,0
 1006148:	8522                	mv	a0,s0
 100614a:	f67ff0ef          	jal	ra,10060b0 <__spl_start+0x4bc0>
 100614e:	741c                	ld	a5,40(s0)
 1006150:	7018                	ld	a4,32(s0)
 1006152:	e71c                	sd	a5,8(a4)
 1006154:	e398                	sd	a4,0(a5)
 1006156:	02043023          	sd	zero,32(s0)
 100615a:	02043423          	sd	zero,40(s0)
 100615e:	8522                	mv	a0,s0
 1006160:	f8dfc0ef          	jal	ra,10030ec <__spl_start+0x1bfc>
 1006164:	70a2                	ld	ra,40(sp)
 1006166:	7402                	ld	s0,32(sp)
 1006168:	6942                	ld	s2,16(sp)
 100616a:	69a2                	ld	s3,8(sp)
 100616c:	8526                	mv	a0,s1
 100616e:	64e2                	ld	s1,24(sp)
 1006170:	6145                	addi	sp,sp,48
 1006172:	8082                	ret
 1006174:	0089b023          	sd	s0,0(s3)
 1006178:	4481                	li	s1,0
 100617a:	b7ed                	j	1006164 <__spl_start+0x4c74>
 100617c:	54d1                	li	s1,-12
 100617e:	b7c5                	j	100615e <__spl_start+0x4c6e>
 1006180:	00a9b023          	sd	a0,0(s3)
 1006184:	bfd5                	j	1006178 <__spl_start+0x4c88>
 1006186:	7179                	addi	sp,sp,-48
 1006188:	f022                	sd	s0,32(sp)
 100618a:	ec26                	sd	s1,24(sp)
 100618c:	f406                	sd	ra,40(sp)
 100618e:	842e                	mv	s0,a1
 1006190:	00063023          	sd	zero,0(a2)
 1006194:	002c                	addi	a1,sp,8
 1006196:	84b2                	mv	s1,a2
 1006198:	f1dff0ef          	jal	ra,10060b4 <__spl_start+0x4bc4>
 100619c:	e505                	bnez	a0,10061c4 <__spl_start+0x4cd4>
 100619e:	67a2                	ld	a5,8(sp)
 10061a0:	01078713          	addi	a4,a5,16
 10061a4:	6b9c                	ld	a5,16(a5)
 10061a6:	00f70b63          	beq	a4,a5,10061bc <__spl_start+0x4ccc>
 10061aa:	fa878793          	addi	a5,a5,-88
 10061ae:	0004059b          	sext.w	a1,s0
 10061b2:	05878693          	addi	a3,a5,88
 10061b6:	6fb0                	ld	a2,88(a5)
 10061b8:	00d71463          	bne	a4,a3,10061c0 <__spl_start+0x4cd0>
 10061bc:	5535                	li	a0,-19
 10061be:	a019                	j	10061c4 <__spl_start+0x4cd4>
 10061c0:	e599                	bnez	a1,10061ce <__spl_start+0x4cde>
 10061c2:	e09c                	sd	a5,0(s1)
 10061c4:	70a2                	ld	ra,40(sp)
 10061c6:	7402                	ld	s0,32(sp)
 10061c8:	64e2                	ld	s1,24(sp)
 10061ca:	6145                	addi	sp,sp,48
 10061cc:	8082                	ret
 10061ce:	fa860793          	addi	a5,a2,-88
 10061d2:	35fd                	addiw	a1,a1,-1
 10061d4:	bff9                	j	10061b2 <__spl_start+0x4cc2>
 10061d6:	1101                	addi	sp,sp,-32
 10061d8:	e822                	sd	s0,16(sp)
 10061da:	ec06                	sd	ra,24(sp)
 10061dc:	842e                	mv	s0,a1
 10061de:	0005b023          	sd	zero,0(a1)
 10061e2:	002c                	addi	a1,sp,8
 10061e4:	ed1ff0ef          	jal	ra,10060b4 <__spl_start+0x4bc4>
 10061e8:	e909                	bnez	a0,10061fa <__spl_start+0x4d0a>
 10061ea:	6722                	ld	a4,8(sp)
 10061ec:	6b1c                	ld	a5,16(a4)
 10061ee:	0741                	addi	a4,a4,16
 10061f0:	00e78563          	beq	a5,a4,10061fa <__spl_start+0x4d0a>
 10061f4:	fa878793          	addi	a5,a5,-88
 10061f8:	e01c                	sd	a5,0(s0)
 10061fa:	60e2                	ld	ra,24(sp)
 10061fc:	6442                	ld	s0,16(sp)
 10061fe:	6105                	addi	sp,sp,32
 1006200:	8082                	ret
 1006202:	6118                	ld	a4,0(a0)
 1006204:	00053023          	sd	zero,0(a0)
 1006208:	6f3c                	ld	a5,88(a4)
 100620a:	6338                	ld	a4,64(a4)
 100620c:	0741                	addi	a4,a4,16
 100620e:	00e78563          	beq	a5,a4,1006218 <__spl_start+0x4d28>
 1006212:	fa878793          	addi	a5,a5,-88
 1006216:	e11c                	sd	a5,0(a0)
 1006218:	4501                	li	a0,0
 100621a:	8082                	ret
 100621c:	691c                	ld	a5,16(a0)
 100621e:	577d                	li	a4,-1
 1006220:	0541                	addi	a0,a0,16
 1006222:	fa878793          	addi	a5,a5,-88
 1006226:	05878693          	addi	a3,a5,88
 100622a:	6fb0                	ld	a2,88(a5)
 100622c:	00a69563          	bne	a3,a0,1006236 <__spl_start+0x4d46>
 1006230:	0017051b          	addiw	a0,a4,1
 1006234:	8082                	ret
 1006236:	08c7a683          	lw	a3,140(a5)
 100623a:	87b6                	mv	a5,a3
 100623c:	00e6d363          	bge	a3,a4,1006242 <__spl_start+0x4d52>
 1006240:	87ba                	mv	a5,a4
 1006242:	0007871b          	sext.w	a4,a5
 1006246:	fa860793          	addi	a5,a2,-88
 100624a:	bff1                	j	1006226 <__spl_start+0x4d36>
 100624c:	00063023          	sd	zero,0(a2)
 1006250:	57fd                	li	a5,-1
 1006252:	00f59463          	bne	a1,a5,100625a <__spl_start+0x4d6a>
 1006256:	5535                	li	a0,-19
 1006258:	8082                	ret
 100625a:	7179                	addi	sp,sp,-48
 100625c:	f022                	sd	s0,32(sp)
 100625e:	842e                	mv	s0,a1
 1006260:	002c                	addi	a1,sp,8
 1006262:	ec26                	sd	s1,24(sp)
 1006264:	f406                	sd	ra,40(sp)
 1006266:	84b2                	mv	s1,a2
 1006268:	e4dff0ef          	jal	ra,10060b4 <__spl_start+0x4bc4>
 100626c:	ed01                	bnez	a0,1006284 <__spl_start+0x4d94>
 100626e:	6722                	ld	a4,8(sp)
 1006270:	6b1c                	ld	a5,16(a4)
 1006272:	0741                	addi	a4,a4,16
 1006274:	fa878793          	addi	a5,a5,-88
 1006278:	05878693          	addi	a3,a5,88
 100627c:	6fb0                	ld	a2,88(a5)
 100627e:	00e69863          	bne	a3,a4,100628e <__spl_start+0x4d9e>
 1006282:	5535                	li	a0,-19
 1006284:	70a2                	ld	ra,40(sp)
 1006286:	7402                	ld	s0,32(sp)
 1006288:	64e2                	ld	s1,24(sp)
 100628a:	6145                	addi	sp,sp,48
 100628c:	8082                	ret
 100628e:	08c7a683          	lw	a3,140(a5)
 1006292:	00869463          	bne	a3,s0,100629a <__spl_start+0x4daa>
 1006296:	e09c                	sd	a5,0(s1)
 1006298:	b7f5                	j	1006284 <__spl_start+0x4d94>
 100629a:	fa860793          	addi	a5,a2,-88
 100629e:	bfe9                	j	1006278 <__spl_start+0x4d88>
 10062a0:	00063023          	sd	zero,0(a2)
 10062a4:	0005d463          	bgez	a1,10062ac <__spl_start+0x4dbc>
 10062a8:	5535                	li	a0,-19
 10062aa:	8082                	ret
 10062ac:	7179                	addi	sp,sp,-48
 10062ae:	f022                	sd	s0,32(sp)
 10062b0:	842e                	mv	s0,a1
 10062b2:	002c                	addi	a1,sp,8
 10062b4:	ec26                	sd	s1,24(sp)
 10062b6:	f406                	sd	ra,40(sp)
 10062b8:	84b2                	mv	s1,a2
 10062ba:	dfbff0ef          	jal	ra,10060b4 <__spl_start+0x4bc4>
 10062be:	ed01                	bnez	a0,10062d6 <__spl_start+0x4de6>
 10062c0:	6722                	ld	a4,8(sp)
 10062c2:	6b1c                	ld	a5,16(a4)
 10062c4:	0741                	addi	a4,a4,16
 10062c6:	fa878793          	addi	a5,a5,-88
 10062ca:	05878693          	addi	a3,a5,88
 10062ce:	6fb0                	ld	a2,88(a5)
 10062d0:	00e69863          	bne	a3,a4,10062e0 <__spl_start+0x4df0>
 10062d4:	5535                	li	a0,-19
 10062d6:	70a2                	ld	ra,40(sp)
 10062d8:	7402                	ld	s0,32(sp)
 10062da:	64e2                	ld	s1,24(sp)
 10062dc:	6145                	addi	sp,sp,48
 10062de:	8082                	ret
 10062e0:	0907a683          	lw	a3,144(a5)
 10062e4:	00d41463          	bne	s0,a3,10062ec <__spl_start+0x4dfc>
 10062e8:	e09c                	sd	a5,0(s1)
 10062ea:	b7f5                	j	10062d6 <__spl_start+0x4de6>
 10062ec:	fa860793          	addi	a5,a2,-88
 10062f0:	bfe9                	j	10062ca <__spl_start+0x4dda>
 10062f2:	00063023          	sd	zero,0(a2)
 10062f6:	0005d463          	bgez	a1,10062fe <__spl_start+0x4e0e>
 10062fa:	5535                	li	a0,-19
 10062fc:	8082                	ret
 10062fe:	7179                	addi	sp,sp,-48
 1006300:	f022                	sd	s0,32(sp)
 1006302:	842e                	mv	s0,a1
 1006304:	002c                	addi	a1,sp,8
 1006306:	ec26                	sd	s1,24(sp)
 1006308:	f406                	sd	ra,40(sp)
 100630a:	84b2                	mv	s1,a2
 100630c:	da9ff0ef          	jal	ra,10060b4 <__spl_start+0x4bc4>
 1006310:	ed01                	bnez	a0,1006328 <__spl_start+0x4e38>
 1006312:	6722                	ld	a4,8(sp)
 1006314:	6b1c                	ld	a5,16(a4)
 1006316:	0741                	addi	a4,a4,16
 1006318:	fa878793          	addi	a5,a5,-88
 100631c:	05878693          	addi	a3,a5,88
 1006320:	6fb0                	ld	a2,88(a5)
 1006322:	00e69863          	bne	a3,a4,1006332 <__spl_start+0x4e42>
 1006326:	5535                	li	a0,-19
 1006328:	70a2                	ld	ra,40(sp)
 100632a:	7402                	ld	s0,32(sp)
 100632c:	64e2                	ld	s1,24(sp)
 100632e:	6145                	addi	sp,sp,48
 1006330:	8082                	ret
 1006332:	6bd4                	ld	a3,144(a5)
 1006334:	00869463          	bne	a3,s0,100633c <__spl_start+0x4e4c>
 1006338:	e09c                	sd	a5,0(s1)
 100633a:	b7fd                	j	1006328 <__spl_start+0x4e38>
 100633c:	fa860793          	addi	a5,a2,-88
 1006340:	bff1                	j	100631c <__spl_start+0x4e2c>
 1006342:	e195                	bnez	a1,1006366 <__spl_start+0x4e76>
 1006344:	1101                	addi	sp,sp,-32
 1006346:	e822                	sd	s0,16(sp)
 1006348:	e426                	sd	s1,8(sp)
 100634a:	ec06                	sd	ra,24(sp)
 100634c:	84aa                	mv	s1,a0
 100634e:	8432                	mv	s0,a2
 1006350:	da4ff0ef          	jal	ra,10058f4 <__spl_start+0x4404>
 1006354:	85aa                	mv	a1,a0
 1006356:	e111                	bnez	a0,100635a <__spl_start+0x4e6a>
 1006358:	e004                	sd	s1,0(s0)
 100635a:	60e2                	ld	ra,24(sp)
 100635c:	6442                	ld	s0,16(sp)
 100635e:	64a2                	ld	s1,8(sp)
 1006360:	852e                	mv	a0,a1
 1006362:	6105                	addi	sp,sp,32
 1006364:	8082                	ret
 1006366:	852e                	mv	a0,a1
 1006368:	8082                	ret
 100636a:	7179                	addi	sp,sp,-48
 100636c:	f022                	sd	s0,32(sp)
 100636e:	842e                	mv	s0,a1
 1006370:	082c                	addi	a1,sp,24
 1006372:	f406                	sd	ra,40(sp)
 1006374:	e432                	sd	a2,8(sp)
 1006376:	d3fff0ef          	jal	ra,10060b4 <__spl_start+0x4bc4>
 100637a:	e505                	bnez	a0,10063a2 <__spl_start+0x4eb2>
 100637c:	67e2                	ld	a5,24(sp)
 100637e:	6622                	ld	a2,8(sp)
 1006380:	6b88                	ld	a0,16(a5)
 1006382:	07c1                	addi	a5,a5,16
 1006384:	fa850513          	addi	a0,a0,-88
 1006388:	05850713          	addi	a4,a0,88
 100638c:	6d34                	ld	a3,88(a0)
 100638e:	00f71463          	bne	a4,a5,1006396 <__spl_start+0x4ea6>
 1006392:	5535                	li	a0,-19
 1006394:	a039                	j	10063a2 <__spl_start+0x4eb2>
 1006396:	6118                	ld	a4,0(a0)
 1006398:	00871963          	bne	a4,s0,10063aa <__spl_start+0x4eba>
 100639c:	4581                	li	a1,0
 100639e:	fa5ff0ef          	jal	ra,1006342 <__spl_start+0x4e52>
 10063a2:	70a2                	ld	ra,40(sp)
 10063a4:	7402                	ld	s0,32(sp)
 10063a6:	6145                	addi	sp,sp,48
 10063a8:	8082                	ret
 10063aa:	fa868513          	addi	a0,a3,-88
 10063ae:	bfe9                	j	1006388 <__spl_start+0x4e98>
 10063b0:	1101                	addi	sp,sp,-32
 10063b2:	ec06                	sd	ra,24(sp)
 10063b4:	e822                	sd	s0,16(sp)
 10063b6:	00063023          	sd	zero,0(a2)
 10063ba:	8432                	mv	s0,a2
 10063bc:	0030                	addi	a2,sp,8
 10063be:	dc9ff0ef          	jal	ra,1006186 <__spl_start+0x4c96>
 10063c2:	85aa                	mv	a1,a0
 10063c4:	6522                	ld	a0,8(sp)
 10063c6:	8622                	mv	a2,s0
 10063c8:	f7bff0ef          	jal	ra,1006342 <__spl_start+0x4e52>
 10063cc:	60e2                	ld	ra,24(sp)
 10063ce:	6442                	ld	s0,16(sp)
 10063d0:	6105                	addi	sp,sp,32
 10063d2:	8082                	ret
 10063d4:	1101                	addi	sp,sp,-32
 10063d6:	ec06                	sd	ra,24(sp)
 10063d8:	e822                	sd	s0,16(sp)
 10063da:	00063023          	sd	zero,0(a2)
 10063de:	8432                	mv	s0,a2
 10063e0:	0030                	addi	a2,sp,8
 10063e2:	e6bff0ef          	jal	ra,100624c <__spl_start+0x4d5c>
 10063e6:	85aa                	mv	a1,a0
 10063e8:	6522                	ld	a0,8(sp)
 10063ea:	8622                	mv	a2,s0
 10063ec:	f57ff0ef          	jal	ra,1006342 <__spl_start+0x4e52>
 10063f0:	60e2                	ld	ra,24(sp)
 10063f2:	6442                	ld	s0,16(sp)
 10063f4:	6105                	addi	sp,sp,32
 10063f6:	8082                	ret
 10063f8:	1101                	addi	sp,sp,-32
 10063fa:	ec06                	sd	ra,24(sp)
 10063fc:	e822                	sd	s0,16(sp)
 10063fe:	00063023          	sd	zero,0(a2)
 1006402:	8432                	mv	s0,a2
 1006404:	0030                	addi	a2,sp,8
 1006406:	e9bff0ef          	jal	ra,10062a0 <__spl_start+0x4db0>
 100640a:	85aa                	mv	a1,a0
 100640c:	6522                	ld	a0,8(sp)
 100640e:	8622                	mv	a2,s0
 1006410:	f33ff0ef          	jal	ra,1006342 <__spl_start+0x4e52>
 1006414:	60e2                	ld	ra,24(sp)
 1006416:	6442                	ld	s0,16(sp)
 1006418:	6105                	addi	sp,sp,32
 100641a:	8082                	ret
 100641c:	1101                	addi	sp,sp,-32
 100641e:	ec06                	sd	ra,24(sp)
 1006420:	e822                	sd	s0,16(sp)
 1006422:	00063023          	sd	zero,0(a2)
 1006426:	8432                	mv	s0,a2
 1006428:	0030                	addi	a2,sp,8
 100642a:	ec9ff0ef          	jal	ra,10062f2 <__spl_start+0x4e02>
 100642e:	85aa                	mv	a1,a0
 1006430:	6522                	ld	a0,8(sp)
 1006432:	8622                	mv	a2,s0
 1006434:	f0fff0ef          	jal	ra,1006342 <__spl_start+0x4e52>
 1006438:	60e2                	ld	ra,24(sp)
 100643a:	6442                	ld	s0,16(sp)
 100643c:	6105                	addi	sp,sp,32
 100643e:	8082                	ret
 1006440:	7179                	addi	sp,sp,-48
 1006442:	f406                	sd	ra,40(sp)
 1006444:	0005b023          	sd	zero,0(a1)
 1006448:	e42e                	sd	a1,8(sp)
 100644a:	082c                	addi	a1,sp,24
 100644c:	d8bff0ef          	jal	ra,10061d6 <__spl_start+0x4ce6>
 1006450:	85aa                	mv	a1,a0
 1006452:	6562                	ld	a0,24(sp)
 1006454:	c519                	beqz	a0,1006462 <__spl_start+0x4f72>
 1006456:	6622                	ld	a2,8(sp)
 1006458:	eebff0ef          	jal	ra,1006342 <__spl_start+0x4e52>
 100645c:	70a2                	ld	ra,40(sp)
 100645e:	6145                	addi	sp,sp,48
 1006460:	8082                	ret
 1006462:	4501                	li	a0,0
 1006464:	bfe5                	j	100645c <__spl_start+0x4f6c>
 1006466:	1141                	addi	sp,sp,-16
 1006468:	e022                	sd	s0,0(sp)
 100646a:	e406                	sd	ra,8(sp)
 100646c:	842e                	mv	s0,a1
 100646e:	fd3ff0ef          	jal	ra,1006440 <__spl_start+0x4f50>
 1006472:	e501                	bnez	a0,100647a <__spl_start+0x4f8a>
 1006474:	601c                	ld	a5,0(s0)
 1006476:	e391                	bnez	a5,100647a <__spl_start+0x4f8a>
 1006478:	5535                	li	a0,-19
 100647a:	60a2                	ld	ra,8(sp)
 100647c:	6402                	ld	s0,0(sp)
 100647e:	0141                	addi	sp,sp,16
 1006480:	8082                	ret
 1006482:	7179                	addi	sp,sp,-48
 1006484:	f406                	sd	ra,40(sp)
 1006486:	611c                	ld	a5,0(a0)
 1006488:	e42a                	sd	a0,8(sp)
 100648a:	00053023          	sd	zero,0(a0)
 100648e:	0828                	addi	a0,sp,24
 1006490:	ec3e                	sd	a5,24(sp)
 1006492:	d71ff0ef          	jal	ra,1006202 <__spl_start+0x4d12>
 1006496:	85aa                	mv	a1,a0
 1006498:	6562                	ld	a0,24(sp)
 100649a:	c519                	beqz	a0,10064a8 <__spl_start+0x4fb8>
 100649c:	6622                	ld	a2,8(sp)
 100649e:	ea5ff0ef          	jal	ra,1006342 <__spl_start+0x4e52>
 10064a2:	70a2                	ld	ra,40(sp)
 10064a4:	6145                	addi	sp,sp,48
 10064a6:	8082                	ret
 10064a8:	4501                	li	a0,0
 10064aa:	bfe5                	j	10064a2 <__spl_start+0x4fb2>
 10064ac:	1141                	addi	sp,sp,-16
 10064ae:	e022                	sd	s0,0(sp)
 10064b0:	e406                	sd	ra,8(sp)
 10064b2:	842a                	mv	s0,a0
 10064b4:	fcfff0ef          	jal	ra,1006482 <__spl_start+0x4f92>
 10064b8:	e501                	bnez	a0,10064c0 <__spl_start+0x4fd0>
 10064ba:	601c                	ld	a5,0(s0)
 10064bc:	e391                	bnez	a5,10064c0 <__spl_start+0x4fd0>
 10064be:	5535                	li	a0,-19
 10064c0:	60a2                	ld	ra,8(sp)
 10064c2:	6402                	ld	s0,0(sp)
 10064c4:	0141                	addi	sp,sp,16
 10064c6:	8082                	ret
 10064c8:	613c                	ld	a5,64(a0)
 10064ca:	05850693          	addi	a3,a0,88
 10064ce:	6f98                	ld	a4,24(a5)
 10064d0:	ef94                	sd	a3,24(a5)
 10064d2:	07c1                	addi	a5,a5,16
 10064d4:	ed3c                	sd	a5,88(a0)
 10064d6:	f138                	sd	a4,96(a0)
 10064d8:	e314                	sd	a3,0(a4)
 10064da:	791c                	ld	a5,48(a0)
 10064dc:	cb95                	beqz	a5,1006510 <__spl_start+0x5020>
 10064de:	63bc                	ld	a5,64(a5)
 10064e0:	679c                	ld	a5,8(a5)
 10064e2:	7f98                	ld	a4,56(a5)
 10064e4:	4781                	li	a5,0
 10064e6:	c715                	beqz	a4,1006512 <__spl_start+0x5022>
 10064e8:	1141                	addi	sp,sp,-16
 10064ea:	e022                	sd	s0,0(sp)
 10064ec:	e406                	sd	ra,8(sp)
 10064ee:	842a                	mv	s0,a0
 10064f0:	9702                	jalr	a4
 10064f2:	87aa                	mv	a5,a0
 10064f4:	c909                	beqz	a0,1006506 <__spl_start+0x5016>
 10064f6:	7038                	ld	a4,96(s0)
 10064f8:	6c34                	ld	a3,88(s0)
 10064fa:	e698                	sd	a4,8(a3)
 10064fc:	e314                	sd	a3,0(a4)
 10064fe:	04043c23          	sd	zero,88(s0)
 1006502:	06043023          	sd	zero,96(s0)
 1006506:	60a2                	ld	ra,8(sp)
 1006508:	6402                	ld	s0,0(sp)
 100650a:	853e                	mv	a0,a5
 100650c:	0141                	addi	sp,sp,16
 100650e:	8082                	ret
 1006510:	4781                	li	a5,0
 1006512:	853e                	mv	a0,a5
 1006514:	8082                	ret
 1006516:	1141                	addi	sp,sp,-16
 1006518:	e022                	sd	s0,0(sp)
 100651a:	e406                	sd	ra,8(sp)
 100651c:	613c                	ld	a5,64(a0)
 100651e:	842a                	mv	s0,a0
 1006520:	679c                	ld	a5,8(a5)
 1006522:	739c                	ld	a5,32(a5)
 1006524:	e789                	bnez	a5,100652e <__spl_start+0x503e>
 1006526:	781c                	ld	a5,48(s0)
 1006528:	eb89                	bnez	a5,100653a <__spl_start+0x504a>
 100652a:	4501                	li	a0,0
 100652c:	a019                	j	1006532 <__spl_start+0x5042>
 100652e:	9782                	jalr	a5
 1006530:	d97d                	beqz	a0,1006526 <__spl_start+0x5036>
 1006532:	60a2                	ld	ra,8(sp)
 1006534:	6402                	ld	s0,0(sp)
 1006536:	0141                	addi	sp,sp,16
 1006538:	8082                	ret
 100653a:	63bc                	ld	a5,64(a5)
 100653c:	679c                	ld	a5,8(a5)
 100653e:	63bc                	ld	a5,64(a5)
 1006540:	d7ed                	beqz	a5,100652a <__spl_start+0x503a>
 1006542:	8522                	mv	a0,s0
 1006544:	6402                	ld	s0,0(sp)
 1006546:	60a2                	ld	ra,8(sp)
 1006548:	0141                	addi	sp,sp,16
 100654a:	8782                	jr	a5
 100654c:	1141                	addi	sp,sp,-16
 100654e:	e022                	sd	s0,0(sp)
 1006550:	e406                	sd	ra,8(sp)
 1006552:	791c                	ld	a5,48(a0)
 1006554:	842a                	mv	s0,a0
 1006556:	eb99                	bnez	a5,100656c <__spl_start+0x507c>
 1006558:	603c                	ld	a5,64(s0)
 100655a:	4501                	li	a0,0
 100655c:	679c                	ld	a5,8(a5)
 100655e:	779c                	ld	a5,40(a5)
 1006560:	cf81                	beqz	a5,1006578 <__spl_start+0x5088>
 1006562:	8522                	mv	a0,s0
 1006564:	6402                	ld	s0,0(sp)
 1006566:	60a2                	ld	ra,8(sp)
 1006568:	0141                	addi	sp,sp,16
 100656a:	8782                	jr	a5
 100656c:	63bc                	ld	a5,64(a5)
 100656e:	679c                	ld	a5,8(a5)
 1006570:	67bc                	ld	a5,72(a5)
 1006572:	d3fd                	beqz	a5,1006558 <__spl_start+0x5068>
 1006574:	9782                	jalr	a5
 1006576:	d16d                	beqz	a0,1006558 <__spl_start+0x5068>
 1006578:	60a2                	ld	ra,8(sp)
 100657a:	6402                	ld	s0,0(sp)
 100657c:	0141                	addi	sp,sp,16
 100657e:	8082                	ret
 1006580:	7179                	addi	sp,sp,-48
 1006582:	f022                	sd	s0,32(sp)
 1006584:	ec26                	sd	s1,24(sp)
 1006586:	f406                	sd	ra,40(sp)
 1006588:	84aa                	mv	s1,a0
 100658a:	a1eff0ef          	jal	ra,10057a8 <__spl_start+0x42b8>
 100658e:	842a                	mv	s0,a0
 1006590:	68c8                	ld	a0,144(s1)
 1006592:	468d                	li	a3,3
 1006594:	860a                	mv	a2,sp
 1006596:	00003597          	auipc	a1,0x3
 100659a:	9e258593          	addi	a1,a1,-1566 # 1008f78 <__spl_start+0x7a88>
 100659e:	12e000ef          	jal	ra,10066cc <__spl_start+0x51dc>
 10065a2:	e911                	bnez	a0,10065b6 <__spl_start+0x50c6>
 10065a4:	00016783          	lwu	a5,0(sp)
 10065a8:	e01c                	sd	a5,0(s0)
 10065aa:	00416783          	lwu	a5,4(sp)
 10065ae:	e81c                	sd	a5,16(s0)
 10065b0:	00816783          	lwu	a5,8(sp)
 10065b4:	e41c                	sd	a5,8(s0)
 10065b6:	7402                	ld	s0,32(sp)
 10065b8:	70a2                	ld	ra,40(sp)
 10065ba:	8526                	mv	a0,s1
 10065bc:	64e2                	ld	s1,24(sp)
 10065be:	6145                	addi	sp,sp,48
 10065c0:	a0fff06f          	j	1005fce <__spl_start+0x4ade>
 10065c4:	1141                	addi	sp,sp,-16
 10065c6:	e022                	sd	s0,0(sp)
 10065c8:	e406                	sd	ra,8(sp)
 10065ca:	842e                	mv	s0,a1
 10065cc:	9dcff0ef          	jal	ra,10057a8 <__spl_start+0x42b8>
 10065d0:	611c                	ld	a5,0(a0)
 10065d2:	00f46963          	bltu	s0,a5,10065e4 <__spl_start+0x50f4>
 10065d6:	6518                	ld	a4,8(a0)
 10065d8:	973e                	add	a4,a4,a5
 10065da:	00e47563          	bgeu	s0,a4,10065e4 <__spl_start+0x50f4>
 10065de:	6918                	ld	a4,16(a0)
 10065e0:	943a                	add	s0,s0,a4
 10065e2:	8c1d                	sub	s0,s0,a5
 10065e4:	60a2                	ld	ra,8(sp)
 10065e6:	8522                	mv	a0,s0
 10065e8:	6402                	ld	s0,0(sp)
 10065ea:	0141                	addi	sp,sp,16
 10065ec:	8082                	ret
 10065ee:	7179                	addi	sp,sp,-48
 10065f0:	f022                	sd	s0,32(sp)
 10065f2:	ec26                	sd	s1,24(sp)
 10065f4:	f406                	sd	ra,40(sp)
 10065f6:	8432                	mv	s0,a2
 10065f8:	862e                	mv	a2,a1
 10065fa:	0005059b          	sext.w	a1,a0
 10065fe:	0d81b503          	ld	a0,216(gp)
 1006602:	84b6                	mv	s1,a3
 1006604:	0074                	addi	a3,sp,12
 1006606:	e03fd0ef          	jal	ra,1004408 <__spl_start+0x2f18>
 100660a:	c531                	beqz	a0,1006656 <__spl_start+0x5166>
 100660c:	4732                	lw	a4,12(sp)
 100660e:	0014061b          	addiw	a2,s0,1
 1006612:	060a                	slli	a2,a2,0x2
 1006614:	87aa                	mv	a5,a0
 1006616:	fb500513          	li	a0,-75
 100661a:	02c76963          	bltu	a4,a2,100664c <__spl_start+0x515c>
 100661e:	97b2                	add	a5,a5,a2
 1006620:	ffc7a783          	lw	a5,-4(a5)
 1006624:	00ff0637          	lui	a2,0xff0
 1006628:	4501                	li	a0,0
 100662a:	0187d69b          	srliw	a3,a5,0x18
 100662e:	0187971b          	slliw	a4,a5,0x18
 1006632:	8f55                	or	a4,a4,a3
 1006634:	0087969b          	slliw	a3,a5,0x8
 1006638:	8ef1                	and	a3,a3,a2
 100663a:	8f55                	or	a4,a4,a3
 100663c:	66c1                	lui	a3,0x10
 100663e:	0087d79b          	srliw	a5,a5,0x8
 1006642:	f0068693          	addi	a3,a3,-256 # ff00 <_start-0xff0100>
 1006646:	8ff5                	and	a5,a5,a3
 1006648:	8fd9                	or	a5,a5,a4
 100664a:	c09c                	sw	a5,0(s1)
 100664c:	70a2                	ld	ra,40(sp)
 100664e:	7402                	ld	s0,32(sp)
 1006650:	64e2                	ld	s1,24(sp)
 1006652:	6145                	addi	sp,sp,48
 1006654:	8082                	ret
 1006656:	5529                	li	a0,-22
 1006658:	bfd5                	j	100664c <__spl_start+0x515c>
 100665a:	86b2                	mv	a3,a2
 100665c:	4601                	li	a2,0
 100665e:	bf41                	j	10065ee <__spl_start+0x50fe>
 1006660:	1101                	addi	sp,sp,-32
 1006662:	c632                	sw	a2,12(sp)
 1006664:	0074                	addi	a3,sp,12
 1006666:	4601                	li	a2,0
 1006668:	ec06                	sd	ra,24(sp)
 100666a:	f85ff0ef          	jal	ra,10065ee <__spl_start+0x50fe>
 100666e:	60e2                	ld	ra,24(sp)
 1006670:	4532                	lw	a0,12(sp)
 1006672:	6105                	addi	sp,sp,32
 1006674:	8082                	ret
 1006676:	1101                	addi	sp,sp,-32
 1006678:	e822                	sd	s0,16(sp)
 100667a:	ec06                	sd	ra,24(sp)
 100667c:	8432                	mv	s0,a2
 100667e:	862e                	mv	a2,a1
 1006680:	0005059b          	sext.w	a1,a0
 1006684:	0d81b503          	ld	a0,216(gp)
 1006688:	0074                	addi	a3,sp,12
 100668a:	d7ffd0ef          	jal	ra,1004408 <__spl_start+0x2f18>
 100668e:	e519                	bnez	a0,100669c <__spl_start+0x51ac>
 1006690:	57fd                	li	a5,-1
 1006692:	e419                	bnez	s0,10066a0 <__spl_start+0x51b0>
 1006694:	60e2                	ld	ra,24(sp)
 1006696:	6442                	ld	s0,16(sp)
 1006698:	6105                	addi	sp,sp,32
 100669a:	8082                	ret
 100669c:	dc65                	beqz	s0,1006694 <__spl_start+0x51a4>
 100669e:	47b2                	lw	a5,12(sp)
 10066a0:	c01c                	sw	a5,0(s0)
 10066a2:	bfcd                	j	1006694 <__spl_start+0x51a4>
 10066a4:	1101                	addi	sp,sp,-32
 10066a6:	0070                	addi	a2,sp,12
 10066a8:	ec06                	sd	ra,24(sp)
 10066aa:	e822                	sd	s0,16(sp)
 10066ac:	fcbff0ef          	jal	ra,1006676 <__spl_start+0x5186>
 10066b0:	c901                	beqz	a0,10066c0 <__spl_start+0x51d0>
 10066b2:	45b2                	lw	a1,12(sp)
 10066b4:	842a                	mv	s0,a0
 10066b6:	b0dfe0ef          	jal	ra,10051c2 <__spl_start+0x3cd2>
 10066ba:	47b2                	lw	a5,12(sp)
 10066bc:	00f56363          	bltu	a0,a5,10066c2 <__spl_start+0x51d2>
 10066c0:	4401                	li	s0,0
 10066c2:	60e2                	ld	ra,24(sp)
 10066c4:	8522                	mv	a0,s0
 10066c6:	6442                	ld	s0,16(sp)
 10066c8:	6105                	addi	sp,sp,32
 10066ca:	8082                	ret
 10066cc:	0006871b          	sext.w	a4,a3
 10066d0:	86b2                	mv	a3,a2
 10066d2:	862e                	mv	a2,a1
 10066d4:	0005059b          	sext.w	a1,a0
 10066d8:	0d81b503          	ld	a0,216(gp)
 10066dc:	feefe06f          	j	1004eca <__spl_start+0x39da>
 10066e0:	00054963          	bltz	a0,10066f2 <__spl_start+0x5202>
 10066e4:	0005059b          	sext.w	a1,a0
 10066e8:	0d81b503          	ld	a0,216(gp)
 10066ec:	4601                	li	a2,0
 10066ee:	ac1fd06f          	j	10041ae <__spl_start+0x2cbe>
 10066f2:	4501                	li	a0,0
 10066f4:	8082                	ret
 10066f6:	1141                	addi	sp,sp,-16
 10066f8:	e406                	sd	ra,8(sp)
 10066fa:	85aa                	mv	a1,a0
 10066fc:	0d81b503          	ld	a0,216(gp)
 1006700:	e19fd0ef          	jal	ra,1004518 <__spl_start+0x3028>
 1006704:	57fd                	li	a5,-1
 1006706:	00054363          	bltz	a0,100670c <__spl_start+0x521c>
 100670a:	87aa                	mv	a5,a0
 100670c:	60a2                	ld	ra,8(sp)
 100670e:	0007851b          	sext.w	a0,a5
 1006712:	0141                	addi	sp,sp,16
 1006714:	8082                	ret
 1006716:	1101                	addi	sp,sp,-32
 1006718:	e822                	sd	s0,16(sp)
 100671a:	842a                	mv	s0,a0
 100671c:	00002517          	auipc	a0,0x2
 1006720:	5bc50513          	addi	a0,a0,1468 # 1008cd8 <__spl_start+0x77e8>
 1006724:	ec06                	sd	ra,24(sp)
 1006726:	e42e                	sd	a1,8(sp)
 1006728:	fcfff0ef          	jal	ra,10066f6 <__spl_start+0x5206>
 100672c:	85a2                	mv	a1,s0
 100672e:	6442                	ld	s0,16(sp)
 1006730:	6622                	ld	a2,8(sp)
 1006732:	60e2                	ld	ra,24(sp)
 1006734:	6105                	addi	sp,sp,32
 1006736:	b781                	j	1006676 <__spl_start+0x5186>
 1006738:	1141                	addi	sp,sp,-16
 100673a:	4581                	li	a1,0
 100673c:	e406                	sd	ra,8(sp)
 100673e:	fd9ff0ef          	jal	ra,1006716 <__spl_start+0x5226>
 1006742:	c501                	beqz	a0,100674a <__spl_start+0x525a>
 1006744:	60a2                	ld	ra,8(sp)
 1006746:	0141                	addi	sp,sp,16
 1006748:	b77d                	j	10066f6 <__spl_start+0x5206>
 100674a:	60a2                	ld	ra,8(sp)
 100674c:	557d                	li	a0,-1
 100674e:	0141                	addi	sp,sp,16
 1006750:	8082                	ret
 1006752:	86b2                	mv	a3,a2
 1006754:	862e                	mv	a2,a1
 1006756:	0005059b          	sext.w	a1,a0
 100675a:	0d81b503          	ld	a0,216(gp)
 100675e:	cabfd06f          	j	1004408 <__spl_start+0x2f18>
 1006762:	1141                	addi	sp,sp,-16
 1006764:	4601                	li	a2,0
 1006766:	e406                	sd	ra,8(sp)
 1006768:	febff0ef          	jal	ra,1006752 <__spl_start+0x5262>
 100676c:	60a2                	ld	ra,8(sp)
 100676e:	00a03533          	snez	a0,a0
 1006772:	0141                	addi	sp,sp,16
 1006774:	8082                	ret
 1006776:	1141                	addi	sp,sp,-16
 1006778:	e406                	sd	ra,8(sp)
 100677a:	0005059b          	sext.w	a1,a0
 100677e:	0d81b503          	ld	a0,216(gp)
 1006782:	ebcfe0ef          	jal	ra,1004e3e <__spl_start+0x394e>
 1006786:	60a2                	ld	ra,8(sp)
 1006788:	00a03533          	snez	a0,a0
 100678c:	0141                	addi	sp,sp,16
 100678e:	8082                	ret
 1006790:	4505                	li	a0,1
 1006792:	8082                	ret
 1006794:	0592                	slli	a1,a1,0x4
 1006796:	95aa                	add	a1,a1,a0
 1006798:	419c                	lw	a5,0(a1)
 100679a:	c791                	beqz	a5,10067a6 <__spl_start+0x52b6>
 100679c:	0005a023          	sw	zero,0(a1)
 10067a0:	4785                	li	a5,1
 10067a2:	40f50023          	sb	a5,1024(a0)
 10067a6:	8082                	ret
 10067a8:	0592                	slli	a1,a1,0x4
 10067aa:	952e                	add	a0,a0,a1
 10067ac:	411c                	lw	a5,0(a0)
 10067ae:	c399                	beqz	a5,10067b4 <__spl_start+0x52c4>
 10067b0:	6508                	ld	a0,8(a0)
 10067b2:	8082                	ret
 10067b4:	4501                	li	a0,0
 10067b6:	8082                	ret
 10067b8:	872a                	mv	a4,a0
 10067ba:	4781                	li	a5,0
 10067bc:	04000613          	li	a2,64
 10067c0:	00479693          	slli	a3,a5,0x4
 10067c4:	96ba                	add	a3,a3,a4
 10067c6:	4294                	lw	a3,0(a3)
 10067c8:	0007851b          	sext.w	a0,a5
 10067cc:	ea91                	bnez	a3,10067e0 <__spl_start+0x52f0>
 10067ce:	00451793          	slli	a5,a0,0x4
 10067d2:	97ba                	add	a5,a5,a4
 10067d4:	4685                	li	a3,1
 10067d6:	c394                	sw	a3,0(a5)
 10067d8:	e78c                	sd	a1,8(a5)
 10067da:	40d70023          	sb	a3,1024(a4)
 10067de:	8082                	ret
 10067e0:	0785                	addi	a5,a5,1
 10067e2:	fcc79fe3          	bne	a5,a2,10067c0 <__spl_start+0x52d0>
 10067e6:	5511                	li	a0,-28
 10067e8:	8082                	ret
 10067ea:	1101                	addi	sp,sp,-32
 10067ec:	e822                	sd	s0,16(sp)
 10067ee:	ec06                	sd	ra,24(sp)
 10067f0:	412c                	lw	a1,64(a0)
 10067f2:	842a                	mv	s0,a0
 10067f4:	00013517          	auipc	a0,0x13
 10067f8:	d9c50513          	addi	a0,a0,-612 # 1019590 <__spl_src_start+0xc4a8>
 10067fc:	fadff0ef          	jal	ra,10067a8 <__spl_start+0x52b8>
 1006800:	56b5                	li	a3,-19
 1006802:	00851e63          	bne	a0,s0,100681e <__spl_start+0x532e>
 1006806:	15052683          	lw	a3,336(a0)
 100680a:	412c                	lw	a1,64(a0)
 100680c:	ce91                	beqz	a3,1006828 <__spl_start+0x5338>
 100680e:	7d10                	ld	a2,56(a0)
 1006810:	00002517          	auipc	a0,0x2
 1006814:	31050513          	addi	a0,a0,784 # 1008b20 <__spl_start+0x7630>
 1006818:	e7dfe0ef          	jal	ra,1005694 <__spl_start+0x41a4>
 100681c:	56c1                	li	a3,-16
 100681e:	60e2                	ld	ra,24(sp)
 1006820:	6442                	ld	s0,16(sp)
 1006822:	8536                	mv	a0,a3
 1006824:	6105                	addi	sp,sp,32
 1006826:	8082                	ret
 1006828:	00013517          	auipc	a0,0x13
 100682c:	d6850513          	addi	a0,a0,-664 # 1019590 <__spl_src_start+0xc4a8>
 1006830:	e436                	sd	a3,8(sp)
 1006832:	f63ff0ef          	jal	ra,1006794 <__spl_start+0x52a4>
 1006836:	66a2                	ld	a3,8(sp)
 1006838:	b7dd                	j	100681e <__spl_start+0x532e>
 100683a:	0e853803          	ld	a6,232(a0)
 100683e:	00080c63          	beqz	a6,1006856 <__spl_start+0x5366>
 1006842:	0005cd63          	bltz	a1,100685c <__spl_start+0x536c>
 1006846:	6514                	ld	a3,8(a0)
 1006848:	00b6ea63          	bltu	a3,a1,100685c <__spl_start+0x536c>
 100684c:	8e8d                	sub	a3,a3,a1
 100684e:	00c6e763          	bltu	a3,a2,100685c <__spl_start+0x536c>
 1006852:	c619                	beqz	a2,1006860 <__spl_start+0x5370>
 1006854:	8802                	jr	a6
 1006856:	fa100513          	li	a0,-95
 100685a:	8082                	ret
 100685c:	5529                	li	a0,-22
 100685e:	8082                	ret
 1006860:	4501                	li	a0,0
 1006862:	8082                	ret
 1006864:	1141                	addi	sp,sp,-16
 1006866:	e406                	sd	ra,8(sp)
 1006868:	e022                	sd	s0,0(sp)
 100686a:	495c                	lw	a5,20(a0)
 100686c:	e79d                	bnez	a5,100689a <__spl_start+0x53aa>
 100686e:	00002697          	auipc	a3,0x2
 1006872:	f9268693          	addi	a3,a3,-110 # 1008800 <__spl_start+0x7310>
 1006876:	1b100613          	li	a2,433
 100687a:	00002597          	auipc	a1,0x2
 100687e:	fc658593          	addi	a1,a1,-58 # 1008840 <__spl_start+0x7350>
 1006882:	00002517          	auipc	a0,0x2
 1006886:	fd650513          	addi	a0,a0,-42 # 1008858 <__spl_start+0x7368>
 100688a:	e0bfe0ef          	jal	ra,1005694 <__spl_start+0x41a4>
 100688e:	00002517          	auipc	a0,0x2
 1006892:	fe250513          	addi	a0,a0,-30 # 1008870 <__spl_start+0x7380>
 1006896:	addfe0ef          	jal	ra,1005372 <__spl_start+0x3e82>
 100689a:	85aa                	mv	a1,a0
 100689c:	842a                	mv	s0,a0
 100689e:	4701                	li	a4,0
 10068a0:	4681                	li	a3,0
 10068a2:	4601                	li	a2,0
 10068a4:	00013517          	auipc	a0,0x13
 10068a8:	cec50513          	addi	a0,a0,-788 # 1019590 <__spl_src_start+0xc4a8>
 10068ac:	f0dff0ef          	jal	ra,10067b8 <__spl_start+0x52c8>
 10068b0:	87aa                	mv	a5,a0
 10068b2:	4505                	li	a0,1
 10068b4:	0c07cb63          	bltz	a5,100698a <__spl_start+0x549a>
 10068b8:	c03c                	sw	a5,64(s0)
 10068ba:	17840793          	addi	a5,s0,376
 10068be:	16f43c23          	sd	a5,376(s0)
 10068c2:	18f43023          	sd	a5,384(s0)
 10068c6:	585c                	lw	a5,52(s0)
 10068c8:	14042823          	sw	zero,336(s0)
 10068cc:	e399                	bnez	a5,10068d2 <__spl_start+0x53e2>
 10068ce:	4c7c                	lw	a5,92(s0)
 10068d0:	d85c                	sw	a5,52(s0)
 10068d2:	4814                	lw	a3,16(s0)
 10068d4:	4781                	li	a5,0
 10068d6:	02069613          	slli	a2,a3,0x20
 10068da:	9201                	srli	a2,a2,0x20
 10068dc:	c221                	beqz	a2,100691c <__spl_start+0x542c>
 10068de:	fff60713          	addi	a4,a2,-1 # feffff <_start-0x10001>
 10068e2:	8f71                	and	a4,a4,a2
 10068e4:	ef05                	bnez	a4,100691c <__spl_start+0x542c>
 10068e6:	0006871b          	sext.w	a4,a3
 10068ea:	16c2                	slli	a3,a3,0x30
 10068ec:	92c1                	srli	a3,a3,0x30
 10068ee:	4785                	li	a5,1
 10068f0:	e299                	bnez	a3,10068f6 <__spl_start+0x5406>
 10068f2:	8741                	srai	a4,a4,0x10
 10068f4:	47c5                	li	a5,17
 10068f6:	0ff77693          	andi	a3,a4,255
 10068fa:	e299                	bnez	a3,1006900 <__spl_start+0x5410>
 10068fc:	8721                	srai	a4,a4,0x8
 10068fe:	27a1                	addiw	a5,a5,8
 1006900:	00f77693          	andi	a3,a4,15
 1006904:	e299                	bnez	a3,100690a <__spl_start+0x541a>
 1006906:	8711                	srai	a4,a4,0x4
 1006908:	2791                	addiw	a5,a5,4
 100690a:	00377693          	andi	a3,a4,3
 100690e:	e299                	bnez	a3,1006914 <__spl_start+0x5424>
 1006910:	8709                	srai	a4,a4,0x2
 1006912:	2789                	addiw	a5,a5,2
 1006914:	8b05                	andi	a4,a4,1
 1006916:	e311                	bnez	a4,100691a <__spl_start+0x542a>
 1006918:	2785                	addiw	a5,a5,1
 100691a:	37fd                	addiw	a5,a5,-1
 100691c:	4850                	lw	a2,20(s0)
 100691e:	d05c                	sw	a5,36(s0)
 1006920:	4701                	li	a4,0
 1006922:	02061593          	slli	a1,a2,0x20
 1006926:	9181                	srli	a1,a1,0x20
 1006928:	c1a1                	beqz	a1,1006968 <__spl_start+0x5478>
 100692a:	fff58693          	addi	a3,a1,-1
 100692e:	8eed                	and	a3,a3,a1
 1006930:	ee85                	bnez	a3,1006968 <__spl_start+0x5478>
 1006932:	0006069b          	sext.w	a3,a2
 1006936:	1642                	slli	a2,a2,0x30
 1006938:	9241                	srli	a2,a2,0x30
 100693a:	4705                	li	a4,1
 100693c:	e219                	bnez	a2,1006942 <__spl_start+0x5452>
 100693e:	86c1                	srai	a3,a3,0x10
 1006940:	4745                	li	a4,17
 1006942:	0ff6f613          	andi	a2,a3,255
 1006946:	e219                	bnez	a2,100694c <__spl_start+0x545c>
 1006948:	86a1                	srai	a3,a3,0x8
 100694a:	2721                	addiw	a4,a4,8
 100694c:	00f6f613          	andi	a2,a3,15
 1006950:	e219                	bnez	a2,1006956 <__spl_start+0x5466>
 1006952:	8691                	srai	a3,a3,0x4
 1006954:	2711                	addiw	a4,a4,4
 1006956:	0036f613          	andi	a2,a3,3
 100695a:	e219                	bnez	a2,1006960 <__spl_start+0x5470>
 100695c:	8689                	srai	a3,a3,0x2
 100695e:	2709                	addiw	a4,a4,2
 1006960:	8a85                	andi	a3,a3,1
 1006962:	e291                	bnez	a3,1006966 <__spl_start+0x5476>
 1006964:	2705                	addiw	a4,a4,1
 1006966:	377d                	addiw	a4,a4,-1
 1006968:	4685                	li	a3,1
 100696a:	00f697bb          	sllw	a5,a3,a5
 100696e:	37fd                	addiw	a5,a5,-1
 1006970:	00e696bb          	sllw	a3,a3,a4
 1006974:	d418                	sw	a4,40(s0)
 1006976:	6018                	ld	a4,0(s0)
 1006978:	d45c                	sw	a5,44(s0)
 100697a:	47a5                	li	a5,9
 100697c:	36fd                	addiw	a3,a3,-1
 100697e:	17aa                	slli	a5,a5,0x2a
 1006980:	d814                	sw	a3,48(s0)
 1006982:	8f7d                	and	a4,a4,a5
 1006984:	00f70763          	beq	a4,a5,1006992 <__spl_start+0x54a2>
 1006988:	4501                	li	a0,0
 100698a:	60a2                	ld	ra,8(sp)
 100698c:	6402                	ld	s0,0(sp)
 100698e:	0141                	addi	sp,sp,16
 1006990:	8082                	ret
 1006992:	6410                	ld	a2,8(s0)
 1006994:	4581                	li	a1,0
 1006996:	8522                	mv	a0,s0
 1006998:	ea3ff0ef          	jal	ra,100683a <__spl_start+0x534a>
 100699c:	d575                	beqz	a0,1006988 <__spl_start+0x5498>
 100699e:	fa100793          	li	a5,-95
 10069a2:	fef503e3          	beq	a0,a5,1006988 <__spl_start+0x5498>
 10069a6:	7c0c                	ld	a1,56(s0)
 10069a8:	00002517          	auipc	a0,0x2
 10069ac:	06050513          	addi	a0,a0,96 # 1008a08 <__spl_start+0x7518>
 10069b0:	ce5fe0ef          	jal	ra,1005694 <__spl_start+0x41a4>
 10069b4:	bfd1                	j	1006988 <__spl_start+0x5498>
 10069b6:	4501                	li	a0,0
 10069b8:	8082                	ret
 10069ba:	611c                	ld	a5,0(a0)
 10069bc:	77bc                	ld	a5,104(a5)
 10069be:	639c                	ld	a5,0(a5)
 10069c0:	8782                	jr	a5
 10069c2:	611c                	ld	a5,0(a0)
 10069c4:	77bc                	ld	a5,104(a5)
 10069c6:	679c                	ld	a5,8(a5)
 10069c8:	8782                	jr	a5
 10069ca:	611c                	ld	a5,0(a0)
 10069cc:	77bc                	ld	a5,104(a5)
 10069ce:	6b9c                	ld	a5,16(a5)
 10069d0:	8782                	jr	a5
 10069d2:	1101                	addi	sp,sp,-32
 10069d4:	e822                	sd	s0,16(sp)
 10069d6:	888a                	mv	a7,sp
 10069d8:	843a                	mv	s0,a4
 10069da:	00810813          	addi	a6,sp,8
 10069de:	00002797          	auipc	a5,0x2
 10069e2:	6aa78793          	addi	a5,a5,1706 # 1009088 <__spl_start+0x7b98>
 10069e6:	00002717          	auipc	a4,0x2
 10069ea:	6b270713          	addi	a4,a4,1714 # 1009098 <__spl_start+0x7ba8>
 10069ee:	ec06                	sd	ra,24(sp)
 10069f0:	0f8010ef          	jal	ra,1007ae8 <__spl_start+0x65f8>
 10069f4:	e501                	bnez	a0,10069fc <__spl_start+0x550c>
 10069f6:	6782                	ld	a5,0(sp)
 10069f8:	639c                	ld	a5,0(a5)
 10069fa:	e01c                	sd	a5,0(s0)
 10069fc:	60e2                	ld	ra,24(sp)
 10069fe:	6442                	ld	s0,16(sp)
 1006a00:	6105                	addi	sp,sp,32
 1006a02:	8082                	ret
 1006a04:	1101                	addi	sp,sp,-32
 1006a06:	0038                	addi	a4,sp,8
 1006a08:	ec06                	sd	ra,24(sp)
 1006a0a:	fc9ff0ef          	jal	ra,10069d2 <__spl_start+0x54e2>
 1006a0e:	e519                	bnez	a0,1006a1c <__spl_start+0x552c>
 1006a10:	6522                	ld	a0,8(sp)
 1006a12:	da3fe0ef          	jal	ra,10057b4 <__spl_start+0x42c4>
 1006a16:	60e2                	ld	ra,24(sp)
 1006a18:	6105                	addi	sp,sp,32
 1006a1a:	8082                	ret
 1006a1c:	4501                	li	a0,0
 1006a1e:	bfe5                	j	1006a16 <__spl_start+0x5526>
 1006a20:	7179                	addi	sp,sp,-48
 1006a22:	f406                	sd	ra,40(sp)
 1006a24:	f022                	sd	s0,32(sp)
 1006a26:	e432                	sd	a2,8(sp)
 1006a28:	842e                	mv	s0,a1
 1006a2a:	e036                	sd	a3,0(sp)
 1006a2c:	d89fe0ef          	jal	ra,10057b4 <__spl_start+0x42c4>
 1006a30:	6702                	ld	a4,0(sp)
 1006a32:	6622                	ld	a2,8(sp)
 1006a34:	655c                	ld	a5,136(a0)
 1006a36:	02041593          	slli	a1,s0,0x20
 1006a3a:	0834                	addi	a3,sp,24
 1006a3c:	9181                	srli	a1,a1,0x20
 1006a3e:	9782                	jalr	a5
 1006a40:	70a2                	ld	ra,40(sp)
 1006a42:	7402                	ld	s0,32(sp)
 1006a44:	6145                	addi	sp,sp,48
 1006a46:	8082                	ret
 1006a48:	7179                	addi	sp,sp,-48
 1006a4a:	f406                	sd	ra,40(sp)
 1006a4c:	f022                	sd	s0,32(sp)
 1006a4e:	e432                	sd	a2,8(sp)
 1006a50:	842e                	mv	s0,a1
 1006a52:	e036                	sd	a3,0(sp)
 1006a54:	d61fe0ef          	jal	ra,10057b4 <__spl_start+0x42c4>
 1006a58:	6702                	ld	a4,0(sp)
 1006a5a:	6622                	ld	a2,8(sp)
 1006a5c:	615c                	ld	a5,128(a0)
 1006a5e:	02041593          	slli	a1,s0,0x20
 1006a62:	0834                	addi	a3,sp,24
 1006a64:	9181                	srli	a1,a1,0x20
 1006a66:	9782                	jalr	a5
 1006a68:	70a2                	ld	ra,40(sp)
 1006a6a:	7402                	ld	s0,32(sp)
 1006a6c:	6145                	addi	sp,sp,48
 1006a6e:	8082                	ret
 1006a70:	1101                	addi	sp,sp,-32
 1006a72:	ec06                	sd	ra,24(sp)
 1006a74:	e822                	sd	s0,16(sp)
 1006a76:	e426                	sd	s1,8(sp)
 1006a78:	842a                	mv	s0,a0
 1006a7a:	e04a                	sd	s2,0(sp)
 1006a7c:	d3ffe0ef          	jal	ra,10057ba <__spl_start+0x42ca>
 1006a80:	84aa                	mv	s1,a0
 1006a82:	8522                	mv	a0,s0
 1006a84:	d31fe0ef          	jal	ra,10057b4 <__spl_start+0x42c4>
 1006a88:	18853423          	sd	s0,392(a0)
 1006a8c:	18953823          	sd	s1,400(a0)
 1006a90:	ec99                	bnez	s1,1006aae <__spl_start+0x55be>
 1006a92:	00002517          	auipc	a0,0x2
 1006a96:	61650513          	addi	a0,a0,1558 # 10090a8 <__spl_start+0x7bb8>
 1006a9a:	bfbfe0ef          	jal	ra,1005694 <__spl_start+0x41a4>
 1006a9e:	5435                	li	s0,-19
 1006aa0:	60e2                	ld	ra,24(sp)
 1006aa2:	8522                	mv	a0,s0
 1006aa4:	6442                	ld	s0,16(sp)
 1006aa6:	64a2                	ld	s1,8(sp)
 1006aa8:	6902                	ld	s2,0(sp)
 1006aaa:	6105                	addi	sp,sp,32
 1006aac:	8082                	ret
 1006aae:	892a                	mv	s2,a0
 1006ab0:	8526                	mv	a0,s1
 1006ab2:	78d000ef          	jal	ra,1007a3e <__spl_start+0x654e>
 1006ab6:	842a                	mv	s0,a0
 1006ab8:	f565                	bnez	a0,1006aa0 <__spl_start+0x55b0>
 1006aba:	854a                	mv	a0,s2
 1006abc:	2f4000ef          	jal	ra,1006db0 <__spl_start+0x58c0>
 1006ac0:	842a                	mv	s0,a0
 1006ac2:	e509                	bnez	a0,1006acc <__spl_start+0x55dc>
 1006ac4:	854a                	mv	a0,s2
 1006ac6:	784000ef          	jal	ra,100724a <__spl_start+0x5d5a>
 1006aca:	842a                	mv	s0,a0
 1006acc:	8526                	mv	a0,s1
 1006ace:	777000ef          	jal	ra,1007a44 <__spl_start+0x6554>
 1006ad2:	b7f9                	j	1006aa0 <__spl_start+0x55b0>
 1006ad4:	1141                	addi	sp,sp,-16
 1006ad6:	e406                	sd	ra,8(sp)
 1006ad8:	cddfe0ef          	jal	ra,10057b4 <__spl_start+0x42c4>
 1006adc:	60a2                	ld	ra,8(sp)
 1006ade:	0141                	addi	sp,sp,16
 1006ae0:	ad4d                	j	1007192 <__spl_start+0x5ca2>
 1006ae2:	7175                	addi	sp,sp,-144
 1006ae4:	e122                	sd	s0,128(sp)
 1006ae6:	f4ce                	sd	s3,104(sp)
 1006ae8:	842e                	mv	s0,a1
 1006aea:	e506                	sd	ra,136(sp)
 1006aec:	fca6                	sd	s1,120(sp)
 1006aee:	f8ca                	sd	s2,112(sp)
 1006af0:	89b2                	mv	s3,a2
 1006af2:	cc3fe0ef          	jal	ra,10057b4 <__spl_start+0x42c4>
 1006af6:	491c                	lw	a5,16(a0)
 1006af8:	02f4773b          	remuw	a4,s0,a5
 1006afc:	ef15                	bnez	a4,1006b38 <__spl_start+0x5648>
 1006afe:	1782                	slli	a5,a5,0x20
 1006b00:	9381                	srli	a5,a5,0x20
 1006b02:	02f9f7b3          	remu	a5,s3,a5
 1006b06:	84aa                	mv	s1,a0
 1006b08:	5529                	li	a0,-22
 1006b0a:	e385                	bnez	a5,1006b2a <__spl_start+0x563a>
 1006b0c:	890a                	mv	s2,sp
 1006b0e:	4581                	li	a1,0
 1006b10:	06000613          	li	a2,96
 1006b14:	854a                	mv	a0,s2
 1006b16:	99afb0ef          	jal	ra,1001cb0 <__spl_start+0x7c0>
 1006b1a:	1402                	slli	s0,s0,0x20
 1006b1c:	78bc                	ld	a5,112(s1)
 1006b1e:	9001                	srli	s0,s0,0x20
 1006b20:	e422                	sd	s0,8(sp)
 1006b22:	e84e                	sd	s3,16(sp)
 1006b24:	85ca                	mv	a1,s2
 1006b26:	8526                	mv	a0,s1
 1006b28:	9782                	jalr	a5
 1006b2a:	60aa                	ld	ra,136(sp)
 1006b2c:	640a                	ld	s0,128(sp)
 1006b2e:	74e6                	ld	s1,120(sp)
 1006b30:	7946                	ld	s2,112(sp)
 1006b32:	79a6                	ld	s3,104(sp)
 1006b34:	6149                	addi	sp,sp,144
 1006b36:	8082                	ret
 1006b38:	5529                	li	a0,-22
 1006b3a:	bfc5                	j	1006b2a <__spl_start+0x563a>
 1006b3c:	1141                	addi	sp,sp,-16
 1006b3e:	e406                	sd	ra,8(sp)
 1006b40:	7e4000ef          	jal	ra,1007324 <__spl_start+0x5e34>
 1006b44:	60a2                	ld	ra,8(sp)
 1006b46:	4501                	li	a0,0
 1006b48:	0141                	addi	sp,sp,16
 1006b4a:	8082                	ret
 1006b4c:	df400513          	li	a0,-524
 1006b50:	8082                	ret
 1006b52:	df400513          	li	a0,-524
 1006b56:	8082                	ret
 1006b58:	7175                	addi	sp,sp,-144
 1006b5a:	e122                	sd	s0,128(sp)
 1006b5c:	f8ca                	sd	s2,112(sp)
 1006b5e:	f4ce                	sd	s3,104(sp)
 1006b60:	f0d2                	sd	s4,96(sp)
 1006b62:	ecd6                	sd	s5,88(sp)
 1006b64:	e8da                	sd	s6,80(sp)
 1006b66:	e0e2                	sd	s8,64(sp)
 1006b68:	e506                	sd	ra,136(sp)
 1006b6a:	fca6                	sd	s1,120(sp)
 1006b6c:	e4de                	sd	s7,72(sp)
 1006b6e:	13853483          	ld	s1,312(a0)
 1006b72:	5a7d                	li	s4,-1
 1006b74:	892e                	mv	s2,a1
 1006b76:	8432                	mv	s0,a2
 1006b78:	8c36                	mv	s8,a3
 1006b7a:	89ba                	mv	s3,a4
 1006b7c:	4a85                	li	s5,1
 1006b7e:	020a5a13          	srli	s4,s4,0x20
 1006b82:	00810b13          	addi	s6,sp,8
 1006b86:	ec11                	bnez	s0,1006ba2 <__spl_start+0x56b2>
 1006b88:	4501                	li	a0,0
 1006b8a:	60aa                	ld	ra,136(sp)
 1006b8c:	640a                	ld	s0,128(sp)
 1006b8e:	74e6                	ld	s1,120(sp)
 1006b90:	7946                	ld	s2,112(sp)
 1006b92:	79a6                	ld	s3,104(sp)
 1006b94:	7a06                	ld	s4,96(sp)
 1006b96:	6ae6                	ld	s5,88(sp)
 1006b98:	6b46                	ld	s6,80(sp)
 1006b9a:	6ba6                	ld	s7,72(sp)
 1006b9c:	6c06                	ld	s8,64(sp)
 1006b9e:	6149                	addi	sp,sp,144
 1006ba0:	8082                	ret
 1006ba2:	1ae4c783          	lbu	a5,430(s1)
 1006ba6:	1b44a683          	lw	a3,436(s1)
 1006baa:	ec4a                	sd	s2,24(sp)
 1006bac:	00f104a3          	sb	a5,9(sp)
 1006bb0:	1ac4c783          	lbu	a5,428(s1)
 1006bb4:	0106d71b          	srliw	a4,a3,0x10
 1006bb8:	00e10423          	sb	a4,8(sp)
 1006bbc:	00f10823          	sb	a5,16(sp)
 1006bc0:	1af4c783          	lbu	a5,431(s1)
 1006bc4:	0086d71b          	srliw	a4,a3,0x8
 1006bc8:	0ff77713          	andi	a4,a4,255
 1006bcc:	02e787bb          	mulw	a5,a5,a4
 1006bd0:	d656                	sw	s5,44(sp)
 1006bd2:	fc4e                	sd	s3,56(sp)
 1006bd4:	00e108a3          	sb	a4,17(sp)
 1006bd8:	02e100a3          	sb	a4,33(sp)
 1006bdc:	02d10423          	sb	a3,40(sp)
 1006be0:	8ba2                	mv	s7,s0
 1006be2:	4037d79b          	sraiw	a5,a5,0x3
 1006be6:	02f10023          	sb	a5,32(sp)
 1006bea:	87de                	mv	a5,s7
 1006bec:	017a7363          	bgeu	s4,s7,1006bf2 <__spl_start+0x5702>
 1006bf0:	87d2                	mv	a5,s4
 1006bf2:	1904b503          	ld	a0,400(s1)
 1006bf6:	85da                	mv	a1,s6
 1006bf8:	d83e                	sw	a5,48(sp)
 1006bfa:	3a0010ef          	jal	ra,1007f9a <__spl_start+0x6aaa>
 1006bfe:	e505                	bnez	a0,1006c26 <__spl_start+0x5736>
 1006c00:	1904b503          	ld	a0,400(s1)
 1006c04:	85da                	mv	a1,s6
 1006c06:	26a010ef          	jal	ra,1007e70 <__spl_start+0x6980>
 1006c0a:	ed11                	bnez	a0,1006c26 <__spl_start+0x5736>
 1006c0c:	03016703          	lwu	a4,48(sp)
 1006c10:	67e2                	ld	a5,24(sp)
 1006c12:	40eb8bb3          	sub	s7,s7,a4
 1006c16:	97ba                	add	a5,a5,a4
 1006c18:	ec3e                	sd	a5,24(sp)
 1006c1a:	77e2                	ld	a5,56(sp)
 1006c1c:	97ba                	add	a5,a5,a4
 1006c1e:	fc3e                	sd	a5,56(sp)
 1006c20:	fc0b95e3          	bnez	s7,1006bea <__spl_start+0x56fa>
 1006c24:	8522                	mv	a0,s0
 1006c26:	2501                	sext.w	a0,a0
 1006c28:	cd01                	beqz	a0,1006c40 <__spl_start+0x5750>
 1006c2a:	f60540e3          	bltz	a0,1006b8a <__spl_start+0x569a>
 1006c2e:	000c3783          	ld	a5,0(s8) # ff0000 <_start-0x10000>
 1006c32:	99aa                	add	s3,s3,a0
 1006c34:	992a                	add	s2,s2,a0
 1006c36:	97aa                	add	a5,a5,a0
 1006c38:	00fc3023          	sd	a5,0(s8)
 1006c3c:	8c09                	sub	s0,s0,a0
 1006c3e:	b7a1                	j	1006b86 <__spl_start+0x5696>
 1006c40:	556d                	li	a0,-5
 1006c42:	b7a1                	j	1006b8a <__spl_start+0x569a>
 1006c44:	7159                	addi	sp,sp,-112
 1006c46:	003c                	addi	a5,sp,8
 1006c48:	f0a2                	sd	s0,96(sp)
 1006c4a:	eca6                	sd	s1,88(sp)
 1006c4c:	e4ce                	sd	s3,72(sp)
 1006c4e:	842a                	mv	s0,a0
 1006c50:	89ae                	mv	s3,a1
 1006c52:	84b2                	mv	s1,a2
 1006c54:	4581                	li	a1,0
 1006c56:	03000613          	li	a2,48
 1006c5a:	853e                	mv	a0,a5
 1006c5c:	f486                	sd	ra,104(sp)
 1006c5e:	e8ca                	sd	s2,80(sp)
 1006c60:	8936                	mv	s2,a3
 1006c62:	84efb0ef          	jal	ra,1001cb0 <__spl_start+0x7c0>
 1006c66:	85aa                	mv	a1,a0
 1006c68:	19043503          	ld	a0,400(s0)
 1006c6c:	4705                	li	a4,1
 1006c6e:	013104a3          	sb	s3,9(sp)
 1006c72:	d84a                	sw	s2,48(sp)
 1006c74:	fc26                	sd	s1,56(sp)
 1006c76:	00e10423          	sb	a4,8(sp)
 1006c7a:	02e10423          	sb	a4,40(sp)
 1006c7e:	d63a                	sw	a4,44(sp)
 1006c80:	1f0010ef          	jal	ra,1007e70 <__spl_start+0x6980>
 1006c84:	70a6                	ld	ra,104(sp)
 1006c86:	7406                	ld	s0,96(sp)
 1006c88:	64e6                	ld	s1,88(sp)
 1006c8a:	6946                	ld	s2,80(sp)
 1006c8c:	69a6                	ld	s3,72(sp)
 1006c8e:	6165                	addi	sp,sp,112
 1006c90:	8082                	ret
 1006c92:	1101                	addi	sp,sp,-32
 1006c94:	4685                	li	a3,1
 1006c96:	00f10613          	addi	a2,sp,15
 1006c9a:	4595                	li	a1,5
 1006c9c:	ec06                	sd	ra,24(sp)
 1006c9e:	fa7ff0ef          	jal	ra,1006c44 <__spl_start+0x5754>
 1006ca2:	00054463          	bltz	a0,1006caa <__spl_start+0x57ba>
 1006ca6:	00f14503          	lbu	a0,15(sp)
 1006caa:	60e2                	ld	ra,24(sp)
 1006cac:	6105                	addi	sp,sp,32
 1006cae:	8082                	ret
 1006cb0:	7139                	addi	sp,sp,-64
 1006cb2:	f426                	sd	s1,40(sp)
 1006cb4:	84aa                	mv	s1,a0
 1006cb6:	4501                	li	a0,0
 1006cb8:	f04a                	sd	s2,32(sp)
 1006cba:	ec4e                	sd	s3,24(sp)
 1006cbc:	e852                	sd	s4,16(sp)
 1006cbe:	fc06                	sd	ra,56(sp)
 1006cc0:	f822                	sd	s0,48(sp)
 1006cc2:	69a9                	lui	s3,0xa
 1006cc4:	dc2fe0ef          	jal	ra,1005286 <__spl_start+0x3d96>
 1006cc8:	892a                	mv	s2,a0
 1006cca:	c3f98993          	addi	s3,s3,-961 # 9c3f <_start-0xff63c1>
 1006cce:	00f10a13          	addi	s4,sp,15
 1006cd2:	854a                	mv	a0,s2
 1006cd4:	db2fe0ef          	jal	ra,1005286 <__spl_start+0x3d96>
 1006cd8:	02a9f163          	bgeu	s3,a0,1006cfa <__spl_start+0x580a>
 1006cdc:	1884b783          	ld	a5,392(s1)
 1006ce0:	c7ad                	beqz	a5,1006d4a <__spl_start+0x585a>
 1006ce2:	6398                	ld	a4,0(a5)
 1006ce4:	6790                	ld	a2,8(a5)
 1006ce6:	630c                	ld	a1,0(a4)
 1006ce8:	00003517          	auipc	a0,0x3
 1006cec:	37050513          	addi	a0,a0,880 # 100a058 <__spl_start+0x8b68>
 1006cf0:	9a5fe0ef          	jal	ra,1005694 <__spl_start+0x41a4>
 1006cf4:	f9200513          	li	a0,-110
 1006cf8:	a089                	j	1006d3a <__spl_start+0x584a>
 1006cfa:	8526                	mv	a0,s1
 1006cfc:	f97ff0ef          	jal	ra,1006c92 <__spl_start+0x57a2>
 1006d00:	02054d63          	bltz	a0,1006d3a <__spl_start+0x584a>
 1006d04:	fff54793          	not	a5,a0
 1006d08:	0017f413          	andi	s0,a5,1
 1006d0c:	1c44a783          	lw	a5,452(s1)
 1006d10:	8b85                	andi	a5,a5,1
 1006d12:	c7a9                	beqz	a5,1006d5c <__spl_start+0x586c>
 1006d14:	4685                	li	a3,1
 1006d16:	8652                	mv	a2,s4
 1006d18:	07000593          	li	a1,112
 1006d1c:	8526                	mv	a0,s1
 1006d1e:	f27ff0ef          	jal	ra,1006c44 <__spl_start+0x5754>
 1006d22:	00054c63          	bltz	a0,1006d3a <__spl_start+0x584a>
 1006d26:	00f14783          	lbu	a5,15(sp)
 1006d2a:	d445                	beqz	s0,1006cd2 <__spl_start+0x57e2>
 1006d2c:	0187979b          	slliw	a5,a5,0x18
 1006d30:	4187d79b          	sraiw	a5,a5,0x18
 1006d34:	f807dfe3          	bgez	a5,1006cd2 <__spl_start+0x57e2>
 1006d38:	4501                	li	a0,0
 1006d3a:	70e2                	ld	ra,56(sp)
 1006d3c:	7442                	ld	s0,48(sp)
 1006d3e:	74a2                	ld	s1,40(sp)
 1006d40:	7902                	ld	s2,32(sp)
 1006d42:	69e2                	ld	s3,24(sp)
 1006d44:	6a42                	ld	s4,16(sp)
 1006d46:	6121                	addi	sp,sp,64
 1006d48:	8082                	ret
 1006d4a:	00003617          	auipc	a2,0x3
 1006d4e:	33660613          	addi	a2,a2,822 # 100a080 <__spl_start+0x8b90>
 1006d52:	00003597          	auipc	a1,0x3
 1006d56:	33e58593          	addi	a1,a1,830 # 100a090 <__spl_start+0x8ba0>
 1006d5a:	b779                	j	1006ce8 <__spl_start+0x57f8>
 1006d5c:	d83d                	beqz	s0,1006cd2 <__spl_start+0x57e2>
 1006d5e:	bfe9                	j	1006d38 <__spl_start+0x5848>
 1006d60:	7159                	addi	sp,sp,-112
 1006d62:	003c                	addi	a5,sp,8
 1006d64:	f0a2                	sd	s0,96(sp)
 1006d66:	eca6                	sd	s1,88(sp)
 1006d68:	e4ce                	sd	s3,72(sp)
 1006d6a:	842a                	mv	s0,a0
 1006d6c:	89ae                	mv	s3,a1
 1006d6e:	84b2                	mv	s1,a2
 1006d70:	4581                	li	a1,0
 1006d72:	03000613          	li	a2,48
 1006d76:	853e                	mv	a0,a5
 1006d78:	f486                	sd	ra,104(sp)
 1006d7a:	e8ca                	sd	s2,80(sp)
 1006d7c:	8936                	mv	s2,a3
 1006d7e:	f33fa0ef          	jal	ra,1001cb0 <__spl_start+0x7c0>
 1006d82:	85aa                	mv	a1,a0
 1006d84:	19043503          	ld	a0,400(s0)
 1006d88:	4705                	li	a4,1
 1006d8a:	00e10423          	sb	a4,8(sp)
 1006d8e:	02e10423          	sb	a4,40(sp)
 1006d92:	4709                	li	a4,2
 1006d94:	013104a3          	sb	s3,9(sp)
 1006d98:	d84a                	sw	s2,48(sp)
 1006d9a:	fc26                	sd	s1,56(sp)
 1006d9c:	d63a                	sw	a4,44(sp)
 1006d9e:	0d2010ef          	jal	ra,1007e70 <__spl_start+0x6980>
 1006da2:	70a6                	ld	ra,104(sp)
 1006da4:	7406                	ld	s0,96(sp)
 1006da6:	64e6                	ld	s1,88(sp)
 1006da8:	6946                	ld	s2,80(sp)
 1006daa:	69a6                	ld	s3,72(sp)
 1006dac:	6165                	addi	sp,sp,112
 1006dae:	8082                	ret
 1006db0:	711d                	addi	sp,sp,-96
 1006db2:	e8a2                	sd	s0,80(sp)
 1006db4:	e0ca                	sd	s2,64(sp)
 1006db6:	ec86                	sd	ra,88(sp)
 1006db8:	e4a6                	sd	s1,72(sp)
 1006dba:	fc4e                	sd	s3,56(sp)
 1006dbc:	67c1                	lui	a5,0x10
 1006dbe:	10178793          	addi	a5,a5,257 # 10101 <_start-0xfefeff>
 1006dc2:	19053703          	ld	a4,400(a0)
 1006dc6:	1af52a23          	sw	a5,436(a0)
 1006dca:	00002797          	auipc	a5,0x2
 1006dce:	d4e7b783          	ld	a5,-690(a5) # 1008b18 <__spl_start+0x7628>
 1006dd2:	1af53c23          	sd	a5,440(a0)
 1006dd6:	475c                	lw	a5,12(a4)
 1006dd8:	842a                	mv	s0,a0
 1006dda:	490d                	li	s2,3
 1006ddc:	83b5                	srli	a5,a5,0xd
 1006dde:	8b85                	andi	a5,a5,1
 1006de0:	c399                	beqz	a5,1006de6 <__spl_start+0x58f6>
 1006de2:	08300913          	li	s2,131
 1006de6:	01010993          	addi	s3,sp,16
 1006dea:	4699                	li	a3,6
 1006dec:	864e                	mv	a2,s3
 1006dee:	09f00593          	li	a1,159
 1006df2:	8522                	mv	a0,s0
 1006df4:	e51ff0ef          	jal	ra,1006c44 <__spl_start+0x5754>
 1006df8:	00005497          	auipc	s1,0x5
 1006dfc:	3384b483          	ld	s1,824(s1) # 100c130 <__spl_start+0xac40>
 1006e00:	16055163          	bgez	a0,1006f62 <__spl_start+0x5a72>
 1006e04:	84aa                	mv	s1,a0
 1006e06:	77fd                	lui	a5,0xfffff
 1006e08:	1697e963          	bltu	a5,s1,1006f7a <__spl_start+0x5a8a>
 1006e0c:	66c1                	lui	a3,0x10
 1006e0e:	478d                	li	a5,3
 1006e10:	10168693          	addi	a3,a3,257 # 10101 <_start-0xfefeff>
 1006e14:	00f10b23          	sb	a5,22(sp)
 1006e18:	00011a23          	sh	zero,20(sp)
 1006e1c:	cc36                	sw	a3,24(sp)
 1006e1e:	48d8                	lw	a4,20(s1)
 1006e20:	4785                	li	a5,1
 1006e22:	00877613          	andi	a2,a4,8
 1006e26:	ea19                	bnez	a2,1006e3c <__spl_start+0x594c>
 1006e28:	6785                	lui	a5,0x1
 1006e2a:	80078793          	addi	a5,a5,-2048 # 800 <_start-0xfff800>
 1006e2e:	00f11e23          	sh	a5,28(sp)
 1006e32:	47ad                	li	a5,11
 1006e34:	00f10f23          	sb	a5,30(sp)
 1006e38:	d036                	sw	a3,32(sp)
 1006e3a:	478d                	li	a5,3
 1006e3c:	04077713          	andi	a4,a4,64
 1006e40:	c305                	beqz	a4,1006e60 <__spl_start+0x5970>
 1006e42:	6705                	lui	a4,0x1
 1006e44:	80070713          	addi	a4,a4,-2048 # 800 <_start-0xfff800>
 1006e48:	02e11223          	sh	a4,36(sp)
 1006e4c:	06b00713          	li	a4,107
 1006e50:	02e10323          	sb	a4,38(sp)
 1006e54:	6741                	lui	a4,0x10
 1006e56:	10470713          	addi	a4,a4,260 # 10104 <_start-0xfefefc>
 1006e5a:	0807e793          	ori	a5,a5,128
 1006e5e:	d43a                	sw	a4,40(sp)
 1006e60:	00003717          	auipc	a4,0x3
 1006e64:	18070713          	addi	a4,a4,384 # 1009fe0 <__spl_start+0x8af0>
 1006e68:	fc18                	sd	a4,56(s0)
 1006e6a:	470d                	li	a4,3
 1006e6c:	00e40023          	sb	a4,0(s0)
 1006e70:	4705                	li	a4,1
 1006e72:	c858                	sw	a4,20(s0)
 1006e74:	6705                	lui	a4,0x1
 1006e76:	c0070713          	addi	a4,a4,-1024 # c00 <_start-0xfff400>
 1006e7a:	12843c23          	sd	s0,312(s0)
 1006e7e:	c058                	sw	a4,4(s0)
 1006e80:	4494                	lw	a3,8(s1)
 1006e82:	00c4d703          	lhu	a4,12(s1)
 1006e86:	02d7073b          	mulw	a4,a4,a3
 1006e8a:	02071693          	slli	a3,a4,0x20
 1006e8e:	9281                	srli	a3,a3,0x20
 1006e90:	e414                	sd	a3,8(s0)
 1006e92:	00000697          	auipc	a3,0x0
 1006e96:	cba68693          	addi	a3,a3,-838 # 1006b4c <__spl_start+0x565c>
 1006e9a:	f834                	sd	a3,112(s0)
 1006e9c:	00000697          	auipc	a3,0x0
 1006ea0:	cbc68693          	addi	a3,a3,-836 # 1006b58 <__spl_start+0x5668>
 1006ea4:	e054                	sd	a3,128(s0)
 1006ea6:	00000697          	auipc	a3,0x0
 1006eaa:	cac68693          	addi	a3,a3,-852 # 1006b52 <__spl_start+0x5662>
 1006eae:	e454                	sd	a3,136(s0)
 1006eb0:	22e42c23          	sw	a4,568(s0)
 1006eb4:	48d8                	lw	a4,20(s1)
 1006eb6:	08077713          	andi	a4,a4,128
 1006eba:	c719                	beqz	a4,1006ec8 <__spl_start+0x59d8>
 1006ebc:	1c442703          	lw	a4,452(s0)
 1006ec0:	00176713          	ori	a4,a4,1
 1006ec4:	1ce42223          	sw	a4,452(s0)
 1006ec8:	48d8                	lw	a4,20(s1)
 1006eca:	8339                	srli	a4,a4,0xe
 1006ecc:	8b05                	andi	a4,a4,1
 1006ece:	c719                	beqz	a4,1006edc <__spl_start+0x59ec>
 1006ed0:	1c442703          	lw	a4,452(s0)
 1006ed4:	02076713          	ori	a4,a4,32
 1006ed8:	1ce42223          	sw	a4,452(s0)
 1006edc:	48d8                	lw	a4,20(s1)
 1006ede:	8b21                	andi	a4,a4,8
 1006ee0:	c311                	beqz	a4,1006ee4 <__spl_start+0x59f4>
 1006ee2:	9bf5                	andi	a5,a5,-3
 1006ee4:	00f97933          	and	s2,s2,a5
 1006ee8:	08097713          	andi	a4,s2,128
 1006eec:	4789                	li	a5,2
 1006eee:	e709                	bnez	a4,1006ef8 <__spl_start+0x5a08>
 1006ef0:	4019591b          	sraiw	s2,s2,0x1
 1006ef4:	00197793          	andi	a5,s2,1
 1006ef8:	078e                	slli	a5,a5,0x3
 1006efa:	03078793          	addi	a5,a5,48
 1006efe:	978a                	add	a5,a5,sp
 1006f00:	fe67c703          	lbu	a4,-26(a5)
 1006f04:	fe47c683          	lbu	a3,-28(a5)
 1006f08:	1ae40723          	sb	a4,430(s0)
 1006f0c:	fe87a703          	lw	a4,-24(a5)
 1006f10:	fe57c783          	lbu	a5,-27(a5)
 1006f14:	1ae42a23          	sw	a4,436(s0)
 1006f18:	9fb5                	addw	a5,a5,a3
 1006f1a:	1af407a3          	sb	a5,431(s0)
 1006f1e:	0ff77713          	andi	a4,a4,255
 1006f22:	4791                	li	a5,4
 1006f24:	02f71063          	bne	a4,a5,1006f44 <__spl_start+0x5a54>
 1006f28:	0004c783          	lbu	a5,0(s1)
 1006f2c:	02c00713          	li	a4,44
 1006f30:	00e78a63          	beq	a5,a4,1006f44 <__spl_start+0x5a54>
 1006f34:	0c200713          	li	a4,194
 1006f38:	04e78b63          	beq	a5,a4,1006f8e <__spl_start+0x5a9e>
 1006f3c:	02000713          	li	a4,32
 1006f40:	0ce79663          	bne	a5,a4,100700c <__spl_start+0x5b1c>
 1006f44:	1ac44783          	lbu	a5,428(s0)
 1006f48:	18079863          	bnez	a5,10070d8 <__spl_start+0x5be8>
 1006f4c:	0104d783          	lhu	a5,16(s1)
 1006f50:	14078163          	beqz	a5,1007092 <__spl_start+0x5ba2>
 1006f54:	1af40623          	sb	a5,428(s0)
 1006f58:	a241                	j	10070d8 <__spl_start+0x5be8>
 1006f5a:	0064c603          	lbu	a2,6(s1)
 1006f5e:	e619                	bnez	a2,1006f6c <__spl_start+0x5a7c>
 1006f60:	04e1                	addi	s1,s1,24
 1006f62:	449c                	lw	a5,8(s1)
 1006f64:	fbfd                	bnez	a5,1006f5a <__spl_start+0x5a6a>
 1006f66:	f8400493          	li	s1,-124
 1006f6a:	bd71                	j	1006e06 <__spl_start+0x5916>
 1006f6c:	85ce                	mv	a1,s3
 1006f6e:	8526                	mv	a0,s1
 1006f70:	a6afe0ef          	jal	ra,10051da <__spl_start+0x3cea>
 1006f74:	f575                	bnez	a0,1006f60 <__spl_start+0x5a70>
 1006f76:	e80498e3          	bnez	s1,1006e06 <__spl_start+0x5916>
 1006f7a:	0004879b          	sext.w	a5,s1
 1006f7e:	60e6                	ld	ra,88(sp)
 1006f80:	6446                	ld	s0,80(sp)
 1006f82:	64a6                	ld	s1,72(sp)
 1006f84:	6906                	ld	s2,64(sp)
 1006f86:	79e2                	ld	s3,56(sp)
 1006f88:	853e                	mv	a0,a5
 1006f8a:	6125                	addi	sp,sp,96
 1006f8c:	8082                	ret
 1006f8e:	8522                	mv	a0,s0
 1006f90:	d03ff0ef          	jal	ra,1006c92 <__spl_start+0x57a2>
 1006f94:	892a                	mv	s2,a0
 1006f96:	87aa                	mv	a5,a0
 1006f98:	fe0543e3          	bltz	a0,1006f7e <__spl_start+0x5a8e>
 1006f9c:	04057793          	andi	a5,a0,64
 1006fa0:	f3d5                	bnez	a5,1006f44 <__spl_start+0x5a54>
 1006fa2:	4681                	li	a3,0
 1006fa4:	4601                	li	a2,0
 1006fa6:	4599                	li	a1,6
 1006fa8:	8522                	mv	a0,s0
 1006faa:	db7ff0ef          	jal	ra,1006d60 <__spl_start+0x5870>
 1006fae:	04096913          	ori	s2,s2,64
 1006fb2:	4685                	li	a3,1
 1006fb4:	1c840613          	addi	a2,s0,456
 1006fb8:	4585                	li	a1,1
 1006fba:	1d240423          	sb	s2,456(s0)
 1006fbe:	8522                	mv	a0,s0
 1006fc0:	da1ff0ef          	jal	ra,1006d60 <__spl_start+0x5870>
 1006fc4:	8522                	mv	a0,s0
 1006fc6:	cebff0ef          	jal	ra,1006cb0 <__spl_start+0x57c0>
 1006fca:	87aa                	mv	a5,a0
 1006fcc:	f94d                	bnez	a0,1006f7e <__spl_start+0x5a8e>
 1006fce:	8522                	mv	a0,s0
 1006fd0:	cc3ff0ef          	jal	ra,1006c92 <__spl_start+0x57a2>
 1006fd4:	00a05563          	blez	a0,1006fde <__spl_start+0x5aee>
 1006fd8:	04057513          	andi	a0,a0,64
 1006fdc:	f525                	bnez	a0,1006f44 <__spl_start+0x5a54>
 1006fde:	18843783          	ld	a5,392(s0)
 1006fe2:	cf81                	beqz	a5,1006ffa <__spl_start+0x5b0a>
 1006fe4:	6398                	ld	a4,0(a5)
 1006fe6:	6790                	ld	a2,8(a5)
 1006fe8:	630c                	ld	a1,0(a4)
 1006fea:	00003517          	auipc	a0,0x3
 1006fee:	00650513          	addi	a0,a0,6 # 1009ff0 <__spl_start+0x8b00>
 1006ff2:	ea2fe0ef          	jal	ra,1005694 <__spl_start+0x41a4>
 1006ff6:	57a9                	li	a5,-22
 1006ff8:	b759                	j	1006f7e <__spl_start+0x5a8e>
 1006ffa:	00003617          	auipc	a2,0x3
 1006ffe:	08660613          	addi	a2,a2,134 # 100a080 <__spl_start+0x8b90>
 1007002:	00003597          	auipc	a1,0x3
 1007006:	08e58593          	addi	a1,a1,142 # 100a090 <__spl_start+0x8ba0>
 100700a:	b7c5                	j	1006fea <__spl_start+0x5afa>
 100700c:	00810913          	addi	s2,sp,8
 1007010:	4685                	li	a3,1
 1007012:	864a                	mv	a2,s2
 1007014:	03500593          	li	a1,53
 1007018:	8522                	mv	a0,s0
 100701a:	c2bff0ef          	jal	ra,1006c44 <__spl_start+0x5754>
 100701e:	57a9                	li	a5,-22
 1007020:	f4054fe3          	bltz	a0,1006f7e <__spl_start+0x5a8e>
 1007024:	00814783          	lbu	a5,8(sp)
 1007028:	0027f713          	andi	a4,a5,2
 100702c:	f0071ce3          	bnez	a4,1006f44 <__spl_start+0x5a54>
 1007030:	0027e793          	ori	a5,a5,2
 1007034:	8522                	mv	a0,s0
 1007036:	00f104a3          	sb	a5,9(sp)
 100703a:	c59ff0ef          	jal	ra,1006c92 <__spl_start+0x57a2>
 100703e:	fa054ce3          	bltz	a0,1006ff6 <__spl_start+0x5b06>
 1007042:	00a10423          	sb	a0,8(sp)
 1007046:	4681                	li	a3,0
 1007048:	4601                	li	a2,0
 100704a:	4599                	li	a1,6
 100704c:	8522                	mv	a0,s0
 100704e:	d13ff0ef          	jal	ra,1006d60 <__spl_start+0x5870>
 1007052:	4689                	li	a3,2
 1007054:	864a                	mv	a2,s2
 1007056:	4585                	li	a1,1
 1007058:	8522                	mv	a0,s0
 100705a:	d07ff0ef          	jal	ra,1006d60 <__spl_start+0x5870>
 100705e:	57a9                	li	a5,-22
 1007060:	f0054fe3          	bltz	a0,1006f7e <__spl_start+0x5a8e>
 1007064:	8522                	mv	a0,s0
 1007066:	c4bff0ef          	jal	ra,1006cb0 <__spl_start+0x57c0>
 100706a:	87aa                	mv	a5,a0
 100706c:	f00519e3          	bnez	a0,1006f7e <__spl_start+0x5a8e>
 1007070:	4685                	li	a3,1
 1007072:	00710613          	addi	a2,sp,7
 1007076:	03500593          	li	a1,53
 100707a:	8522                	mv	a0,s0
 100707c:	bc9ff0ef          	jal	ra,1006c44 <__spl_start+0x5754>
 1007080:	f6054be3          	bltz	a0,1006ff6 <__spl_start+0x5b06>
 1007084:	00714783          	lbu	a5,7(sp)
 1007088:	d7bd                	beqz	a5,1006ff6 <__spl_start+0x5b06>
 100708a:	8b89                	andi	a5,a5,2
 100708c:	ea079ce3          	bnez	a5,1006f44 <__spl_start+0x5a54>
 1007090:	b79d                	j	1006ff6 <__spl_start+0x5b06>
 1007092:	6418                	ld	a4,8(s0)
 1007094:	010007b7          	lui	a5,0x1000
 1007098:	06e7f063          	bgeu	a5,a4,10070f8 <__spl_start+0x5c08>
 100709c:	4791                	li	a5,4
 100709e:	1af40623          	sb	a5,428(s0)
 10070a2:	0004c703          	lbu	a4,0(s1)
 10070a6:	4785                	li	a5,1
 10070a8:	00f70663          	beq	a4,a5,10070b4 <__spl_start+0x5bc4>
 10070ac:	48dc                	lw	a5,20(s1)
 10070ae:	83ad                	srli	a5,a5,0xb
 10070b0:	8b85                	andi	a5,a5,1
 10070b2:	c39d                	beqz	a5,10070d8 <__spl_start+0x5be8>
 10070b4:	1ae44703          	lbu	a4,430(s0)
 10070b8:	00002797          	auipc	a5,0x2
 10070bc:	06078793          	addi	a5,a5,96 # 1009118 <__spl_start+0x7c28>
 10070c0:	00002697          	auipc	a3,0x2
 10070c4:	06468693          	addi	a3,a3,100 # 1009124 <__spl_start+0x7c34>
 10070c8:	0007c603          	lbu	a2,0(a5)
 10070cc:	02e61263          	bne	a2,a4,10070f0 <__spl_start+0x5c00>
 10070d0:	0017c703          	lbu	a4,1(a5)
 10070d4:	1ae40723          	sb	a4,430(s0)
 10070d8:	1ac44683          	lbu	a3,428(s0)
 10070dc:	4711                	li	a4,4
 10070de:	57a9                	li	a5,-22
 10070e0:	e8d76fe3          	bltu	a4,a3,1006f7e <__spl_start+0x5a8e>
 10070e4:	18943c23          	sd	s1,408(s0)
 10070e8:	00e68a63          	beq	a3,a4,10070fc <__spl_start+0x5c0c>
 10070ec:	4781                	li	a5,0
 10070ee:	bd41                	j	1006f7e <__spl_start+0x5a8e>
 10070f0:	0789                	addi	a5,a5,2
 10070f2:	fcd79be3          	bne	a5,a3,10070c8 <__spl_start+0x5bd8>
 10070f6:	bff9                	j	10070d4 <__spl_start+0x5be4>
 10070f8:	478d                	li	a5,3
 10070fa:	bda9                	j	1006f54 <__spl_start+0x5a64>
 10070fc:	0004c703          	lbu	a4,0(s1)
 1007100:	4785                	li	a5,1
 1007102:	fef705e3          	beq	a4,a5,10070ec <__spl_start+0x5bfc>
 1007106:	48dc                	lw	a5,20(s1)
 1007108:	83ad                	srli	a5,a5,0xb
 100710a:	8b85                	andi	a5,a5,1
 100710c:	f3e5                	bnez	a5,10070ec <__spl_start+0x5bfc>
 100710e:	1c442783          	lw	a5,452(s0)
 1007112:	0407f793          	andi	a5,a5,64
 1007116:	c799                	beqz	a5,1007124 <__spl_start+0x5c34>
 1007118:	00003517          	auipc	a0,0x3
 100711c:	f0050513          	addi	a0,a0,-256 # 100a018 <__spl_start+0x8b28>
 1007120:	d74fe0ef          	jal	ra,1005694 <__spl_start+0x41a4>
 1007124:	19843783          	ld	a5,408(s0)
 1007128:	0c200713          	li	a4,194
 100712c:	0007c783          	lbu	a5,0(a5)
 1007130:	02e78963          	beq	a5,a4,1007162 <__spl_start+0x5c72>
 1007134:	02f76363          	bltu	a4,a5,100715a <__spl_start+0x5c6a>
 1007138:	02000713          	li	a4,32
 100713c:	02e78563          	beq	a5,a4,1007166 <__spl_start+0x5c76>
 1007140:	02c00713          	li	a4,44
 1007144:	02e78163          	beq	a5,a4,1007166 <__spl_start+0x5c76>
 1007148:	f8000793          	li	a5,-128
 100714c:	1cf40423          	sb	a5,456(s0)
 1007150:	4685                	li	a3,1
 1007152:	1c840613          	addi	a2,s0,456
 1007156:	45dd                	li	a1,23
 1007158:	a80d                	j	100718a <__spl_start+0x5c9a>
 100715a:	0ef00713          	li	a4,239
 100715e:	fee795e3          	bne	a5,a4,1007148 <__spl_start+0x5c58>
 1007162:	4481                	li	s1,0
 1007164:	a801                	j	1007174 <__spl_start+0x5c84>
 1007166:	4681                	li	a3,0
 1007168:	4601                	li	a2,0
 100716a:	4599                	li	a1,6
 100716c:	8522                	mv	a0,s0
 100716e:	bf3ff0ef          	jal	ra,1006d60 <__spl_start+0x5870>
 1007172:	4485                	li	s1,1
 1007174:	4681                	li	a3,0
 1007176:	4601                	li	a2,0
 1007178:	0b700593          	li	a1,183
 100717c:	8522                	mv	a0,s0
 100717e:	be3ff0ef          	jal	ra,1006d60 <__spl_start+0x5870>
 1007182:	d4ad                	beqz	s1,10070ec <__spl_start+0x5bfc>
 1007184:	4681                	li	a3,0
 1007186:	4601                	li	a2,0
 1007188:	4591                	li	a1,4
 100718a:	8522                	mv	a0,s0
 100718c:	bd5ff0ef          	jal	ra,1006d60 <__spl_start+0x5870>
 1007190:	bfb1                	j	10070ec <__spl_start+0x5bfc>
 1007192:	df400513          	li	a0,-524
 1007196:	8082                	ret
 1007198:	8082                	ret
 100719a:	13853783          	ld	a5,312(a0)
 100719e:	c785                	beqz	a5,10071c6 <__spl_start+0x5cd6>
 10071a0:	1101                	addi	sp,sp,-32
 10071a2:	e822                	sd	s0,16(sp)
 10071a4:	e426                	sd	s1,8(sp)
 10071a6:	ec06                	sd	ra,24(sp)
 10071a8:	1887b503          	ld	a0,392(a5)
 10071ac:	8436                	mv	s0,a3
 10071ae:	2581                	sext.w	a1,a1
 10071b0:	86ba                	mv	a3,a4
 10071b2:	84b2                	mv	s1,a2
 10071b4:	80fff0ef          	jal	ra,10069c2 <__spl_start+0x54d2>
 10071b8:	e111                	bnez	a0,10071bc <__spl_start+0x5ccc>
 10071ba:	e004                	sd	s1,0(s0)
 10071bc:	60e2                	ld	ra,24(sp)
 10071be:	6442                	ld	s0,16(sp)
 10071c0:	64a2                	ld	s1,8(sp)
 10071c2:	6105                	addi	sp,sp,32
 10071c4:	8082                	ret
 10071c6:	5535                	li	a0,-19
 10071c8:	8082                	ret
 10071ca:	13853783          	ld	a5,312(a0)
 10071ce:	c785                	beqz	a5,10071f6 <__spl_start+0x5d06>
 10071d0:	1101                	addi	sp,sp,-32
 10071d2:	e822                	sd	s0,16(sp)
 10071d4:	e426                	sd	s1,8(sp)
 10071d6:	ec06                	sd	ra,24(sp)
 10071d8:	1887b503          	ld	a0,392(a5)
 10071dc:	8436                	mv	s0,a3
 10071de:	2581                	sext.w	a1,a1
 10071e0:	86ba                	mv	a3,a4
 10071e2:	84b2                	mv	s1,a2
 10071e4:	fd6ff0ef          	jal	ra,10069ba <__spl_start+0x54ca>
 10071e8:	e111                	bnez	a0,10071ec <__spl_start+0x5cfc>
 10071ea:	e004                	sd	s1,0(s0)
 10071ec:	60e2                	ld	ra,24(sp)
 10071ee:	6442                	ld	s0,16(sp)
 10071f0:	64a2                	ld	s1,8(sp)
 10071f2:	6105                	addi	sp,sp,32
 10071f4:	8082                	ret
 10071f6:	5535                	li	a0,-19
 10071f8:	8082                	ret
 10071fa:	1101                	addi	sp,sp,-32
 10071fc:	e426                	sd	s1,8(sp)
 10071fe:	ec06                	sd	ra,24(sp)
 1007200:	e822                	sd	s0,16(sp)
 1007202:	13853783          	ld	a5,312(a0)
 1007206:	54b5                	li	s1,-19
 1007208:	c39d                	beqz	a5,100722e <__spl_start+0x5d3e>
 100720a:	4709                	li	a4,2
 100720c:	04e58423          	sb	a4,72(a1)
 1007210:	6990                	ld	a2,16(a1)
 1007212:	1887b503          	ld	a0,392(a5)
 1007216:	842e                	mv	s0,a1
 1007218:	458c                	lw	a1,8(a1)
 100721a:	fb0ff0ef          	jal	ra,10069ca <__spl_start+0x54da>
 100721e:	84aa                	mv	s1,a0
 1007220:	cd09                	beqz	a0,100723a <__spl_start+0x5d4a>
 1007222:	47c1                	li	a5,16
 1007224:	04f40423          	sb	a5,72(s0)
 1007228:	57fd                	li	a5,-1
 100722a:	ec1c                	sd	a5,24(s0)
 100722c:	54ed                	li	s1,-5
 100722e:	60e2                	ld	ra,24(sp)
 1007230:	6442                	ld	s0,16(sp)
 1007232:	8526                	mv	a0,s1
 1007234:	64a2                	ld	s1,8(sp)
 1007236:	6105                	addi	sp,sp,32
 1007238:	8082                	ret
 100723a:	47a1                	li	a5,8
 100723c:	04f40423          	sb	a5,72(s0)
 1007240:	7c1c                	ld	a5,56(s0)
 1007242:	d7f5                	beqz	a5,100722e <__spl_start+0x5d3e>
 1007244:	8522                	mv	a0,s0
 1007246:	9782                	jalr	a5
 1007248:	b7dd                	j	100722e <__spl_start+0x5d3e>
 100724a:	7179                	addi	sp,sp,-48
 100724c:	e84a                	sd	s2,16(sp)
 100724e:	00013917          	auipc	s2,0x13
 1007252:	8da90913          	addi	s2,s2,-1830 # 1019b28 <__spl_src_start+0xca40>
 1007256:	00094783          	lbu	a5,0(s2)
 100725a:	ec26                	sd	s1,24(sp)
 100725c:	f406                	sd	ra,40(sp)
 100725e:	f022                	sd	s0,32(sp)
 1007260:	e44e                	sd	s3,8(sp)
 1007262:	84aa                	mv	s1,a0
 1007264:	e7cd                	bnez	a5,100730e <__spl_start+0x5e1e>
 1007266:	00012417          	auipc	s0,0x12
 100726a:	73240413          	addi	s0,s0,1842 # 1019998 <__spl_src_start+0xc8b0>
 100726e:	18800613          	li	a2,392
 1007272:	4581                	li	a1,0
 1007274:	8522                	mv	a0,s0
 1007276:	00013997          	auipc	s3,0x13
 100727a:	8aa98993          	addi	s3,s3,-1878 # 1019b20 <__spl_src_start+0xca38>
 100727e:	00013797          	auipc	a5,0x13
 1007282:	8a078523          	sb	zero,-1878(a5) # 1019b28 <__spl_src_start+0xca40>
 1007286:	a2bfa0ef          	jal	ra,1001cb0 <__spl_start+0x7c0>
 100728a:	854e                	mv	a0,s3
 100728c:	4605                	li	a2,1
 100728e:	00002597          	auipc	a1,0x2
 1007292:	d9258593          	addi	a1,a1,-622 # 1009020 <__spl_start+0x7b30>
 1007296:	c2cfe0ef          	jal	ra,10056c2 <__spl_start+0x41d2>
 100729a:	478d                	li	a5,3
 100729c:	00f40023          	sb	a5,0(s0)
 10072a0:	6785                	lui	a5,0x1
 10072a2:	c0078793          	addi	a5,a5,-1024 # c00 <_start-0xfff400>
 10072a6:	c05c                	sw	a5,4(s0)
 10072a8:	1a84a783          	lw	a5,424(s1)
 10072ac:	03343c23          	sd	s3,56(s0)
 10072b0:	8522                	mv	a0,s0
 10072b2:	cc1c                	sw	a5,24(s0)
 10072b4:	00000797          	auipc	a5,0x0
 10072b8:	f4678793          	addi	a5,a5,-186 # 10071fa <__spl_start+0x5d0a>
 10072bc:	f83c                	sd	a5,112(s0)
 10072be:	00000797          	auipc	a5,0x0
 10072c2:	f0c78793          	addi	a5,a5,-244 # 10071ca <__spl_start+0x5cda>
 10072c6:	e05c                	sd	a5,128(s0)
 10072c8:	00000797          	auipc	a5,0x0
 10072cc:	ed278793          	addi	a5,a5,-302 # 100719a <__spl_start+0x5caa>
 10072d0:	e45c                	sd	a5,136(s0)
 10072d2:	00000797          	auipc	a5,0x0
 10072d6:	ec678793          	addi	a5,a5,-314 # 1007198 <__spl_start+0x5ca8>
 10072da:	ec7c                	sd	a5,216(s0)
 10072dc:	2384e783          	lwu	a5,568(s1)
 10072e0:	4985                	li	s3,1
 10072e2:	01342a23          	sw	s3,20(s0)
 10072e6:	e41c                	sd	a5,8(s0)
 10072e8:	00012797          	auipc	a5,0x12
 10072ec:	7007a823          	sw	zero,1808(a5) # 10199f8 <__spl_src_start+0xc910>
 10072f0:	23c4a783          	lw	a5,572(s1)
 10072f4:	12943c23          	sd	s1,312(s0)
 10072f8:	c81c                	sw	a5,16(s0)
 10072fa:	d6aff0ef          	jal	ra,1006864 <__spl_start+0x5374>
 10072fe:	c105                	beqz	a0,100731e <__spl_start+0x5e2e>
 1007300:	70a2                	ld	ra,40(sp)
 1007302:	7402                	ld	s0,32(sp)
 1007304:	64e2                	ld	s1,24(sp)
 1007306:	6942                	ld	s2,16(sp)
 1007308:	69a2                	ld	s3,8(sp)
 100730a:	6145                	addi	sp,sp,48
 100730c:	8082                	ret
 100730e:	00012517          	auipc	a0,0x12
 1007312:	68a50513          	addi	a0,a0,1674 # 1019998 <__spl_src_start+0xc8b0>
 1007316:	cd4ff0ef          	jal	ra,10067ea <__spl_start+0x52fa>
 100731a:	d531                	beqz	a0,1007266 <__spl_start+0x5d76>
 100731c:	b7d5                	j	1007300 <__spl_start+0x5e10>
 100731e:	01390023          	sb	s3,0(s2)
 1007322:	bff9                	j	1007300 <__spl_start+0x5e10>
 1007324:	00013797          	auipc	a5,0x13
 1007328:	8047c783          	lbu	a5,-2044(a5) # 1019b28 <__spl_src_start+0xca40>
 100732c:	c3b1                	beqz	a5,1007370 <__spl_start+0x5e80>
 100732e:	1141                	addi	sp,sp,-16
 1007330:	e022                	sd	s0,0(sp)
 1007332:	00012417          	auipc	s0,0x12
 1007336:	66640413          	addi	s0,s0,1638 # 1019998 <__spl_src_start+0xc8b0>
 100733a:	8522                	mv	a0,s0
 100733c:	e406                	sd	ra,8(sp)
 100733e:	cacff0ef          	jal	ra,10067ea <__spl_start+0x52fa>
 1007342:	e909                	bnez	a0,1007354 <__spl_start+0x5e64>
 1007344:	60a2                	ld	ra,8(sp)
 1007346:	6402                	ld	s0,0(sp)
 1007348:	00012797          	auipc	a5,0x12
 100734c:	7e078023          	sb	zero,2016(a5) # 1019b28 <__spl_src_start+0xca40>
 1007350:	0141                	addi	sp,sp,16
 1007352:	8082                	ret
 1007354:	7c0c                	ld	a1,56(s0)
 1007356:	6402                	ld	s0,0(sp)
 1007358:	60a2                	ld	ra,8(sp)
 100735a:	00012797          	auipc	a5,0x12
 100735e:	7607bb23          	sd	zero,1910(a5) # 1019ad0 <__spl_src_start+0xc9e8>
 1007362:	00002517          	auipc	a0,0x2
 1007366:	cc650513          	addi	a0,a0,-826 # 1009028 <__spl_start+0x7b38>
 100736a:	0141                	addi	sp,sp,16
 100736c:	b28fe06f          	j	1005694 <__spl_start+0x41a4>
 1007370:	8082                	ret
 1007372:	7179                	addi	sp,sp,-48
 1007374:	f022                	sd	s0,32(sp)
 1007376:	ec26                	sd	s1,24(sp)
 1007378:	f406                	sd	ra,40(sp)
 100737a:	e84a                	sd	s2,16(sp)
 100737c:	e44e                	sd	s3,8(sp)
 100737e:	611c                	ld	a5,0(a0)
 1007380:	842a                	mv	s0,a0
 1007382:	84ae                	mv	s1,a1
 1007384:	0687b983          	ld	s3,104(a5)
 1007388:	47a9                	li	a5,10
 100738a:	00f59563          	bne	a1,a5,1007394 <__spl_start+0x5ea4>
 100738e:	45b5                	li	a1,13
 1007390:	fe3ff0ef          	jal	ra,1007372 <__spl_start+0x5e82>
 1007394:	5955                	li	s2,-11
 1007396:	0109b783          	ld	a5,16(s3)
 100739a:	85a6                	mv	a1,s1
 100739c:	8522                	mv	a0,s0
 100739e:	9782                	jalr	a5
 10073a0:	ff250be3          	beq	a0,s2,1007396 <__spl_start+0x5ea6>
 10073a4:	70a2                	ld	ra,40(sp)
 10073a6:	7402                	ld	s0,32(sp)
 10073a8:	64e2                	ld	s1,24(sp)
 10073aa:	6942                	ld	s2,16(sp)
 10073ac:	69a2                	ld	s3,8(sp)
 10073ae:	6145                	addi	sp,sp,48
 10073b0:	8082                	ret
 10073b2:	611c                	ld	a5,0(a0)
 10073b4:	77bc                	ld	a5,104(a5)
 10073b6:	639c                	ld	a5,0(a5)
 10073b8:	c781                	beqz	a5,10073c0 <__spl_start+0x5ed0>
 10073ba:	0101a583          	lw	a1,16(gp)
 10073be:	8782                	jr	a5
 10073c0:	4501                	li	a0,0
 10073c2:	8082                	ret
 10073c4:	4501                	li	a0,0
 10073c6:	8082                	ret
 10073c8:	85aa                	mv	a1,a0
 10073ca:	1381b503          	ld	a0,312(gp)
 10073ce:	c119                	beqz	a0,10073d4 <__spl_start+0x5ee4>
 10073d0:	fa3ff06f          	j	1007372 <__spl_start+0x5e82>
 10073d4:	8082                	ret
 10073d6:	1101                	addi	sp,sp,-32
 10073d8:	e822                	sd	s0,16(sp)
 10073da:	ec06                	sd	ra,24(sp)
 10073dc:	e426                	sd	s1,8(sp)
 10073de:	1381b483          	ld	s1,312(gp)
 10073e2:	842a                	mv	s0,a0
 10073e4:	e891                	bnez	s1,10073f8 <__spl_start+0x5f08>
 10073e6:	60e2                	ld	ra,24(sp)
 10073e8:	6442                	ld	s0,16(sp)
 10073ea:	64a2                	ld	s1,8(sp)
 10073ec:	6105                	addi	sp,sp,32
 10073ee:	8082                	ret
 10073f0:	8526                	mv	a0,s1
 10073f2:	0405                	addi	s0,s0,1
 10073f4:	f7fff0ef          	jal	ra,1007372 <__spl_start+0x5e82>
 10073f8:	00044583          	lbu	a1,0(s0)
 10073fc:	f9f5                	bnez	a1,10073f0 <__spl_start+0x5f00>
 10073fe:	b7e5                	j	10073e6 <__spl_start+0x5ef6>
 1007400:	1381b503          	ld	a0,312(gp)
 1007404:	c901                	beqz	a0,1007414 <__spl_start+0x5f24>
 1007406:	611c                	ld	a5,0(a0)
 1007408:	77bc                	ld	a5,104(a5)
 100740a:	639c                	ld	a5,0(a5)
 100740c:	c781                	beqz	a5,1007414 <__spl_start+0x5f24>
 100740e:	0101a583          	lw	a1,16(gp)
 1007412:	8782                	jr	a5
 1007414:	8082                	ret
 1007416:	7139                	addi	sp,sp,-64
 1007418:	f04a                	sd	s2,32(sp)
 100741a:	fc06                	sd	ra,56(sp)
 100741c:	f822                	sd	s0,48(sp)
 100741e:	f426                	sd	s1,40(sp)
 1007420:	0d81b483          	ld	s1,216(gp)
 1007424:	01810913          	addi	s2,sp,24
 1007428:	c0f1                	beqz	s1,10074ec <__spl_start+0x5ffc>
 100742a:	00002597          	auipc	a1,0x2
 100742e:	b1e58593          	addi	a1,a1,-1250 # 1008f48 <__spl_start+0x7a58>
 1007432:	8526                	mv	a0,s1
 1007434:	a39fd0ef          	jal	ra,1004e6c <__spl_start+0x397c>
 1007438:	842a                	mv	s0,a0
 100743a:	e139                	bnez	a0,1007480 <__spl_start+0x5f90>
 100743c:	00002597          	auipc	a1,0x2
 1007440:	b1c58593          	addi	a1,a1,-1252 # 1008f58 <__spl_start+0x7a68>
 1007444:	8526                	mv	a0,s1
 1007446:	8d2fd0ef          	jal	ra,1004518 <__spl_start+0x3028>
 100744a:	85aa                	mv	a1,a0
 100744c:	864a                	mv	a2,s2
 100744e:	05500513          	li	a0,85
 1007452:	e42e                	sd	a1,8(sp)
 1007454:	fa5fe0ef          	jal	ra,10063f8 <__spl_start+0x4f08>
 1007458:	65a2                	ld	a1,8(sp)
 100745a:	e535                	bnez	a0,10074c6 <__spl_start+0x5fd6>
 100745c:	67e2                	ld	a5,24(sp)
 100745e:	12f1bc23          	sd	a5,312(gp)
 1007462:	0081b783          	ld	a5,8(gp)
 1007466:	1007e793          	ori	a5,a5,256
 100746a:	00f1b423          	sd	a5,8(gp)
 100746e:	f93ff0ef          	jal	ra,1007400 <__spl_start+0x5f10>
 1007472:	70e2                	ld	ra,56(sp)
 1007474:	7442                	ld	s0,48(sp)
 1007476:	74a2                	ld	s1,40(sp)
 1007478:	7902                	ld	s2,32(sp)
 100747a:	4501                	li	a0,0
 100747c:	6121                	addi	sp,sp,64
 100747e:	8082                	ret
 1007480:	03a00593          	li	a1,58
 1007484:	d15fd0ef          	jal	ra,1005198 <__spl_start+0x3ca8>
 1007488:	c90d                	beqz	a0,10074ba <__spl_start+0x5fca>
 100748a:	4085063b          	subw	a2,a0,s0
 100748e:	85a2                	mv	a1,s0
 1007490:	8526                	mv	a0,s1
 1007492:	e432                	sd	a2,8(sp)
 1007494:	fdbfc0ef          	jal	ra,100446e <__spl_start+0x2f7e>
 1007498:	6622                	ld	a2,8(sp)
 100749a:	85aa                	mv	a1,a0
 100749c:	fa0558e3          	bgez	a0,100744c <__spl_start+0x5f5c>
 10074a0:	85a2                	mv	a1,s0
 10074a2:	8526                	mv	a0,s1
 10074a4:	f8dfc0ef          	jal	ra,1004430 <__spl_start+0x2f40>
 10074a8:	85aa                	mv	a1,a0
 10074aa:	d949                	beqz	a0,100743c <__spl_start+0x5f4c>
 10074ac:	8526                	mv	a0,s1
 10074ae:	86afd0ef          	jal	ra,1004518 <__spl_start+0x3028>
 10074b2:	85aa                	mv	a1,a0
 10074b4:	f80544e3          	bltz	a0,100743c <__spl_start+0x5f4c>
 10074b8:	bf51                	j	100744c <__spl_start+0x5f5c>
 10074ba:	8522                	mv	a0,s0
 10074bc:	cf5fd0ef          	jal	ra,10051b0 <__spl_start+0x3cc0>
 10074c0:	0005061b          	sext.w	a2,a0
 10074c4:	b7e9                	j	100748e <__spl_start+0x5f9e>
 10074c6:	00b05d63          	blez	a1,10074e0 <__spl_start+0x5ff0>
 10074ca:	0a81b503          	ld	a0,168(gp)
 10074ce:	4681                	li	a3,0
 10074d0:	864a                	mv	a2,s2
 10074d2:	8e9fe0ef          	jal	ra,1005dba <__spl_start+0x48ca>
 10074d6:	e509                	bnez	a0,10074e0 <__spl_start+0x5ff0>
 10074d8:	6562                	ld	a0,24(sp)
 10074da:	c1afe0ef          	jal	ra,10058f4 <__spl_start+0x4404>
 10074de:	dd3d                	beqz	a0,100745c <__spl_start+0x5f6c>
 10074e0:	00002517          	auipc	a0,0x2
 10074e4:	a8050513          	addi	a0,a0,-1408 # 1008f60 <__spl_start+0x7a70>
 10074e8:	e7ffd0ef          	jal	ra,1005366 <__spl_start+0x3e76>
 10074ec:	864a                	mv	a2,s2
 10074ee:	4581                	li	a1,0
 10074f0:	05500513          	li	a0,85
 10074f4:	ee1fe0ef          	jal	ra,10063d4 <__spl_start+0x4ee4>
 10074f8:	d135                	beqz	a0,100745c <__spl_start+0x5f6c>
 10074fa:	864a                	mv	a2,s2
 10074fc:	4581                	li	a1,0
 10074fe:	05500513          	li	a0,85
 1007502:	eaffe0ef          	jal	ra,10063b0 <__spl_start+0x4ec0>
 1007506:	d939                	beqz	a0,100745c <__spl_start+0x5f6c>
 1007508:	85ca                	mv	a1,s2
 100750a:	05500513          	li	a0,85
 100750e:	f33fe0ef          	jal	ra,1006440 <__spl_start+0x4f50>
 1007512:	f579                	bnez	a0,10074e0 <__spl_start+0x5ff0>
 1007514:	67e2                	ld	a5,24(sp)
 1007516:	f3b9                	bnez	a5,100745c <__spl_start+0x5f6c>
 1007518:	b7e1                	j	10074e0 <__spl_start+0x5ff0>
 100751a:	1141                	addi	sp,sp,-16
 100751c:	e022                	sd	s0,0(sp)
 100751e:	e406                	sd	ra,8(sp)
 1007520:	842e                	mv	s0,a1
 1007522:	a8cfe0ef          	jal	ra,10057ae <__spl_start+0x42be>
 1007526:	6d1c                	ld	a5,24(a0)
 1007528:	00043023          	sd	zero,0(s0)
 100752c:	60a2                	ld	ra,8(sp)
 100752e:	6398                	ld	a4,0(a5)
 1007530:	4501                	li	a0,0
 1007532:	e418                	sd	a4,8(s0)
 1007534:	4798                	lw	a4,8(a5)
 1007536:	00e40823          	sb	a4,16(s0)
 100753a:	47d8                	lw	a4,12(a5)
 100753c:	00e40923          	sb	a4,18(s0)
 1007540:	4b98                	lw	a4,16(a5)
 1007542:	00e408a3          	sb	a4,17(s0)
 1007546:	4bdc                	lw	a5,20(a5)
 1007548:	c85c                	sw	a5,20(s0)
 100754a:	6402                	ld	s0,0(sp)
 100754c:	0141                	addi	sp,sp,16
 100754e:	8082                	ret
 1007550:	1101                	addi	sp,sp,-32
 1007552:	ec06                	sd	ra,24(sp)
 1007554:	e822                	sd	s0,16(sp)
 1007556:	e426                	sd	s1,8(sp)
 1007558:	e04a                	sd	s2,0(sp)
 100755a:	84aa                	mv	s1,a0
 100755c:	a40fe0ef          	jal	ra,100579c <__spl_start+0x42ac>
 1007560:	842a                	mv	s0,a0
 1007562:	8526                	mv	a0,s1
 1007564:	a90fe0ef          	jal	ra,10057f4 <__spl_start+0x4304>
 1007568:	0005091b          	sext.w	s2,a0
 100756c:	8526                	mv	a0,s1
 100756e:	eaafe0ef          	jal	ra,1005c18 <__spl_start+0x4728>
 1007572:	57fd                	li	a5,-1
 1007574:	9381                	srli	a5,a5,0x20
 1007576:	00f51b63          	bne	a0,a5,100758c <__spl_start+0x609c>
 100757a:	7888                	ld	a0,48(s1)
 100757c:	e925                	bnez	a0,10075ec <__spl_start+0x60fc>
 100757e:	5529                	li	a0,-22
 1007580:	60e2                	ld	ra,24(sp)
 1007582:	6442                	ld	s0,16(sp)
 1007584:	64a2                	ld	s1,8(sp)
 1007586:	6902                	ld	s2,0(sp)
 1007588:	6105                	addi	sp,sp,32
 100758a:	8082                	ret
 100758c:	e008                	sd	a0,0(s0)
 100758e:	68c8                	ld	a0,144(s1)
 1007590:	4601                	li	a2,0
 1007592:	00002597          	auipc	a1,0x2
 1007596:	8e658593          	addi	a1,a1,-1818 # 1008e78 <__spl_start+0x7988>
 100759a:	8c6ff0ef          	jal	ra,1006660 <__spl_start+0x5170>
 100759e:	c808                	sw	a0,16(s0)
 10075a0:	68c8                	ld	a0,144(s1)
 10075a2:	4601                	li	a2,0
 10075a4:	00002597          	auipc	a1,0x2
 10075a8:	8e458593          	addi	a1,a1,-1820 # 1008e88 <__spl_start+0x7998>
 10075ac:	8b4ff0ef          	jal	ra,1006660 <__spl_start+0x5170>
 10075b0:	c448                	sw	a0,12(s0)
 10075b2:	68c8                	ld	a0,144(s1)
 10075b4:	4605                	li	a2,1
 10075b6:	00002597          	auipc	a1,0x2
 10075ba:	8e258593          	addi	a1,a1,-1822 # 1008e98 <__spl_start+0x79a8>
 10075be:	8a2ff0ef          	jal	ra,1006660 <__spl_start+0x5170>
 10075c2:	485c                	lw	a5,20(s0)
 10075c4:	c408                	sw	a0,8(s0)
 10075c6:	ef81                	bnez	a5,10075de <__spl_start+0x60ee>
 10075c8:	68c8                	ld	a0,144(s1)
 10075ca:	4601                	li	a2,0
 10075cc:	00002597          	auipc	a1,0x2
 10075d0:	8dc58593          	addi	a1,a1,-1828 # 1008ea8 <__spl_start+0x79b8>
 10075d4:	88cff0ef          	jal	ra,1006660 <__spl_start+0x5170>
 10075d8:	2501                	sext.w	a0,a0
 10075da:	c848                	sw	a0,20(s0)
 10075dc:	d14d                	beqz	a0,100757e <__spl_start+0x608e>
 10075de:	4785                	li	a5,1
 10075e0:	00f90d63          	beq	s2,a5,10075fa <__spl_start+0x610a>
 10075e4:	479d                	li	a5,7
 10075e6:	cc1c                	sw	a5,24(s0)
 10075e8:	4501                	li	a0,0
 10075ea:	bf59                	j	1007580 <__spl_start+0x6090>
 10075ec:	a0cfe0ef          	jal	ra,10057f8 <__spl_start+0x4308>
 10075f0:	04200793          	li	a5,66
 10075f4:	f8f50de3          	beq	a0,a5,100758e <__spl_start+0x609e>
 10075f8:	b759                	j	100757e <__spl_start+0x608e>
 10075fa:	47dd                	li	a5,23
 10075fc:	b7ed                	j	10075e6 <__spl_start+0x60f6>
 10075fe:	4558                	lw	a4,12(a0)
 1007600:	491c                	lw	a5,16(a0)
 1007602:	00e595bb          	sllw	a1,a1,a4
 1007606:	6118                	ld	a4,0(a0)
 1007608:	97ae                	add	a5,a5,a1
 100760a:	97ba                	add	a5,a5,a4
 100760c:	0007c503          	lbu	a0,0(a5)
 1007610:	0aa0000f          	fence	ir,ir
 1007614:	8082                	ret
 1007616:	1141                	addi	sp,sp,-16
 1007618:	e406                	sd	ra,8(sp)
 100761a:	e022                	sd	s0,0(sp)
 100761c:	992fe0ef          	jal	ra,10057ae <__spl_start+0x42be>
 1007620:	842a                	mv	s0,a0
 1007622:	6d08                	ld	a0,24(a0)
 1007624:	4595                	li	a1,5
 1007626:	fd9ff0ef          	jal	ra,10075fe <__spl_start+0x610e>
 100762a:	8905                	andi	a0,a0,1
 100762c:	c901                	beqz	a0,100763c <__spl_start+0x614c>
 100762e:	6c08                	ld	a0,24(s0)
 1007630:	6402                	ld	s0,0(sp)
 1007632:	60a2                	ld	ra,8(sp)
 1007634:	4581                	li	a1,0
 1007636:	0141                	addi	sp,sp,16
 1007638:	fc7ff06f          	j	10075fe <__spl_start+0x610e>
 100763c:	60a2                	ld	ra,8(sp)
 100763e:	6402                	ld	s0,0(sp)
 1007640:	5555                	li	a0,-11
 1007642:	0141                	addi	sp,sp,16
 1007644:	8082                	ret
 1007646:	1141                	addi	sp,sp,-16
 1007648:	e022                	sd	s0,0(sp)
 100764a:	e406                	sd	ra,8(sp)
 100764c:	842e                	mv	s0,a1
 100764e:	960fe0ef          	jal	ra,10057ae <__spl_start+0x42be>
 1007652:	6d08                	ld	a0,24(a0)
 1007654:	4595                	li	a1,5
 1007656:	c801                	beqz	s0,1007666 <__spl_start+0x6176>
 1007658:	fa7ff0ef          	jal	ra,10075fe <__spl_start+0x610e>
 100765c:	60a2                	ld	ra,8(sp)
 100765e:	6402                	ld	s0,0(sp)
 1007660:	8905                	andi	a0,a0,1
 1007662:	0141                	addi	sp,sp,16
 1007664:	8082                	ret
 1007666:	f99ff0ef          	jal	ra,10075fe <__spl_start+0x610e>
 100766a:	4055551b          	sraiw	a0,a0,0x5
 100766e:	00154513          	xori	a0,a0,1
 1007672:	b7ed                	j	100765c <__spl_start+0x616c>
 1007674:	6118                	ld	a4,0(a0)
 1007676:	491c                	lw	a5,16(a0)
 1007678:	97ba                	add	a5,a5,a4
 100767a:	4558                	lw	a4,12(a0)
 100767c:	00e595bb          	sllw	a1,a1,a4
 1007680:	97ae                	add	a5,a5,a1
 1007682:	0550000f          	fence	ow,ow
 1007686:	00c78023          	sb	a2,0(a5)
 100768a:	8082                	ret
 100768c:	1101                	addi	sp,sp,-32
 100768e:	ec06                	sd	ra,24(sp)
 1007690:	e822                	sd	s0,16(sp)
 1007692:	e42e                	sd	a1,8(sp)
 1007694:	91afe0ef          	jal	ra,10057ae <__spl_start+0x42be>
 1007698:	842a                	mv	s0,a0
 100769a:	6d08                	ld	a0,24(a0)
 100769c:	4595                	li	a1,5
 100769e:	f61ff0ef          	jal	ra,10075fe <__spl_start+0x610e>
 10076a2:	02057513          	andi	a0,a0,32
 10076a6:	c919                	beqz	a0,10076bc <__spl_start+0x61cc>
 10076a8:	6c08                	ld	a0,24(s0)
 10076aa:	6622                	ld	a2,8(sp)
 10076ac:	4581                	li	a1,0
 10076ae:	fc7ff0ef          	jal	ra,1007674 <__spl_start+0x6184>
 10076b2:	4501                	li	a0,0
 10076b4:	60e2                	ld	ra,24(sp)
 10076b6:	6442                	ld	s0,16(sp)
 10076b8:	6105                	addi	sp,sp,32
 10076ba:	8082                	ret
 10076bc:	5555                	li	a0,-11
 10076be:	bfdd                	j	10076b4 <__spl_start+0x61c4>
 10076c0:	1141                	addi	sp,sp,-16
 10076c2:	e022                	sd	s0,0(sp)
 10076c4:	e406                	sd	ra,8(sp)
 10076c6:	842e                	mv	s0,a1
 10076c8:	8e6fe0ef          	jal	ra,10057ae <__spl_start+0x42be>
 10076cc:	00347693          	andi	a3,s0,3
 10076d0:	0044571b          	srliw	a4,s0,0x4
 10076d4:	0024541b          	srliw	s0,s0,0x2
 10076d8:	880d                	andi	s0,s0,3
 10076da:	460d                	li	a2,3
 10076dc:	02c41b63          	bne	s0,a2,1007712 <__spl_start+0x6222>
 10076e0:	8b0d                	andi	a4,a4,3
 10076e2:	4605                	li	a2,1
 10076e4:	87aa                	mv	a5,a0
 10076e6:	df400513          	li	a0,-524
 10076ea:	02c71063          	bne	a4,a2,100770a <__spl_start+0x621a>
 10076ee:	00868e63          	beq	a3,s0,100770a <__spl_start+0x621a>
 10076f2:	00001717          	auipc	a4,0x1
 10076f6:	0d670713          	addi	a4,a4,214 # 10087c8 <__spl_start+0x72d8>
 10076fa:	9736                	add	a4,a4,a3
 10076fc:	6f88                	ld	a0,24(a5)
 10076fe:	00070603          	lb	a2,0(a4)
 1007702:	458d                	li	a1,3
 1007704:	f71ff0ef          	jal	ra,1007674 <__spl_start+0x6184>
 1007708:	4501                	li	a0,0
 100770a:	60a2                	ld	ra,8(sp)
 100770c:	6402                	ld	s0,0(sp)
 100770e:	0141                	addi	sp,sp,16
 1007710:	8082                	ret
 1007712:	df400513          	li	a0,-524
 1007716:	bfd5                	j	100770a <__spl_start+0x621a>
 1007718:	1101                	addi	sp,sp,-32
 100771a:	ec06                	sd	ra,24(sp)
 100771c:	e822                	sd	s0,16(sp)
 100771e:	e426                	sd	s1,8(sp)
 1007720:	e04a                	sd	s2,0(sp)
 1007722:	842a                	mv	s0,a0
 1007724:	6d08                	ld	a0,24(a0)
 1007726:	892e                	mv	s2,a1
 1007728:	458d                	li	a1,3
 100772a:	ed5ff0ef          	jal	ra,10075fe <__spl_start+0x610e>
 100772e:	f7f57493          	andi	s1,a0,-129
 1007732:	6c08                	ld	a0,24(s0)
 1007734:	2481                	sext.w	s1,s1
 1007736:	0804e613          	ori	a2,s1,128
 100773a:	458d                	li	a1,3
 100773c:	f39ff0ef          	jal	ra,1007674 <__spl_start+0x6184>
 1007740:	6c08                	ld	a0,24(s0)
 1007742:	0ff97613          	andi	a2,s2,255
 1007746:	4581                	li	a1,0
 1007748:	f2dff0ef          	jal	ra,1007674 <__spl_start+0x6184>
 100774c:	6c08                	ld	a0,24(s0)
 100774e:	4089561b          	sraiw	a2,s2,0x8
 1007752:	0ff67613          	andi	a2,a2,255
 1007756:	4585                	li	a1,1
 1007758:	f1dff0ef          	jal	ra,1007674 <__spl_start+0x6184>
 100775c:	6c08                	ld	a0,24(s0)
 100775e:	6442                	ld	s0,16(sp)
 1007760:	60e2                	ld	ra,24(sp)
 1007762:	6902                	ld	s2,0(sp)
 1007764:	8626                	mv	a2,s1
 1007766:	64a2                	ld	s1,8(sp)
 1007768:	458d                	li	a1,3
 100776a:	6105                	addi	sp,sp,32
 100776c:	f09ff06f          	j	1007674 <__spl_start+0x6184>
 1007770:	0046161b          	slliw	a2,a2,0x4
 1007774:	0016551b          	srliw	a0,a2,0x1
 1007778:	9d2d                	addw	a0,a0,a1
 100777a:	02c5553b          	divuw	a0,a0,a2
 100777e:	8082                	ret
 1007780:	1101                	addi	sp,sp,-32
 1007782:	ec06                	sd	ra,24(sp)
 1007784:	e822                	sd	s0,16(sp)
 1007786:	e42e                	sd	a1,8(sp)
 1007788:	826fe0ef          	jal	ra,10057ae <__spl_start+0x42be>
 100778c:	6d1c                	ld	a5,24(a0)
 100778e:	6622                	ld	a2,8(sp)
 1007790:	842a                	mv	s0,a0
 1007792:	4bcc                	lw	a1,20(a5)
 1007794:	fddff0ef          	jal	ra,1007770 <__spl_start+0x6280>
 1007798:	85aa                	mv	a1,a0
 100779a:	8522                	mv	a0,s0
 100779c:	f7dff0ef          	jal	ra,1007718 <__spl_start+0x6228>
 10077a0:	60e2                	ld	ra,24(sp)
 10077a2:	6442                	ld	s0,16(sp)
 10077a4:	4501                	li	a0,0
 10077a6:	6105                	addi	sp,sp,32
 10077a8:	8082                	ret
 10077aa:	1101                	addi	sp,sp,-32
 10077ac:	e822                	sd	s0,16(sp)
 10077ae:	e426                	sd	s1,8(sp)
 10077b0:	ec06                	sd	ra,24(sp)
 10077b2:	842a                	mv	s0,a0
 10077b4:	84ae                	mv	s1,a1
 10077b6:	6c08                	ld	a0,24(s0)
 10077b8:	4595                	li	a1,5
 10077ba:	e45ff0ef          	jal	ra,10075fe <__spl_start+0x610e>
 10077be:	04057513          	andi	a0,a0,64
 10077c2:	d975                	beqz	a0,10077b6 <__spl_start+0x62c6>
 10077c4:	6c08                	ld	a0,24(s0)
 10077c6:	4601                	li	a2,0
 10077c8:	4585                	li	a1,1
 10077ca:	eabff0ef          	jal	ra,1007674 <__spl_start+0x6184>
 10077ce:	6c08                	ld	a0,24(s0)
 10077d0:	460d                	li	a2,3
 10077d2:	4591                	li	a1,4
 10077d4:	ea1ff0ef          	jal	ra,1007674 <__spl_start+0x6184>
 10077d8:	6c08                	ld	a0,24(s0)
 10077da:	4589                	li	a1,2
 10077dc:	4d10                	lw	a2,24(a0)
 10077de:	e97ff0ef          	jal	ra,1007674 <__spl_start+0x6184>
 10077e2:	6c08                	ld	a0,24(s0)
 10077e4:	460d                	li	a2,3
 10077e6:	458d                	li	a1,3
 10077e8:	e8dff0ef          	jal	ra,1007674 <__spl_start+0x6184>
 10077ec:	57fd                	li	a5,-1
 10077ee:	00f48a63          	beq	s1,a5,1007802 <__spl_start+0x6312>
 10077f2:	8522                	mv	a0,s0
 10077f4:	6442                	ld	s0,16(sp)
 10077f6:	60e2                	ld	ra,24(sp)
 10077f8:	85a6                	mv	a1,s1
 10077fa:	64a2                	ld	s1,8(sp)
 10077fc:	6105                	addi	sp,sp,32
 10077fe:	f1bff06f          	j	1007718 <__spl_start+0x6228>
 1007802:	60e2                	ld	ra,24(sp)
 1007804:	6442                	ld	s0,16(sp)
 1007806:	64a2                	ld	s1,8(sp)
 1007808:	6105                	addi	sp,sp,32
 100780a:	8082                	ret
 100780c:	1101                	addi	sp,sp,-32
 100780e:	ec06                	sd	ra,24(sp)
 1007810:	e822                	sd	s0,16(sp)
 1007812:	e426                	sd	s1,8(sp)
 1007814:	842a                	mv	s0,a0
 1007816:	e04a                	sd	s2,0(sp)
 1007818:	f85fd0ef          	jal	ra,100579c <__spl_start+0x42ac>
 100781c:	892a                	mv	s2,a0
 100781e:	8522                	mv	a0,s0
 1007820:	f8ffd0ef          	jal	ra,10057ae <__spl_start+0x42be>
 1007824:	84aa                	mv	s1,a0
 1007826:	7808                	ld	a0,48(s0)
 1007828:	c115                	beqz	a0,100784c <__spl_start+0x635c>
 100782a:	fcffd0ef          	jal	ra,10057f8 <__spl_start+0x4308>
 100782e:	04200793          	li	a5,66
 1007832:	00f51d63          	bne	a0,a5,100784c <__spl_start+0x635c>
 1007836:	8522                	mv	a0,s0
 1007838:	bfefe0ef          	jal	ra,1005c36 <__spl_start+0x4746>
 100783c:	577d                	li	a4,-1
 100783e:	87aa                	mv	a5,a0
 1007840:	9301                	srli	a4,a4,0x20
 1007842:	5529                	li	a0,-22
 1007844:	00e78d63          	beq	a5,a4,100785e <__spl_start+0x636e>
 1007848:	00f93023          	sd	a5,0(s2)
 100784c:	8522                	mv	a0,s0
 100784e:	f4ffd0ef          	jal	ra,100579c <__spl_start+0x42ac>
 1007852:	ec88                	sd	a0,24(s1)
 1007854:	55fd                	li	a1,-1
 1007856:	8526                	mv	a0,s1
 1007858:	f53ff0ef          	jal	ra,10077aa <__spl_start+0x62ba>
 100785c:	4501                	li	a0,0
 100785e:	60e2                	ld	ra,24(sp)
 1007860:	6442                	ld	s0,16(sp)
 1007862:	64a2                	ld	s1,8(sp)
 1007864:	6902                	ld	s2,0(sp)
 1007866:	6105                	addi	sp,sp,32
 1007868:	8082                	ret
 100786a:	7179                	addi	sp,sp,-48
 100786c:	ec26                	sd	s1,24(sp)
 100786e:	f406                	sd	ra,40(sp)
 1007870:	f022                	sd	s0,32(sp)
 1007872:	e84a                	sd	s2,16(sp)
 1007874:	e44e                	sd	s3,8(sp)
 1007876:	611c                	ld	a5,0(a0)
 1007878:	84aa                	mv	s1,a0
 100787a:	0687b983          	ld	s3,104(a5)
 100787e:	0289b783          	ld	a5,40(s3)
 1007882:	cb85                	beqz	a5,10078b2 <__spl_start+0x63c2>
 1007884:	8932                	mv	s2,a2
 1007886:	9782                	jalr	a5
 1007888:	842a                	mv	s0,a0
 100788a:	c121                	beqz	a0,10078ca <__spl_start+0x63da>
 100788c:	c48d                	beqz	s1,10078b6 <__spl_start+0x63c6>
 100788e:	609c                	ld	a5,0(s1)
 1007890:	6490                	ld	a2,8(s1)
 1007892:	86a2                	mv	a3,s0
 1007894:	638c                	ld	a1,0(a5)
 1007896:	00003517          	auipc	a0,0x3
 100789a:	81a50513          	addi	a0,a0,-2022 # 100a0b0 <__spl_start+0x8bc0>
 100789e:	df7fd0ef          	jal	ra,1005694 <__spl_start+0x41a4>
 10078a2:	70a2                	ld	ra,40(sp)
 10078a4:	8522                	mv	a0,s0
 10078a6:	7402                	ld	s0,32(sp)
 10078a8:	64e2                	ld	s1,24(sp)
 10078aa:	6942                	ld	s2,16(sp)
 10078ac:	69a2                	ld	s3,8(sp)
 10078ae:	6145                	addi	sp,sp,48
 10078b0:	8082                	ret
 10078b2:	5429                	li	s0,-22
 10078b4:	bfe1                	j	100788c <__spl_start+0x639c>
 10078b6:	86a2                	mv	a3,s0
 10078b8:	00002617          	auipc	a2,0x2
 10078bc:	7c860613          	addi	a2,a2,1992 # 100a080 <__spl_start+0x8b90>
 10078c0:	00002597          	auipc	a1,0x2
 10078c4:	7d058593          	addi	a1,a1,2000 # 100a090 <__spl_start+0x8ba0>
 10078c8:	b7f9                	j	1007896 <__spl_start+0x63a6>
 10078ca:	0309b783          	ld	a5,48(s3)
 10078ce:	c385                	beqz	a5,10078ee <__spl_start+0x63fe>
 10078d0:	85ca                	mv	a1,s2
 10078d2:	8526                	mv	a0,s1
 10078d4:	9782                	jalr	a5
 10078d6:	842a                	mv	s0,a0
 10078d8:	d569                	beqz	a0,10078a2 <__spl_start+0x63b2>
 10078da:	cc81                	beqz	s1,10078f2 <__spl_start+0x6402>
 10078dc:	609c                	ld	a5,0(s1)
 10078de:	6490                	ld	a2,8(s1)
 10078e0:	86a2                	mv	a3,s0
 10078e2:	638c                	ld	a1,0(a5)
 10078e4:	00002517          	auipc	a0,0x2
 10078e8:	7f450513          	addi	a0,a0,2036 # 100a0d8 <__spl_start+0x8be8>
 10078ec:	bf4d                	j	100789e <__spl_start+0x63ae>
 10078ee:	5429                	li	s0,-22
 10078f0:	b7ed                	j	10078da <__spl_start+0x63ea>
 10078f2:	86a2                	mv	a3,s0
 10078f4:	00002617          	auipc	a2,0x2
 10078f8:	78c60613          	addi	a2,a2,1932 # 100a080 <__spl_start+0x8b90>
 10078fc:	00002597          	auipc	a1,0x2
 1007900:	79458593          	addi	a1,a1,1940 # 100a090 <__spl_start+0x8ba0>
 1007904:	b7c5                	j	10078e4 <__spl_start+0x63f4>
 1007906:	1101                	addi	sp,sp,-32
 1007908:	ec06                	sd	ra,24(sp)
 100790a:	e822                	sd	s0,16(sp)
 100790c:	e426                	sd	s1,8(sp)
 100790e:	84aa                	mv	s1,a0
 1007910:	e93fd0ef          	jal	ra,10057a2 <__spl_start+0x42b2>
 1007914:	842a                	mv	s0,a0
 1007916:	8526                	mv	a0,s1
 1007918:	ea3fd0ef          	jal	ra,10057ba <__spl_start+0x42ca>
 100791c:	e104                	sd	s1,0(a0)
 100791e:	405c                	lw	a5,4(s0)
 1007920:	c51c                	sw	a5,8(a0)
 1007922:	441c                	lw	a5,8(s0)
 1007924:	c55c                	sw	a5,12(a0)
 1007926:	47a1                	li	a5,8
 1007928:	c91c                	sw	a5,16(a0)
 100792a:	60e2                	ld	ra,24(sp)
 100792c:	6442                	ld	s0,16(sp)
 100792e:	64a2                	ld	s1,8(sp)
 1007930:	4501                	li	a0,0
 1007932:	6105                	addi	sp,sp,32
 1007934:	8082                	ret
 1007936:	1101                	addi	sp,sp,-32
 1007938:	ec06                	sd	ra,24(sp)
 100793a:	e822                	sd	s0,16(sp)
 100793c:	e426                	sd	s1,8(sp)
 100793e:	84aa                	mv	s1,a0
 1007940:	e75fd0ef          	jal	ra,10057b4 <__spl_start+0x42c4>
 1007944:	842a                	mv	s0,a0
 1007946:	68c8                	ld	a0,144(s1)
 1007948:	4601                	li	a2,0
 100794a:	00002597          	auipc	a1,0x2
 100794e:	74e58593          	addi	a1,a1,1870 # 100a098 <__spl_start+0x8ba8>
 1007952:	d0ffe0ef          	jal	ra,1006660 <__spl_start+0x5170>
 1007956:	c008                	sw	a0,0(s0)
 1007958:	60e2                	ld	ra,24(sp)
 100795a:	6442                	ld	s0,16(sp)
 100795c:	64a2                	ld	s1,8(sp)
 100795e:	4501                	li	a0,0
 1007960:	6105                	addi	sp,sp,32
 1007962:	8082                	ret
 1007964:	7139                	addi	sp,sp,-64
 1007966:	fc06                	sd	ra,56(sp)
 1007968:	f822                	sd	s0,48(sp)
 100796a:	f426                	sd	s1,40(sp)
 100796c:	f04a                	sd	s2,32(sp)
 100796e:	ec4e                	sd	s3,24(sp)
 1007970:	e852                	sd	s4,16(sp)
 1007972:	e456                	sd	s5,8(sp)
 1007974:	03053a83          	ld	s5,48(a0)
 1007978:	892a                	mv	s2,a0
 100797a:	000ab783          	ld	a5,0(s5)
 100797e:	8556                	mv	a0,s5
 1007980:	0687ba03          	ld	s4,104(a5)
 1007984:	e31fd0ef          	jal	ra,10057b4 <__spl_start+0x42c4>
 1007988:	84aa                	mv	s1,a0
 100798a:	854a                	mv	a0,s2
 100798c:	e2ffd0ef          	jal	ra,10057ba <__spl_start+0x42ca>
 1007990:	409c                	lw	a5,0(s1)
 1007992:	4500                	lw	s0,8(a0)
 1007994:	00c52983          	lw	s3,12(a0)
 1007998:	c7a1                	beqz	a5,10079e0 <__spl_start+0x64f0>
 100799a:	c821                	beqz	s0,10079ea <__spl_start+0x64fa>
 100799c:	873e                	mv	a4,a5
 100799e:	00f47363          	bgeu	s0,a5,10079a4 <__spl_start+0x64b4>
 10079a2:	8722                	mv	a4,s0
 10079a4:	0007041b          	sext.w	s0,a4
 10079a8:	40dc                	lw	a5,4(s1)
 10079aa:	00879563          	bne	a5,s0,10079b4 <__spl_start+0x64c4>
 10079ae:	449c                	lw	a5,8(s1)
 10079b0:	01378b63          	beq	a5,s3,10079c6 <__spl_start+0x64d6>
 10079b4:	864e                	mv	a2,s3
 10079b6:	85a2                	mv	a1,s0
 10079b8:	8556                	mv	a0,s5
 10079ba:	eb1ff0ef          	jal	ra,100786a <__spl_start+0x637a>
 10079be:	e90d                	bnez	a0,10079f0 <__spl_start+0x6500>
 10079c0:	c0c0                	sw	s0,4(s1)
 10079c2:	0134a423          	sw	s3,8(s1)
 10079c6:	000a3783          	ld	a5,0(s4)
 10079ca:	c395                	beqz	a5,10079ee <__spl_start+0x64fe>
 10079cc:	7442                	ld	s0,48(sp)
 10079ce:	70e2                	ld	ra,56(sp)
 10079d0:	74a2                	ld	s1,40(sp)
 10079d2:	69e2                	ld	s3,24(sp)
 10079d4:	6a42                	ld	s4,16(sp)
 10079d6:	6aa2                	ld	s5,8(sp)
 10079d8:	854a                	mv	a0,s2
 10079da:	7902                	ld	s2,32(sp)
 10079dc:	6121                	addi	sp,sp,64
 10079de:	8782                	jr	a5
 10079e0:	f461                	bnez	s0,10079a8 <__spl_start+0x64b8>
 10079e2:	6461                	lui	s0,0x18
 10079e4:	6a040413          	addi	s0,s0,1696 # 186a0 <_start-0xfe7960>
 10079e8:	b7c1                	j	10079a8 <__spl_start+0x64b8>
 10079ea:	843e                	mv	s0,a5
 10079ec:	bf75                	j	10079a8 <__spl_start+0x64b8>
 10079ee:	4501                	li	a0,0
 10079f0:	70e2                	ld	ra,56(sp)
 10079f2:	7442                	ld	s0,48(sp)
 10079f4:	74a2                	ld	s1,40(sp)
 10079f6:	7902                	ld	s2,32(sp)
 10079f8:	69e2                	ld	s3,24(sp)
 10079fa:	6a42                	ld	s4,16(sp)
 10079fc:	6aa2                	ld	s5,8(sp)
 10079fe:	6121                	addi	sp,sp,64
 1007a00:	8082                	ret
 1007a02:	791c                	ld	a5,48(a0)
 1007a04:	639c                	ld	a5,0(a5)
 1007a06:	77bc                	ld	a5,104(a5)
 1007a08:	679c                	ld	a5,8(a5)
 1007a0a:	c391                	beqz	a5,1007a0e <__spl_start+0x651e>
 1007a0c:	8782                	jr	a5
 1007a0e:	8082                	ret
 1007a10:	791c                	ld	a5,48(a0)
 1007a12:	0007b803          	ld	a6,0(a5)
 1007a16:	63bc                	ld	a5,64(a5)
 1007a18:	06883803          	ld	a6,104(a6)
 1007a1c:	679c                	ld	a5,8(a5)
 1007a1e:	0087a883          	lw	a7,8(a5)
 1007a22:	05a00793          	li	a5,90
 1007a26:	00f89663          	bne	a7,a5,1007a32 <__spl_start+0x6542>
 1007a2a:	01883783          	ld	a5,24(a6)
 1007a2e:	c789                	beqz	a5,1007a38 <__spl_start+0x6548>
 1007a30:	8782                	jr	a5
 1007a32:	fa100513          	li	a0,-95
 1007a36:	8082                	ret
 1007a38:	fda00513          	li	a0,-38
 1007a3c:	8082                	ret
 1007a3e:	6108                	ld	a0,0(a0)
 1007a40:	f25ff06f          	j	1007964 <__spl_start+0x6474>
 1007a44:	6108                	ld	a0,0(a0)
 1007a46:	fbdff06f          	j	1007a02 <__spl_start+0x6512>
 1007a4a:	6108                	ld	a0,0(a0)
 1007a4c:	fc5ff06f          	j	1007a10 <__spl_start+0x6520>
 1007a50:	715d                	addi	sp,sp,-80
 1007a52:	fc26                	sd	s1,56(sp)
 1007a54:	f84a                	sd	s2,48(sp)
 1007a56:	e486                	sd	ra,72(sp)
 1007a58:	e0a2                	sd	s0,64(sp)
 1007a5a:	f44e                	sd	s3,40(sp)
 1007a5c:	611c                	ld	a5,0(a0)
 1007a5e:	84aa                	mv	s1,a0
 1007a60:	86ae                	mv	a3,a1
 1007a62:	77bc                	ld	a5,104(a5)
 1007a64:	8932                	mv	s2,a2
 1007a66:	7f9c                	ld	a5,56(a5)
 1007a68:	c7a1                	beqz	a5,1007ab0 <__spl_start+0x65c0>
 1007a6a:	0810                	addi	a2,sp,16
 1007a6c:	e42e                	sd	a1,8(sp)
 1007a6e:	9782                	jalr	a5
 1007a70:	66a2                	ld	a3,8(sp)
 1007a72:	842a                	mv	s0,a0
 1007a74:	cd15                	beqz	a0,1007ab0 <__spl_start+0x65c0>
 1007a76:	c09d                	beqz	s1,1007a9c <__spl_start+0x65ac>
 1007a78:	609c                	ld	a5,0(s1)
 1007a7a:	6490                	ld	a2,8(s1)
 1007a7c:	872a                	mv	a4,a0
 1007a7e:	638c                	ld	a1,0(a5)
 1007a80:	00001517          	auipc	a0,0x1
 1007a84:	58050513          	addi	a0,a0,1408 # 1009000 <__spl_start+0x7b10>
 1007a88:	c0dfd0ef          	jal	ra,1005694 <__spl_start+0x41a4>
 1007a8c:	60a6                	ld	ra,72(sp)
 1007a8e:	8522                	mv	a0,s0
 1007a90:	6406                	ld	s0,64(sp)
 1007a92:	74e2                	ld	s1,56(sp)
 1007a94:	7942                	ld	s2,48(sp)
 1007a96:	79a2                	ld	s3,40(sp)
 1007a98:	6161                	addi	sp,sp,80
 1007a9a:	8082                	ret
 1007a9c:	872a                	mv	a4,a0
 1007a9e:	00002617          	auipc	a2,0x2
 1007aa2:	5e260613          	addi	a2,a2,1506 # 100a080 <__spl_start+0x8b90>
 1007aa6:	00002597          	auipc	a1,0x2
 1007aaa:	5ea58593          	addi	a1,a1,1514 # 100a090 <__spl_start+0x8ba0>
 1007aae:	bfc9                	j	1007a80 <__spl_start+0x6590>
 1007ab0:	01810993          	addi	s3,sp,24
 1007ab4:	85ce                	mv	a1,s3
 1007ab6:	8526                	mv	a0,s1
 1007ab8:	e436                	sd	a3,8(sp)
 1007aba:	d07fd0ef          	jal	ra,10057c0 <__spl_start+0x42d0>
 1007abe:	66a2                	ld	a3,8(sp)
 1007ac0:	0006841b          	sext.w	s0,a3
 1007ac4:	6562                	ld	a0,24(sp)
 1007ac6:	e119                	bnez	a0,1007acc <__spl_start+0x65dc>
 1007ac8:	5435                	li	s0,-19
 1007aca:	b7c9                	j	1007a8c <__spl_start+0x659c>
 1007acc:	cd7fd0ef          	jal	ra,10057a2 <__spl_start+0x42b2>
 1007ad0:	411c                	lw	a5,0(a0)
 1007ad2:	00879763          	bne	a5,s0,1007ae0 <__spl_start+0x65f0>
 1007ad6:	67e2                	ld	a5,24(sp)
 1007ad8:	4401                	li	s0,0
 1007ada:	00f93023          	sd	a5,0(s2)
 1007ade:	b77d                	j	1007a8c <__spl_start+0x659c>
 1007ae0:	854e                	mv	a0,s3
 1007ae2:	cf5fd0ef          	jal	ra,10057d6 <__spl_start+0x42e6>
 1007ae6:	bff9                	j	1007ac4 <__spl_start+0x65d4>
 1007ae8:	7119                	addi	sp,sp,-128
 1007aea:	f0ca                	sd	s2,96(sp)
 1007aec:	e0da                	sd	s6,64(sp)
 1007aee:	f466                	sd	s9,40(sp)
 1007af0:	8b2e                	mv	s6,a1
 1007af2:	8caa                	mv	s9,a0
 1007af4:	8932                	mv	s2,a2
 1007af6:	85aa                	mv	a1,a0
 1007af8:	0810                	addi	a2,sp,16
 1007afa:	05a00513          	li	a0,90
 1007afe:	ecce                	sd	s3,88(sp)
 1007b00:	e8d2                	sd	s4,80(sp)
 1007b02:	e4d6                	sd	s5,72(sp)
 1007b04:	fc5e                	sd	s7,56(sp)
 1007b06:	f862                	sd	s8,48(sp)
 1007b08:	fc86                	sd	ra,120(sp)
 1007b0a:	f8a2                	sd	s0,112(sp)
 1007b0c:	f4a6                	sd	s1,104(sp)
 1007b0e:	8ab6                	mv	s5,a3
 1007b10:	8bba                	mv	s7,a4
 1007b12:	8c3e                	mv	s8,a5
 1007b14:	8a42                	mv	s4,a6
 1007b16:	89c6                	mv	s3,a7
 1007b18:	8bdfe0ef          	jal	ra,10063d4 <__spl_start+0x4ee4>
 1007b1c:	c905                	beqz	a0,1007b4c <__spl_start+0x665c>
 1007b1e:	842a                	mv	s0,a0
 1007b20:	862a                	mv	a2,a0
 1007b22:	85e6                	mv	a1,s9
 1007b24:	00001517          	auipc	a0,0x1
 1007b28:	5a450513          	addi	a0,a0,1444 # 10090c8 <__spl_start+0x7bd8>
 1007b2c:	b69fd0ef          	jal	ra,1005694 <__spl_start+0x41a4>
 1007b30:	70e6                	ld	ra,120(sp)
 1007b32:	8522                	mv	a0,s0
 1007b34:	7446                	ld	s0,112(sp)
 1007b36:	74a6                	ld	s1,104(sp)
 1007b38:	7906                	ld	s2,96(sp)
 1007b3a:	69e6                	ld	s3,88(sp)
 1007b3c:	6a46                	ld	s4,80(sp)
 1007b3e:	6aa6                	ld	s5,72(sp)
 1007b40:	6b06                	ld	s6,64(sp)
 1007b42:	7be2                	ld	s7,56(sp)
 1007b44:	7c42                	ld	s8,48(sp)
 1007b46:	7ca2                	ld	s9,40(sp)
 1007b48:	6109                	addi	sp,sp,128
 1007b4a:	8082                	ret
 1007b4c:	6542                	ld	a0,16(sp)
 1007b4e:	0834                	addi	a3,sp,24
 1007b50:	8636                	mv	a2,a3
 1007b52:	85da                	mv	a1,s6
 1007b54:	e436                	sd	a3,8(sp)
 1007b56:	efbff0ef          	jal	ra,1007a50 <__spl_start+0x6560>
 1007b5a:	5735                	li	a4,-19
 1007b5c:	66a2                	ld	a3,8(sp)
 1007b5e:	87aa                	mv	a5,a0
 1007b60:	842a                	mv	s0,a0
 1007b62:	06e51f63          	bne	a0,a4,1007be0 <__spl_start+0x66f0>
 1007b66:	060b8e63          	beqz	s7,1007be2 <__spl_start+0x66f2>
 1007b6a:	6542                	ld	a0,16(sp)
 1007b6c:	8662                	mv	a2,s8
 1007b6e:	85de                	mv	a1,s7
 1007b70:	a44fe0ef          	jal	ra,1005db4 <__spl_start+0x48c4>
 1007b74:	842a                	mv	s0,a0
 1007b76:	fd4d                	bnez	a0,1007b30 <__spl_start+0x6640>
 1007b78:	6562                	ld	a0,24(sp)
 1007b7a:	c29fd0ef          	jal	ra,10057a2 <__spl_start+0x42b2>
 1007b7e:	01652023          	sw	s6,0(a0)
 1007b82:	84aa                	mv	s1,a0
 1007b84:	87ca                	mv	a5,s2
 1007b86:	00091563          	bnez	s2,1007b90 <__spl_start+0x66a0>
 1007b8a:	67e1                	lui	a5,0x18
 1007b8c:	6a078793          	addi	a5,a5,1696 # 186a0 <_start-0xfe7960>
 1007b90:	c0dc                	sw	a5,4(s1)
 1007b92:	0154a423          	sw	s5,8(s1)
 1007b96:	6562                	ld	a0,24(sp)
 1007b98:	08852783          	lw	a5,136(a0)
 1007b9c:	8b85                	andi	a5,a5,1
 1007b9e:	eb91                	bnez	a5,1007bb2 <__spl_start+0x66c2>
 1007ba0:	d55fd0ef          	jal	ra,10058f4 <__spl_start+0x4404>
 1007ba4:	842a                	mv	s0,a0
 1007ba6:	f549                	bnez	a0,1007b30 <__spl_start+0x6640>
 1007ba8:	6562                	ld	a0,24(sp)
 1007baa:	c11fd0ef          	jal	ra,10057ba <__spl_start+0x42ca>
 1007bae:	67e2                	ld	a5,24(sp)
 1007bb0:	e11c                	sd	a5,0(a0)
 1007bb2:	6562                	ld	a0,24(sp)
 1007bb4:	c07fd0ef          	jal	ra,10057ba <__spl_start+0x42ca>
 1007bb8:	8b2a                	mv	s6,a0
 1007bba:	6542                	ld	a0,16(sp)
 1007bbc:	bf9fd0ef          	jal	ra,10057b4 <__spl_start+0x42c4>
 1007bc0:	415c                	lw	a5,4(a0)
 1007bc2:	8baa                	mv	s7,a0
 1007bc4:	cfb1                	beqz	a5,1007c20 <__spl_start+0x6730>
 1007bc6:	06091363          	bnez	s2,1007c2c <__spl_start+0x673c>
 1007bca:	c481                	beqz	s1,1007bd2 <__spl_start+0x66e2>
 1007bcc:	449c                	lw	a5,8(s1)
 1007bce:	07579463          	bne	a5,s5,1007c36 <__spl_start+0x6746>
 1007bd2:	67c2                	ld	a5,16(sp)
 1007bd4:	4401                	li	s0,0
 1007bd6:	00fa3023          	sd	a5,0(s4)
 1007bda:	0169b023          	sd	s6,0(s3)
 1007bde:	bf89                	j	1007b30 <__spl_start+0x6640>
 1007be0:	c915                	beqz	a0,1007c14 <__spl_start+0x6724>
 1007be2:	6642                	ld	a2,16(sp)
 1007be4:	ce09                	beqz	a2,1007bfe <__spl_start+0x670e>
 1007be6:	620c                	ld	a1,0(a2)
 1007be8:	6610                	ld	a2,8(a2)
 1007bea:	875a                	mv	a4,s6
 1007bec:	618c                	ld	a1,0(a1)
 1007bee:	86e6                	mv	a3,s9
 1007bf0:	00001517          	auipc	a0,0x1
 1007bf4:	4f850513          	addi	a0,a0,1272 # 10090e8 <__spl_start+0x7bf8>
 1007bf8:	a9dfd0ef          	jal	ra,1005694 <__spl_start+0x41a4>
 1007bfc:	bf15                	j	1007b30 <__spl_start+0x6640>
 1007bfe:	875a                	mv	a4,s6
 1007c00:	86e6                	mv	a3,s9
 1007c02:	00002617          	auipc	a2,0x2
 1007c06:	47e60613          	addi	a2,a2,1150 # 100a080 <__spl_start+0x8b90>
 1007c0a:	00002597          	auipc	a1,0x2
 1007c0e:	48658593          	addi	a1,a1,1158 # 100a090 <__spl_start+0x8ba0>
 1007c12:	bff9                	j	1007bf0 <__spl_start+0x6700>
 1007c14:	6562                	ld	a0,24(sp)
 1007c16:	d141                	beqz	a0,1007b96 <__spl_start+0x66a6>
 1007c18:	b8bfd0ef          	jal	ra,10057a2 <__spl_start+0x42b2>
 1007c1c:	84aa                	mv	s1,a0
 1007c1e:	bfa5                	j	1007b96 <__spl_start+0x66a6>
 1007c20:	855a                	mv	a0,s6
 1007c22:	e1dff0ef          	jal	ra,1007a3e <__spl_start+0x654e>
 1007c26:	842a                	mv	s0,a0
 1007c28:	dd59                	beqz	a0,1007bc6 <__spl_start+0x66d6>
 1007c2a:	b719                	j	1007b30 <__spl_start+0x6640>
 1007c2c:	004ba783          	lw	a5,4(s7)
 1007c30:	dfc9                	beqz	a5,1007bca <__spl_start+0x66da>
 1007c32:	f9278ce3          	beq	a5,s2,1007bca <__spl_start+0x66da>
 1007c36:	6542                	ld	a0,16(sp)
 1007c38:	8656                	mv	a2,s5
 1007c3a:	85ca                	mv	a1,s2
 1007c3c:	c2fff0ef          	jal	ra,100786a <__spl_start+0x637a>
 1007c40:	842a                	mv	s0,a0
 1007c42:	d941                	beqz	a0,1007bd2 <__spl_start+0x66e2>
 1007c44:	855a                	mv	a0,s6
 1007c46:	dffff0ef          	jal	ra,1007a44 <__spl_start+0x6554>
 1007c4a:	b5dd                	j	1007b30 <__spl_start+0x6640>
 1007c4c:	1101                	addi	sp,sp,-32
 1007c4e:	ec06                	sd	ra,24(sp)
 1007c50:	e822                	sd	s0,16(sp)
 1007c52:	e426                	sd	s1,8(sp)
 1007c54:	e04a                	sd	s2,0(sp)
 1007c56:	84aa                	mv	s1,a0
 1007c58:	6948                	ld	a0,144(a0)
 1007c5a:	892e                	mv	s2,a1
 1007c5c:	567d                	li	a2,-1
 1007c5e:	00001597          	auipc	a1,0x1
 1007c62:	34258593          	addi	a1,a1,834 # 1008fa0 <__spl_start+0x7ab0>
 1007c66:	9fbfe0ef          	jal	ra,1006660 <__spl_start+0x5170>
 1007c6a:	00a92023          	sw	a0,0(s2)
 1007c6e:	68c8                	ld	a0,144(s1)
 1007c70:	6661                	lui	a2,0x18
 1007c72:	6a060613          	addi	a2,a2,1696 # 186a0 <_start-0xfe7960>
 1007c76:	00002597          	auipc	a1,0x2
 1007c7a:	42258593          	addi	a1,a1,1058 # 100a098 <__spl_start+0x8ba8>
 1007c7e:	9e3fe0ef          	jal	ra,1006660 <__spl_start+0x5170>
 1007c82:	00a92223          	sw	a0,4(s2)
 1007c86:	68c8                	ld	a0,144(s1)
 1007c88:	00002597          	auipc	a1,0x2
 1007c8c:	47858593          	addi	a1,a1,1144 # 100a100 <__spl_start+0x8c10>
 1007c90:	ad3fe0ef          	jal	ra,1006762 <__spl_start+0x5272>
 1007c94:	0015141b          	slliw	s0,a0,0x1
 1007c98:	68c8                	ld	a0,144(s1)
 1007c9a:	00002597          	auipc	a1,0x2
 1007c9e:	47658593          	addi	a1,a1,1142 # 100a110 <__spl_start+0x8c20>
 1007ca2:	ac1fe0ef          	jal	ra,1006762 <__spl_start+0x5272>
 1007ca6:	c119                	beqz	a0,1007cac <__spl_start+0x67bc>
 1007ca8:	00146413          	ori	s0,s0,1
 1007cac:	68c8                	ld	a0,144(s1)
 1007cae:	00002597          	auipc	a1,0x2
 1007cb2:	47258593          	addi	a1,a1,1138 # 100a120 <__spl_start+0x8c30>
 1007cb6:	aadfe0ef          	jal	ra,1006762 <__spl_start+0x5272>
 1007cba:	c119                	beqz	a0,1007cc0 <__spl_start+0x67d0>
 1007cbc:	00446413          	ori	s0,s0,4
 1007cc0:	68c8                	ld	a0,144(s1)
 1007cc2:	00002597          	auipc	a1,0x2
 1007cc6:	46e58593          	addi	a1,a1,1134 # 100a130 <__spl_start+0x8c40>
 1007cca:	a99fe0ef          	jal	ra,1006762 <__spl_start+0x5272>
 1007cce:	c119                	beqz	a0,1007cd4 <__spl_start+0x67e4>
 1007cd0:	01046413          	ori	s0,s0,16
 1007cd4:	68c8                	ld	a0,144(s1)
 1007cd6:	00002597          	auipc	a1,0x2
 1007cda:	46a58593          	addi	a1,a1,1130 # 100a140 <__spl_start+0x8c50>
 1007cde:	a85fe0ef          	jal	ra,1006762 <__spl_start+0x5272>
 1007ce2:	c119                	beqz	a0,1007ce8 <__spl_start+0x67f8>
 1007ce4:	08046413          	ori	s0,s0,128
 1007ce8:	68c8                	ld	a0,144(s1)
 1007cea:	4605                	li	a2,1
 1007cec:	00002597          	auipc	a1,0x2
 1007cf0:	46458593          	addi	a1,a1,1124 # 100a150 <__spl_start+0x8c60>
 1007cf4:	96dfe0ef          	jal	ra,1006660 <__spl_start+0x5170>
 1007cf8:	2501                	sext.w	a0,a0
 1007cfa:	4791                	li	a5,4
 1007cfc:	04f50763          	beq	a0,a5,1007d4a <__spl_start+0x685a>
 1007d00:	47a1                	li	a5,8
 1007d02:	04f50763          	beq	a0,a5,1007d50 <__spl_start+0x6860>
 1007d06:	4789                	li	a5,2
 1007d08:	00f51463          	bne	a0,a5,1007d10 <__spl_start+0x6820>
 1007d0c:	20046413          	ori	s0,s0,512
 1007d10:	68c8                	ld	a0,144(s1)
 1007d12:	4605                	li	a2,1
 1007d14:	00002597          	auipc	a1,0x2
 1007d18:	45458593          	addi	a1,a1,1108 # 100a168 <__spl_start+0x8c78>
 1007d1c:	945fe0ef          	jal	ra,1006660 <__spl_start+0x5170>
 1007d20:	2501                	sext.w	a0,a0
 1007d22:	4791                	li	a5,4
 1007d24:	02f50963          	beq	a0,a5,1007d56 <__spl_start+0x6866>
 1007d28:	47a1                	li	a5,8
 1007d2a:	02f50863          	beq	a0,a5,1007d5a <__spl_start+0x686a>
 1007d2e:	4789                	li	a5,2
 1007d30:	00f51463          	bne	a0,a5,1007d38 <__spl_start+0x6848>
 1007d34:	6785                	lui	a5,0x1
 1007d36:	8c5d                	or	s0,s0,a5
 1007d38:	00892423          	sw	s0,8(s2)
 1007d3c:	60e2                	ld	ra,24(sp)
 1007d3e:	6442                	ld	s0,16(sp)
 1007d40:	64a2                	ld	s1,8(sp)
 1007d42:	6902                	ld	s2,0(sp)
 1007d44:	4501                	li	a0,0
 1007d46:	6105                	addi	sp,sp,32
 1007d48:	8082                	ret
 1007d4a:	40046413          	ori	s0,s0,1024
 1007d4e:	b7c9                	j	1007d10 <__spl_start+0x6820>
 1007d50:	6791                	lui	a5,0x4
 1007d52:	8c5d                	or	s0,s0,a5
 1007d54:	bf75                	j	1007d10 <__spl_start+0x6820>
 1007d56:	6789                	lui	a5,0x2
 1007d58:	bff9                	j	1007d36 <__spl_start+0x6846>
 1007d5a:	67a1                	lui	a5,0x8
 1007d5c:	bfe9                	j	1007d36 <__spl_start+0x6846>
 1007d5e:	1141                	addi	sp,sp,-16
 1007d60:	e022                	sd	s0,0(sp)
 1007d62:	e406                	sd	ra,8(sp)
 1007d64:	842a                	mv	s0,a0
 1007d66:	a3dfd0ef          	jal	ra,10057a2 <__spl_start+0x42b2>
 1007d6a:	685c                	ld	a5,144(s0)
 1007d6c:	0007c963          	bltz	a5,1007d7e <__spl_start+0x688e>
 1007d70:	85aa                	mv	a1,a0
 1007d72:	8522                	mv	a0,s0
 1007d74:	6402                	ld	s0,0(sp)
 1007d76:	60a2                	ld	ra,8(sp)
 1007d78:	0141                	addi	sp,sp,16
 1007d7a:	ed3ff06f          	j	1007c4c <__spl_start+0x675c>
 1007d7e:	60a2                	ld	ra,8(sp)
 1007d80:	6402                	ld	s0,0(sp)
 1007d82:	4501                	li	a0,0
 1007d84:	0141                	addi	sp,sp,16
 1007d86:	8082                	ret
 1007d88:	4711                	li	a4,4
 1007d8a:	87aa                	mv	a5,a0
 1007d8c:	04e58163          	beq	a1,a4,1007dce <__spl_start+0x68de>
 1007d90:	00b76c63          	bltu	a4,a1,1007da8 <__spl_start+0x68b8>
 1007d94:	4705                	li	a4,1
 1007d96:	4501                	li	a0,0
 1007d98:	02e58a63          	beq	a1,a4,1007dcc <__spl_start+0x68dc>
 1007d9c:	4709                	li	a4,2
 1007d9e:	00e58c63          	beq	a1,a4,1007db6 <__spl_start+0x68c6>
 1007da2:	df400513          	li	a0,-524
 1007da6:	a01d                	j	1007dcc <__spl_start+0x68dc>
 1007da8:	4721                	li	a4,8
 1007daa:	fee59ce3          	bne	a1,a4,1007da2 <__spl_start+0x68b2>
 1007dae:	ca05                	beqz	a2,1007dde <__spl_start+0x68ee>
 1007db0:	00e55793          	srli	a5,a0,0xe
 1007db4:	a01d                	j	1007dda <__spl_start+0x68ea>
 1007db6:	ca01                	beqz	a2,1007dc6 <__spl_start+0x68d6>
 1007db8:	6007f793          	andi	a5,a5,1536
 1007dbc:	df400513          	li	a0,-524
 1007dc0:	c791                	beqz	a5,1007dcc <__spl_start+0x68dc>
 1007dc2:	4501                	li	a0,0
 1007dc4:	8082                	ret
 1007dc6:	670d                	lui	a4,0x3
 1007dc8:	8ff9                	and	a5,a5,a4
 1007dca:	dfe1                	beqz	a5,1007da2 <__spl_start+0x68b2>
 1007dcc:	8082                	ret
 1007dce:	c601                	beqz	a2,1007dd6 <__spl_start+0x68e6>
 1007dd0:	40057793          	andi	a5,a0,1024
 1007dd4:	b7e5                	j	1007dbc <__spl_start+0x68cc>
 1007dd6:	00d55793          	srli	a5,a0,0xd
 1007dda:	8b85                	andi	a5,a5,1
 1007ddc:	b7c5                	j	1007dbc <__spl_start+0x68cc>
 1007dde:	00f55793          	srli	a5,a0,0xf
 1007de2:	bfe5                	j	1007dda <__spl_start+0x68ea>
 1007de4:	1101                	addi	sp,sp,-32
 1007de6:	e822                	sd	s0,16(sp)
 1007de8:	ec06                	sd	ra,24(sp)
 1007dea:	e426                	sd	s1,8(sp)
 1007dec:	4544                	lw	s1,12(a0)
 1007dee:	842e                	mv	s0,a1
 1007df0:	0005c583          	lbu	a1,0(a1)
 1007df4:	4605                	li	a2,1
 1007df6:	8526                	mv	a0,s1
 1007df8:	f91ff0ef          	jal	ra,1007d88 <__spl_start+0x6898>
 1007dfc:	4781                	li	a5,0
 1007dfe:	e521                	bnez	a0,1007e46 <__spl_start+0x6956>
 1007e00:	00844783          	lbu	a5,8(s0)
 1007e04:	cb89                	beqz	a5,1007e16 <__spl_start+0x6926>
 1007e06:	00944583          	lbu	a1,9(s0)
 1007e0a:	4605                	li	a2,1
 1007e0c:	8526                	mv	a0,s1
 1007e0e:	f7bff0ef          	jal	ra,1007d88 <__spl_start+0x6898>
 1007e12:	4781                	li	a5,0
 1007e14:	e90d                	bnez	a0,1007e46 <__spl_start+0x6956>
 1007e16:	01844783          	lbu	a5,24(s0)
 1007e1a:	cb89                	beqz	a5,1007e2c <__spl_start+0x693c>
 1007e1c:	01944583          	lbu	a1,25(s0)
 1007e20:	4605                	li	a2,1
 1007e22:	8526                	mv	a0,s1
 1007e24:	f65ff0ef          	jal	ra,1007d88 <__spl_start+0x6898>
 1007e28:	4781                	li	a5,0
 1007e2a:	ed11                	bnez	a0,1007e46 <__spl_start+0x6956>
 1007e2c:	5050                	lw	a2,36(s0)
 1007e2e:	4785                	li	a5,1
 1007e30:	ca19                	beqz	a2,1007e46 <__spl_start+0x6956>
 1007e32:	02044583          	lbu	a1,32(s0)
 1007e36:	1679                	addi	a2,a2,-2
 1007e38:	00163613          	seqz	a2,a2
 1007e3c:	8526                	mv	a0,s1
 1007e3e:	f4bff0ef          	jal	ra,1007d88 <__spl_start+0x6898>
 1007e42:	00153793          	seqz	a5,a0
 1007e46:	60e2                	ld	ra,24(sp)
 1007e48:	6442                	ld	s0,16(sp)
 1007e4a:	64a2                	ld	s1,8(sp)
 1007e4c:	853e                	mv	a0,a5
 1007e4e:	6105                	addi	sp,sp,32
 1007e50:	8082                	ret
 1007e52:	6114                	ld	a3,0(a0)
 1007e54:	87aa                	mv	a5,a0
 1007e56:	872e                	mv	a4,a1
 1007e58:	7a94                	ld	a3,48(a3)
 1007e5a:	6294                	ld	a3,0(a3)
 1007e5c:	76b4                	ld	a3,104(a3)
 1007e5e:	7294                	ld	a3,32(a3)
 1007e60:	c681                	beqz	a3,1007e68 <__spl_start+0x6978>
 1007e62:	6694                	ld	a3,8(a3)
 1007e64:	c291                	beqz	a3,1007e68 <__spl_start+0x6978>
 1007e66:	8682                	jr	a3
 1007e68:	85ba                	mv	a1,a4
 1007e6a:	853e                	mv	a0,a5
 1007e6c:	f79ff06f          	j	1007de4 <__spl_start+0x68f4>
 1007e70:	7139                	addi	sp,sp,-64
 1007e72:	f822                	sd	s0,48(sp)
 1007e74:	f426                	sd	s1,40(sp)
 1007e76:	f04a                	sd	s2,32(sp)
 1007e78:	ec4e                	sd	s3,24(sp)
 1007e7a:	fc06                	sd	ra,56(sp)
 1007e7c:	e852                	sd	s4,16(sp)
 1007e7e:	e456                	sd	s5,8(sp)
 1007e80:	e05a                	sd	s6,0(sp)
 1007e82:	0080                	addi	s0,sp,64
 1007e84:	611c                	ld	a5,0(a0)
 1007e86:	89aa                	mv	s3,a0
 1007e88:	892e                	mv	s2,a1
 1007e8a:	7b9c                	ld	a5,48(a5)
 1007e8c:	df400493          	li	s1,-524
 1007e90:	639c                	ld	a5,0(a5)
 1007e92:	0687ba03          	ld	s4,104(a5) # 8068 <_start-0xff7f98>
 1007e96:	fbdff0ef          	jal	ra,1007e52 <__spl_start+0x6962>
 1007e9a:	c51d                	beqz	a0,1007ec8 <__spl_start+0x69d8>
 1007e9c:	854e                	mv	a0,s3
 1007e9e:	ba1ff0ef          	jal	ra,1007a3e <__spl_start+0x654e>
 1007ea2:	84aa                	mv	s1,a0
 1007ea4:	02054263          	bltz	a0,1007ec8 <__spl_start+0x69d8>
 1007ea8:	020a3783          	ld	a5,32(s4)
 1007eac:	cb9d                	beqz	a5,1007ee2 <__spl_start+0x69f2>
 1007eae:	6b9c                	ld	a5,16(a5)
 1007eb0:	cb8d                	beqz	a5,1007ee2 <__spl_start+0x69f2>
 1007eb2:	85ca                	mv	a1,s2
 1007eb4:	854e                	mv	a0,s3
 1007eb6:	9782                	jalr	a5
 1007eb8:	df400793          	li	a5,-524
 1007ebc:	84aa                	mv	s1,a0
 1007ebe:	02f50263          	beq	a0,a5,1007ee2 <__spl_start+0x69f2>
 1007ec2:	854e                	mv	a0,s3
 1007ec4:	b81ff0ef          	jal	ra,1007a44 <__spl_start+0x6554>
 1007ec8:	fc040113          	addi	sp,s0,-64
 1007ecc:	70e2                	ld	ra,56(sp)
 1007ece:	8526                	mv	a0,s1
 1007ed0:	7442                	ld	s0,48(sp)
 1007ed2:	74a2                	ld	s1,40(sp)
 1007ed4:	7902                	ld	s2,32(sp)
 1007ed6:	69e2                	ld	s3,24(sp)
 1007ed8:	6a42                	ld	s4,16(sp)
 1007eda:	6aa2                	ld	s5,8(sp)
 1007edc:	6b02                	ld	s6,0(sp)
 1007ede:	6121                	addi	sp,sp,64
 1007ee0:	8082                	ret
 1007ee2:	02892783          	lw	a5,40(s2)
 1007ee6:	c3c5                	beqz	a5,1007f86 <__spl_start+0x6a96>
 1007ee8:	02492703          	lw	a4,36(s2)
 1007eec:	4785                	li	a5,1
 1007eee:	03093a03          	ld	s4,48(s2)
 1007ef2:	4a81                	li	s5,0
 1007ef4:	00f71463          	bne	a4,a5,1007efc <__spl_start+0x6a0c>
 1007ef8:	8ad2                	mv	s5,s4
 1007efa:	4a01                	li	s4,0
 1007efc:	00894783          	lbu	a5,8(s2)
 1007f00:	01894603          	lbu	a2,24(s2)
 1007f04:	4505                	li	a0,1
 1007f06:	0007859b          	sext.w	a1,a5
 1007f0a:	00f604bb          	addw	s1,a2,a5
 1007f0e:	2485                	addiw	s1,s1,1
 1007f10:	00f48713          	addi	a4,s1,15
 1007f14:	7f077713          	andi	a4,a4,2032
 1007f18:	40e10133          	sub	sp,sp,a4
 1007f1c:	00194703          	lbu	a4,1(s2)
 1007f20:	8b0a                	mv	s6,sp
 1007f22:	00e10023          	sb	a4,0(sp)
 1007f26:	cb91                	beqz	a5,1007f3a <__spl_start+0x6a4a>
 1007f28:	078e                	slli	a5,a5,0x3
 1007f2a:	00110713          	addi	a4,sp,1
 1007f2e:	5561                	li	a0,-8
 1007f30:	37e1                	addiw	a5,a5,-8
 1007f32:	04a79c63          	bne	a5,a0,1007f8a <__spl_start+0x6a9a>
 1007f36:	00158513          	addi	a0,a1,1
 1007f3a:	c611                	beqz	a2,1007f46 <__spl_start+0x6a56>
 1007f3c:	0ff00593          	li	a1,255
 1007f40:	955a                	add	a0,a0,s6
 1007f42:	d6ff90ef          	jal	ra,1001cb0 <__spl_start+0x7c0>
 1007f46:	4705                	li	a4,1
 1007f48:	000a1563          	bnez	s4,1007f52 <__spl_start+0x6a62>
 1007f4c:	000a9363          	bnez	s5,1007f52 <__spl_start+0x6a62>
 1007f50:	470d                	li	a4,3
 1007f52:	0034959b          	slliw	a1,s1,0x3
 1007f56:	4681                	li	a3,0
 1007f58:	865a                	mv	a2,s6
 1007f5a:	854e                	mv	a0,s3
 1007f5c:	aefff0ef          	jal	ra,1007a4a <__spl_start+0x655a>
 1007f60:	84aa                	mv	s1,a0
 1007f62:	f13d                	bnez	a0,1007ec8 <__spl_start+0x69d8>
 1007f64:	000a1463          	bnez	s4,1007f6c <__spl_start+0x6a7c>
 1007f68:	f40a8de3          	beqz	s5,1007ec2 <__spl_start+0x69d2>
 1007f6c:	02892583          	lw	a1,40(s2)
 1007f70:	4709                	li	a4,2
 1007f72:	86d6                	mv	a3,s5
 1007f74:	0035959b          	slliw	a1,a1,0x3
 1007f78:	8652                	mv	a2,s4
 1007f7a:	854e                	mv	a0,s3
 1007f7c:	acfff0ef          	jal	ra,1007a4a <__spl_start+0x655a>
 1007f80:	d129                	beqz	a0,1007ec2 <__spl_start+0x69d2>
 1007f82:	84aa                	mv	s1,a0
 1007f84:	b791                	j	1007ec8 <__spl_start+0x69d8>
 1007f86:	4a81                	li	s5,0
 1007f88:	bf8d                	j	1007efa <__spl_start+0x6a0a>
 1007f8a:	01093683          	ld	a3,16(s2)
 1007f8e:	0705                	addi	a4,a4,1
 1007f90:	00f6d6b3          	srl	a3,a3,a5
 1007f94:	fed70fa3          	sb	a3,-1(a4) # 2fff <_start-0xffd001>
 1007f98:	bf61                	j	1007f30 <__spl_start+0x6a40>
 1007f9a:	6118                	ld	a4,0(a0)
 1007f9c:	862a                	mv	a2,a0
 1007f9e:	87ae                	mv	a5,a1
 1007fa0:	7b18                	ld	a4,48(a4)
 1007fa2:	6318                	ld	a4,0(a4)
 1007fa4:	7738                	ld	a4,104(a4)
 1007fa6:	7318                	ld	a4,32(a4)
 1007fa8:	c711                	beqz	a4,1007fb4 <__spl_start+0x6ac4>
 1007faa:	6314                	ld	a3,0(a4)
 1007fac:	c291                	beqz	a3,1007fb0 <__spl_start+0x6ac0>
 1007fae:	8682                	jr	a3
 1007fb0:	6b18                	ld	a4,16(a4)
 1007fb2:	ef15                	bnez	a4,1007fee <__spl_start+0x6afe>
 1007fb4:	0187c703          	lbu	a4,24(a5)
 1007fb8:	0087c683          	lbu	a3,8(a5)
 1007fbc:	9eb9                	addw	a3,a3,a4
 1007fbe:	4e18                	lw	a4,24(a2)
 1007fc0:	0016859b          	addiw	a1,a3,1
 1007fc4:	86ae                	mv	a3,a1
 1007fc6:	c709                	beqz	a4,1007fd0 <__spl_start+0x6ae0>
 1007fc8:	00b77463          	bgeu	a4,a1,1007fd0 <__spl_start+0x6ae0>
 1007fcc:	5529                	li	a0,-22
 1007fce:	8082                	ret
 1007fd0:	0247a803          	lw	a6,36(a5)
 1007fd4:	4505                	li	a0,1
 1007fd6:	578c                	lw	a1,40(a5)
 1007fd8:	00a81d63          	bne	a6,a0,1007ff2 <__spl_start+0x6b02>
 1007fdc:	4a58                	lw	a4,20(a2)
 1007fde:	c711                	beqz	a4,1007fea <__spl_start+0x6afa>
 1007fe0:	86ba                	mv	a3,a4
 1007fe2:	00e5f363          	bgeu	a1,a4,1007fe8 <__spl_start+0x6af8>
 1007fe6:	86ae                	mv	a3,a1
 1007fe8:	d794                	sw	a3,40(a5)
 1007fea:	579c                	lw	a5,40(a5)
 1007fec:	d3e5                	beqz	a5,1007fcc <__spl_start+0x6adc>
 1007fee:	4501                	li	a0,0
 1007ff0:	8082                	ret
 1007ff2:	df65                	beqz	a4,1007fea <__spl_start+0x6afa>
 1007ff4:	40d706bb          	subw	a3,a4,a3
 1007ff8:	8736                	mv	a4,a3
 1007ffa:	00d5f363          	bgeu	a1,a3,1008000 <__spl_start+0x6b10>
 1007ffe:	872e                	mv	a4,a1
 1008000:	d798                	sw	a4,40(a5)
 1008002:	b7e5                	j	1007fea <__spl_start+0x6afa>
 1008004:	1141                	addi	sp,sp,-16
 1008006:	e022                	sd	s0,0(sp)
 1008008:	e406                	sd	ra,8(sp)
 100800a:	842e                	mv	s0,a1
 100800c:	fa2fd0ef          	jal	ra,10057ae <__spl_start+0x42be>
 1008010:	6118                	ld	a4,0(a0)
 1008012:	533c                	lw	a5,96(a4)
 1008014:	0aa0000f          	fence	ir,ir
 1008018:	00847693          	andi	a3,s0,8
 100801c:	c299                	beqz	a3,1008022 <__spl_start+0x6b32>
 100801e:	2007e793          	ori	a5,a5,512
 1008022:	00147693          	andi	a3,s0,1
 1008026:	c299                	beqz	a3,100802c <__spl_start+0x6b3c>
 1008028:	0107e793          	ori	a5,a5,16
 100802c:	00247693          	andi	a3,s0,2
 1008030:	c299                	beqz	a3,1008036 <__spl_start+0x6b46>
 1008032:	0087e793          	ori	a5,a5,8
 1008036:	02047693          	andi	a3,s0,32
 100803a:	c299                	beqz	a3,1008040 <__spl_start+0x6b50>
 100803c:	0017e793          	ori	a5,a5,1
 1008040:	0550000f          	fence	ow,ow
 1008044:	d33c                	sw	a5,96(a4)
 1008046:	c540                	sw	s0,12(a0)
 1008048:	60a2                	ld	ra,8(sp)
 100804a:	6402                	ld	s0,0(sp)
 100804c:	4501                	li	a0,0
 100804e:	0141                	addi	sp,sp,16
 1008050:	8082                	ret
 1008052:	1141                	addi	sp,sp,-16
 1008054:	e022                	sd	s0,0(sp)
 1008056:	e406                	sd	ra,8(sp)
 1008058:	842e                	mv	s0,a1
 100805a:	f54fd0ef          	jal	ra,10057ae <__spl_start+0x42be>
 100805e:	c500                	sw	s0,8(a0)
 1008060:	60a2                	ld	ra,8(sp)
 1008062:	6402                	ld	s0,0(sp)
 1008064:	4501                	li	a0,0
 1008066:	0141                	addi	sp,sp,16
 1008068:	8082                	ret
 100806a:	1101                	addi	sp,sp,-32
 100806c:	e822                	sd	s0,16(sp)
 100806e:	e426                	sd	s1,8(sp)
 1008070:	ec06                	sd	ra,24(sp)
 1008072:	842e                	mv	s0,a1
 1008074:	84b2                	mv	s1,a2
 1008076:	f38fd0ef          	jal	ra,10057ae <__spl_start+0x42be>
 100807a:	6114                	ld	a3,0(a0)
 100807c:	87aa                	mv	a5,a0
 100807e:	4501                	li	a0,0
 1008080:	00950a63          	beq	a0,s1,1008094 <__spl_start+0x6ba4>
 1008084:	52f8                	lw	a4,100(a3)
 1008086:	0aa0000f          	fence	ir,ir
 100808a:	8b21                	andi	a4,a4,8
 100808c:	e701                	bnez	a4,1008094 <__spl_start+0x6ba4>
 100808e:	4b98                	lw	a4,16(a5)
 1008090:	00e56763          	bltu	a0,a4,100809e <__spl_start+0x6bae>
 1008094:	60e2                	ld	ra,24(sp)
 1008096:	6442                	ld	s0,16(sp)
 1008098:	64a2                	ld	s1,8(sp)
 100809a:	6105                	addi	sp,sp,32
 100809c:	8082                	ret
 100809e:	0ff00713          	li	a4,255
 10080a2:	c401                	beqz	s0,10080aa <__spl_start+0x6bba>
 10080a4:	00044703          	lbu	a4,0(s0)
 10080a8:	0405                	addi	s0,s0,1
 10080aa:	0550000f          	fence	ow,ow
 10080ae:	d6b8                	sw	a4,104(a3)
 10080b0:	2505                	addiw	a0,a0,1
 10080b2:	b7f9                	j	1008080 <__spl_start+0x6b90>
 10080b4:	1101                	addi	sp,sp,-32
 10080b6:	e822                	sd	s0,16(sp)
 10080b8:	e426                	sd	s1,8(sp)
 10080ba:	ec06                	sd	ra,24(sp)
 10080bc:	842e                	mv	s0,a1
 10080be:	84b2                	mv	s1,a2
 10080c0:	eeefd0ef          	jal	ra,10057ae <__spl_start+0x42be>
 10080c4:	6118                	ld	a4,0(a0)
 10080c6:	4501                	li	a0,0
 10080c8:	00950763          	beq	a0,s1,10080d6 <__spl_start+0x6be6>
 10080cc:	537c                	lw	a5,100(a4)
 10080ce:	0aa0000f          	fence	ir,ir
 10080d2:	8b85                	andi	a5,a5,1
 10080d4:	c791                	beqz	a5,10080e0 <__spl_start+0x6bf0>
 10080d6:	60e2                	ld	ra,24(sp)
 10080d8:	6442                	ld	s0,16(sp)
 10080da:	64a2                	ld	s1,8(sp)
 10080dc:	6105                	addi	sp,sp,32
 10080de:	8082                	ret
 10080e0:	577c                	lw	a5,108(a4)
 10080e2:	0aa0000f          	fence	ir,ir
 10080e6:	c401                	beqz	s0,10080ee <__spl_start+0x6bfe>
 10080e8:	00f40023          	sb	a5,0(s0)
 10080ec:	0405                	addi	s0,s0,1
 10080ee:	2505                	addiw	a0,a0,1
 10080f0:	bfe1                	j	10080c8 <__spl_start+0x6bd8>
 10080f2:	1141                	addi	sp,sp,-16
 10080f4:	e406                	sd	ra,8(sp)
 10080f6:	e022                	sd	s0,0(sp)
 10080f8:	842e                	mv	s0,a1
 10080fa:	ef6fd0ef          	jal	ra,10057f0 <__spl_start+0x4300>
 10080fe:	eb0fd0ef          	jal	ra,10057ae <__spl_start+0x42be>
 1008102:	6118                	ld	a4,0(a0)
 1008104:	0550000f          	fence	ow,ow
 1008108:	4785                	li	a5,1
 100810a:	008795bb          	sllw	a1,a5,s0
 100810e:	fff5c593          	not	a1,a1
 1008112:	db2c                	sw	a1,112(a4)
 1008114:	60a2                	ld	ra,8(sp)
 1008116:	6402                	ld	s0,0(sp)
 1008118:	0141                	addi	sp,sp,16
 100811a:	8082                	ret
 100811c:	1141                	addi	sp,sp,-16
 100811e:	e406                	sd	ra,8(sp)
 1008120:	ed0fd0ef          	jal	ra,10057f0 <__spl_start+0x4300>
 1008124:	e8afd0ef          	jal	ra,10057ae <__spl_start+0x42be>
 1008128:	611c                	ld	a5,0(a0)
 100812a:	0550000f          	fence	ow,ow
 100812e:	577d                	li	a4,-1
 1008130:	dbb8                	sw	a4,112(a5)
 1008132:	60a2                	ld	ra,8(sp)
 1008134:	0141                	addi	sp,sp,16
 1008136:	8082                	ret
 1008138:	1141                	addi	sp,sp,-16
 100813a:	e406                	sd	ra,8(sp)
 100813c:	eb4fd0ef          	jal	ra,10057f0 <__spl_start+0x4300>
 1008140:	e6efd0ef          	jal	ra,10057ae <__spl_start+0x42be>
 1008144:	611c                	ld	a5,0(a0)
 1008146:	0550000f          	fence	ow,ow
 100814a:	577d                	li	a4,-1
 100814c:	dbb8                	sw	a4,112(a5)
 100814e:	0550000f          	fence	ow,ow
 1008152:	18000713          	li	a4,384
 1008156:	d3b8                	sw	a4,96(a5)
 1008158:	60a2                	ld	ra,8(sp)
 100815a:	4501                	li	a0,0
 100815c:	0141                	addi	sp,sp,16
 100815e:	8082                	ret
 1008160:	1141                	addi	sp,sp,-16
 1008162:	e406                	sd	ra,8(sp)
 1008164:	e8cfd0ef          	jal	ra,10057f0 <__spl_start+0x4300>
 1008168:	e46fd0ef          	jal	ra,10057ae <__spl_start+0x42be>
 100816c:	611c                	ld	a5,0(a0)
 100816e:	0550000f          	fence	ow,ow
 1008172:	577d                	li	a4,-1
 1008174:	dbb8                	sw	a4,112(a5)
 1008176:	0550000f          	fence	ow,ow
 100817a:	08600713          	li	a4,134
 100817e:	d3b8                	sw	a4,96(a5)
 1008180:	60a2                	ld	ra,8(sp)
 1008182:	4501                	li	a0,0
 1008184:	0141                	addi	sp,sp,16
 1008186:	8082                	ret
 1008188:	7159                	addi	sp,sp,-112
 100818a:	f486                	sd	ra,104(sp)
 100818c:	f0a2                	sd	s0,96(sp)
 100818e:	eca6                	sd	s1,88(sp)
 1008190:	e8ca                	sd	s2,80(sp)
 1008192:	e4ce                	sd	s3,72(sp)
 1008194:	e0d2                	sd	s4,64(sp)
 1008196:	f85a                	sd	s6,48(sp)
 1008198:	f45e                	sd	s7,40(sp)
 100819a:	842e                	mv	s0,a1
 100819c:	fc56                	sd	s5,56(sp)
 100819e:	f062                	sd	s8,32(sp)
 10081a0:	ec66                	sd	s9,24(sp)
 10081a2:	e86a                	sd	s10,16(sp)
 10081a4:	e46e                	sd	s11,8(sp)
 10081a6:	84aa                	mv	s1,a0
 10081a8:	8932                	mv	s2,a2
 10081aa:	89b6                	mv	s3,a3
 10081ac:	8a3a                	mv	s4,a4
 10081ae:	e42fd0ef          	jal	ra,10057f0 <__spl_start+0x4300>
 10081b2:	8b2a                	mv	s6,a0
 10081b4:	dfafd0ef          	jal	ra,10057ae <__spl_start+0x42be>
 10081b8:	00053b83          	ld	s7,0(a0)
 10081bc:	8526                	mv	a0,s1
 10081be:	de4fd0ef          	jal	ra,10057a2 <__spl_start+0x42b2>
 10081c2:	cc09                	beqz	s0,10081dc <__spl_start+0x6cec>
 10081c4:	00747793          	andi	a5,s0,7
 10081c8:	c3b1                	beqz	a5,100820c <__spl_start+0x6d1c>
 10081ca:	45a1                	li	a1,8
 10081cc:	00003517          	auipc	a0,0x3
 10081d0:	0c450513          	addi	a0,a0,196 # 100b290 <__spl_start+0x9da0>
 10081d4:	cc0fd0ef          	jal	ra,1005694 <__spl_start+0x41a4>
 10081d8:	002a6a13          	ori	s4,s4,2
 10081dc:	002a7a13          	andi	s4,s4,2
 10081e0:	4401                	li	s0,0
 10081e2:	000a0563          	beqz	s4,10081ec <__spl_start+0x6cfc>
 10081e6:	8526                	mv	a0,s1
 10081e8:	f35ff0ef          	jal	ra,100811c <__spl_start+0x6c2c>
 10081ec:	70a6                	ld	ra,104(sp)
 10081ee:	8522                	mv	a0,s0
 10081f0:	7406                	ld	s0,96(sp)
 10081f2:	64e6                	ld	s1,88(sp)
 10081f4:	6946                	ld	s2,80(sp)
 10081f6:	69a6                	ld	s3,72(sp)
 10081f8:	6a06                	ld	s4,64(sp)
 10081fa:	7ae2                	ld	s5,56(sp)
 10081fc:	7b42                	ld	s6,48(sp)
 10081fe:	7ba2                	ld	s7,40(sp)
 1008200:	7c02                	ld	s8,32(sp)
 1008202:	6ce2                	ld	s9,24(sp)
 1008204:	6d42                	ld	s10,16(sp)
 1008206:	6da2                	ld	s11,8(sp)
 1008208:	6165                	addi	sp,sp,112
 100820a:	8082                	ret
 100820c:	001a7793          	andi	a5,s4,1
 1008210:	c789                	beqz	a5,100821a <__spl_start+0x6d2a>
 1008212:	410c                	lw	a1,0(a0)
 1008214:	8526                	mv	a0,s1
 1008216:	eddff0ef          	jal	ra,10080f2 <__spl_start+0x6c02>
 100821a:	8526                	mv	a0,s1
 100821c:	dd4fd0ef          	jal	ra,10057f0 <__spl_start+0x4300>
 1008220:	8c2a                	mv	s8,a0
 1008222:	d8cfd0ef          	jal	ra,10057ae <__spl_start+0x42be>
 1008226:	00053d03          	ld	s10,0(a0)
 100822a:	8aaa                	mv	s5,a0
 100822c:	8526                	mv	a0,s1
 100822e:	d74fd0ef          	jal	ra,10057a2 <__spl_start+0x42b2>
 1008232:	0034541b          	srliw	s0,s0,0x3
 1008236:	8caa                	mv	s9,a0
 1008238:	85ca                	mv	a1,s2
 100823a:	4d85                	li	s11,1
 100823c:	014ac783          	lbu	a5,20(s5)
 1008240:	06fdf363          	bgeu	s11,a5,10082a6 <__spl_start+0x6db6>
 1008244:	6c09                	lui	s8,0x2
 1008246:	8aa2                	mv	s5,s0
 1008248:	710c0c13          	addi	s8,s8,1808 # 2710 <_start-0xffd8f0>
 100824c:	d841                	beqz	s0,10081dc <__spl_start+0x6cec>
 100824e:	f80a87e3          	beqz	s5,10081dc <__spl_start+0x6cec>
 1008252:	8622                	mv	a2,s0
 1008254:	85ca                	mv	a1,s2
 1008256:	855a                	mv	a0,s6
 1008258:	e13ff0ef          	jal	ra,100806a <__spl_start+0x6b7a>
 100825c:	060ba703          	lw	a4,96(s7)
 1008260:	0005079b          	sext.w	a5,a0
 1008264:	0aa0000f          	fence	ir,ir
 1008268:	0550000f          	fence	ow,ow
 100826c:	eff77713          	andi	a4,a4,-257
 1008270:	06eba023          	sw	a4,96(s7)
 1008274:	9c1d                	subw	s0,s0,a5
 1008276:	00090563          	beqz	s2,1008280 <__spl_start+0x6d90>
 100827a:	1782                	slli	a5,a5,0x20
 100827c:	9381                	srli	a5,a5,0x20
 100827e:	993e                	add	s2,s2,a5
 1008280:	4501                	li	a0,0
 1008282:	804fd0ef          	jal	ra,1005286 <__spl_start+0x3d96>
 1008286:	8caa                	mv	s9,a0
 1008288:	064ba783          	lw	a5,100(s7)
 100828c:	0aa0000f          	fence	ir,ir
 1008290:	8b91                	andi	a5,a5,4
 1008292:	ebad                	bnez	a5,1008304 <__spl_start+0x6e14>
 1008294:	8566                	mv	a0,s9
 1008296:	ff1fc0ef          	jal	ra,1005286 <__spl_start+0x3d96>
 100829a:	04ac6c63          	bltu	s8,a0,10082f2 <__spl_start+0x6e02>
 100829e:	4505                	li	a0,1
 10082a0:	866fd0ef          	jal	ra,1005306 <__spl_start+0x3e16>
 10082a4:	b7d5                	j	1008288 <__spl_start+0x6d98>
 10082a6:	8622                	mv	a2,s0
 10082a8:	8562                	mv	a0,s8
 10082aa:	dc1ff0ef          	jal	ra,100806a <__spl_start+0x6b7a>
 10082ae:	060d2783          	lw	a5,96(s10) # 19060 <_start-0xfe6fa0>
 10082b2:	0aa0000f          	fence	ir,ir
 10082b6:	0550000f          	fence	ow,ow
 10082ba:	eff7f793          	andi	a5,a5,-257
 10082be:	06fd2023          	sw	a5,96(s10)
 10082c2:	85ce                	mv	a1,s3
 10082c4:	8622                	mv	a2,s0
 10082c6:	8562                	mv	a0,s8
 10082c8:	dedff0ef          	jal	ra,10080b4 <__spl_start+0x6bc4>
 10082cc:	014ac783          	lbu	a5,20(s5)
 10082d0:	85ce                	mv	a1,s3
 10082d2:	cb91                	beqz	a5,10082e6 <__spl_start+0x6df6>
 10082d4:	8526                	mv	a0,s1
 10082d6:	e47ff0ef          	jal	ra,100811c <__spl_start+0x6c2c>
 10082da:	000ca583          	lw	a1,0(s9)
 10082de:	8526                	mv	a0,s1
 10082e0:	e13ff0ef          	jal	ra,10080f2 <__spl_start+0x6c02>
 10082e4:	85ca                	mv	a1,s2
 10082e6:	014ac783          	lbu	a5,20(s5)
 10082ea:	2785                	addiw	a5,a5,1
 10082ec:	00fa8a23          	sb	a5,20(s5)
 10082f0:	b7b1                	j	100823c <__spl_start+0x6d4c>
 10082f2:	00003517          	auipc	a0,0x3
 10082f6:	fce50513          	addi	a0,a0,-50 # 100b2c0 <__spl_start+0x9dd0>
 10082fa:	b9afd0ef          	jal	ra,1005694 <__spl_start+0x41a4>
 10082fe:	f9200413          	li	s0,-110
 1008302:	b5ed                	j	10081ec <__spl_start+0x6cfc>
 1008304:	8656                	mv	a2,s5
 1008306:	85ce                	mv	a1,s3
 1008308:	855a                	mv	a0,s6
 100830a:	dabff0ef          	jal	ra,10080b4 <__spl_start+0x6bc4>
 100830e:	0005079b          	sext.w	a5,a0
 1008312:	40aa8abb          	subw	s5,s5,a0
 1008316:	f2098be3          	beqz	s3,100824c <__spl_start+0x6d5c>
 100831a:	1782                	slli	a5,a5,0x20
 100831c:	9381                	srli	a5,a5,0x20
 100831e:	99be                	add	s3,s3,a5
 1008320:	b735                	j	100824c <__spl_start+0x6d5c>
 1008322:	1101                	addi	sp,sp,-32
 1008324:	ec06                	sd	ra,24(sp)
 1008326:	e822                	sd	s0,16(sp)
 1008328:	e426                	sd	s1,8(sp)
 100832a:	e04a                	sd	s2,0(sp)
 100832c:	84aa                	mv	s1,a0
 100832e:	c80fd0ef          	jal	ra,10057ae <__spl_start+0x42be>
 1008332:	842a                	mv	s0,a0
 1008334:	00053903          	ld	s2,0(a0)
 1008338:	8526                	mv	a0,s1
 100833a:	8dffd0ef          	jal	ra,1005c18 <__spl_start+0x4728>
 100833e:	e008                	sd	a0,0(s0)
 1008340:	68c8                	ld	a0,144(s1)
 1008342:	4601                	li	a2,0
 1008344:	00003597          	auipc	a1,0x3
 1008348:	f3c58593          	addi	a1,a1,-196 # 100b280 <__spl_start+0x9d90>
 100834c:	b14fe0ef          	jal	ra,1006660 <__spl_start+0x5170>
 1008350:	c808                	sw	a0,16(s0)
 1008352:	0550000f          	fence	ow,ow
 1008356:	47a9                	li	a5,10
 1008358:	04f92023          	sw	a5,64(s2)
 100835c:	60e2                	ld	ra,24(sp)
 100835e:	6442                	ld	s0,16(sp)
 1008360:	64a2                	ld	s1,8(sp)
 1008362:	6902                	ld	s2,0(sp)
 1008364:	4501                	li	a0,0
 1008366:	6105                	addi	sp,sp,32
 1008368:	8082                	ret
 100836a:	1141                	addi	sp,sp,-16
 100836c:	e406                	sd	ra,8(sp)
 100836e:	c46fd0ef          	jal	ra,10057b4 <__spl_start+0x42c4>
 1008372:	611c                	ld	a5,0(a0)
 1008374:	5529                	li	a0,-22
 1008376:	c391                	beqz	a5,100837a <__spl_start+0x6e8a>
 1008378:	4501                	li	a0,0
 100837a:	60a2                	ld	ra,8(sp)
 100837c:	0141                	addi	sp,sp,16
 100837e:	8082                	ret
 1008380:	1101                	addi	sp,sp,-32
 1008382:	e822                	sd	s0,16(sp)
 1008384:	e426                	sd	s1,8(sp)
 1008386:	ec06                	sd	ra,24(sp)
 1008388:	84aa                	mv	s1,a0
 100838a:	c2afd0ef          	jal	ra,10057b4 <__spl_start+0x42c4>
 100838e:	842a                	mv	s0,a0
 1008390:	68c8                	ld	a0,144(s1)
 1008392:	00054b63          	bltz	a0,10083a8 <__spl_start+0x6eb8>
 1008396:	4601                	li	a2,0
 1008398:	00001597          	auipc	a1,0x1
 100839c:	b1058593          	addi	a1,a1,-1264 # 1008ea8 <__spl_start+0x79b8>
 10083a0:	ac0fe0ef          	jal	ra,1006660 <__spl_start+0x5170>
 10083a4:	2501                	sext.w	a0,a0
 10083a6:	e008                	sd	a0,0(s0)
 10083a8:	60e2                	ld	ra,24(sp)
 10083aa:	6442                	ld	s0,16(sp)
 10083ac:	64a2                	ld	s1,8(sp)
 10083ae:	4501                	li	a0,0
 10083b0:	6105                	addi	sp,sp,32
 10083b2:	8082                	ret
 10083b4:	611c                	ld	a5,0(a0)
 10083b6:	77bc                	ld	a5,104(a5)
 10083b8:	639c                	ld	a5,0(a5)
 10083ba:	cf81                	beqz	a5,10083d2 <__spl_start+0x6ee2>
 10083bc:	1141                	addi	sp,sp,-16
 10083be:	e022                	sd	s0,0(sp)
 10083c0:	e406                	sd	ra,8(sp)
 10083c2:	842e                	mv	s0,a1
 10083c4:	9782                	jalr	a5
 10083c6:	e008                	sd	a0,0(s0)
 10083c8:	60a2                	ld	ra,8(sp)
 10083ca:	6402                	ld	s0,0(sp)
 10083cc:	4501                	li	a0,0
 10083ce:	0141                	addi	sp,sp,16
 10083d0:	8082                	ret
 10083d2:	fda00513          	li	a0,-38
 10083d6:	8082                	ret
 10083d8:	1141                	addi	sp,sp,-16
 10083da:	e406                	sd	ra,8(sp)
 10083dc:	bd8fd0ef          	jal	ra,10057b4 <__spl_start+0x42c4>
 10083e0:	60a2                	ld	ra,8(sp)
 10083e2:	6108                	ld	a0,0(a0)
 10083e4:	0141                	addi	sp,sp,16
 10083e6:	8082                	ret
 10083e8:	1141                	addi	sp,sp,-16
 10083ea:	e406                	sd	ra,8(sp)
 10083ec:	e022                	sd	s0,0(sp)
 10083ee:	bc6fd0ef          	jal	ra,10057b4 <__spl_start+0x42c4>
 10083f2:	611c                	ld	a5,0(a0)
 10083f4:	e385                	bnez	a5,1008414 <__spl_start+0x6f24>
 10083f6:	842a                	mv	s0,a0
 10083f8:	19c000ef          	jal	ra,1008594 <__spl_start+0x70a4>
 10083fc:	e511                	bnez	a0,1008408 <__spl_start+0x6f18>
 10083fe:	5535                	li	a0,-19
 1008400:	60a2                	ld	ra,8(sp)
 1008402:	6402                	ld	s0,0(sp)
 1008404:	0141                	addi	sp,sp,16
 1008406:	8082                	ret
 1008408:	b9afd0ef          	jal	ra,10057a2 <__spl_start+0x42b2>
 100840c:	d96d                	beqz	a0,10083fe <__spl_start+0x6f0e>
 100840e:	01c56783          	lwu	a5,28(a0)
 1008412:	e01c                	sd	a5,0(s0)
 1008414:	4501                	li	a0,0
 1008416:	b7ed                	j	1008400 <__spl_start+0x6f10>
 1008418:	7179                	addi	sp,sp,-48
 100841a:	f406                	sd	ra,40(sp)
 100841c:	f022                	sd	s0,32(sp)
 100841e:	ec26                	sd	s1,24(sp)
 1008420:	0d01b703          	ld	a4,208(gp)
 1008424:	e402                	sd	zero,8(sp)
 1008426:	4501                	li	a0,0
 1008428:	e32d                	bnez	a4,100848a <__spl_start+0x6f9a>
 100842a:	0a81b783          	ld	a5,168(gp)
 100842e:	5555                	li	a0,-11
 1008430:	cfa9                	beqz	a5,100848a <__spl_start+0x6f9a>
 1008432:	00000517          	auipc	a0,0x0
 1008436:	73650513          	addi	a0,a0,1846 # 1008b68 <__spl_start+0x7678>
 100843a:	afefe0ef          	jal	ra,1006738 <__spl_start+0x5248>
 100843e:	842a                	mv	s0,a0
 1008440:	02055163          	bgez	a0,1008462 <__spl_start+0x6f72>
 1008444:	67a2                	ld	a5,8(sp)
 1008446:	e799                	bnez	a5,1008454 <__spl_start+0x6f64>
 1008448:	002c                	addi	a1,sp,8
 100844a:	06300513          	li	a0,99
 100844e:	818fe0ef          	jal	ra,1006466 <__spl_start+0x4f76>
 1008452:	ed05                	bnez	a0,100848a <__spl_start+0x6f9a>
 1008454:	67a2                	ld	a5,8(sp)
 1008456:	5535                	li	a0,-19
 1008458:	cb8d                	beqz	a5,100848a <__spl_start+0x6f9a>
 100845a:	0cf1b823          	sd	a5,208(gp)
 100845e:	4501                	li	a0,0
 1008460:	a02d                	j	100848a <__spl_start+0x6f9a>
 1008462:	0024                	addi	s1,sp,8
 1008464:	85aa                	mv	a1,a0
 1008466:	8626                	mv	a2,s1
 1008468:	06300513          	li	a0,99
 100846c:	fb1fd0ef          	jal	ra,100641c <__spl_start+0x4f2c>
 1008470:	d971                	beqz	a0,1008444 <__spl_start+0x6f54>
 1008472:	aedfd0ef          	jal	ra,1005f5e <__spl_start+0x4a6e>
 1008476:	4681                	li	a3,0
 1008478:	8626                	mv	a2,s1
 100847a:	85a2                	mv	a1,s0
 100847c:	93ffd0ef          	jal	ra,1005dba <__spl_start+0x48ca>
 1008480:	f171                	bnez	a0,1008444 <__spl_start+0x6f54>
 1008482:	6522                	ld	a0,8(sp)
 1008484:	c70fd0ef          	jal	ra,10058f4 <__spl_start+0x4404>
 1008488:	dd55                	beqz	a0,1008444 <__spl_start+0x6f54>
 100848a:	70a2                	ld	ra,40(sp)
 100848c:	7402                	ld	s0,32(sp)
 100848e:	64e2                	ld	s1,24(sp)
 1008490:	6145                	addi	sp,sp,48
 1008492:	8082                	ret
 1008494:	c0102573          	rdtime	a0
 1008498:	8082                	ret
 100849a:	1141                	addi	sp,sp,-16
 100849c:	e022                	sd	s0,0(sp)
 100849e:	e406                	sd	ra,8(sp)
 10084a0:	842a                	mv	s0,a0
 10084a2:	b12fd0ef          	jal	ra,10057b4 <__spl_start+0x42c4>
 10084a6:	741c                	ld	a5,40(s0)
 10084a8:	e11c                	sd	a5,0(a0)
 10084aa:	60a2                	ld	ra,8(sp)
 10084ac:	6402                	ld	s0,0(sp)
 10084ae:	4501                	li	a0,0
 10084b0:	0141                	addi	sp,sp,16
 10084b2:	8082                	ret
 10084b4:	1141                	addi	sp,sp,-16
 10084b6:	e406                	sd	ra,8(sp)
 10084b8:	af6fd0ef          	jal	ra,10057ae <__spl_start+0x42be>
 10084bc:	67b1                	lui	a5,0xc
 10084be:	953e                	add	a0,a0,a5
 10084c0:	ff853503          	ld	a0,-8(a0)
 10084c4:	0aa0000f          	fence	ir,ir
 10084c8:	60a2                	ld	ra,8(sp)
 10084ca:	0141                	addi	sp,sp,16
 10084cc:	8082                	ret
 10084ce:	1141                	addi	sp,sp,-16
 10084d0:	e406                	sd	ra,8(sp)
 10084d2:	e022                	sd	s0,0(sp)
 10084d4:	842a                	mv	s0,a0
 10084d6:	f46fd0ef          	jal	ra,1005c1c <__spl_start+0x472c>
 10084da:	85aa                	mv	a1,a0
 10084dc:	8522                	mv	a0,s0
 10084de:	b22fd0ef          	jal	ra,1005800 <__spl_start+0x4310>
 10084e2:	8522                	mv	a0,s0
 10084e4:	acafd0ef          	jal	ra,10057ae <__spl_start+0x42be>
 10084e8:	c519                	beqz	a0,10084f6 <__spl_start+0x7006>
 10084ea:	8522                	mv	a0,s0
 10084ec:	6402                	ld	s0,0(sp)
 10084ee:	60a2                	ld	ra,8(sp)
 10084f0:	0141                	addi	sp,sp,16
 10084f2:	ef7ff06f          	j	10083e8 <__spl_start+0x6ef8>
 10084f6:	60a2                	ld	ra,8(sp)
 10084f8:	6402                	ld	s0,0(sp)
 10084fa:	5529                	li	a0,-22
 10084fc:	0141                	addi	sp,sp,16
 10084fe:	8082                	ret
 1008500:	7179                	addi	sp,sp,-48
 1008502:	00001517          	auipc	a0,0x1
 1008506:	a7e50513          	addi	a0,a0,-1410 # 1008f80 <__spl_start+0x7a90>
 100850a:	f406                	sd	ra,40(sp)
 100850c:	9eafe0ef          	jal	ra,10066f6 <__spl_start+0x5206>
 1008510:	86aa                	mv	a3,a0
 1008512:	e42a                	sd	a0,8(sp)
 1008514:	4501                	li	a0,0
 1008516:	0206c063          	bltz	a3,1008536 <__spl_start+0x7046>
 100851a:	a45fd0ef          	jal	ra,1005f5e <__spl_start+0x4a6e>
 100851e:	66a2                	ld	a3,8(sp)
 1008520:	0838                	addi	a4,sp,24
 1008522:	00003617          	auipc	a2,0x3
 1008526:	d4e60613          	addi	a2,a2,-690 # 100b270 <__spl_start+0x9d80>
 100852a:	00003597          	auipc	a1,0x3
 100852e:	d4e58593          	addi	a1,a1,-690 # 100b278 <__spl_start+0x9d88>
 1008532:	849fd0ef          	jal	ra,1005d7a <__spl_start+0x488a>
 1008536:	70a2                	ld	ra,40(sp)
 1008538:	6145                	addi	sp,sp,48
 100853a:	8082                	ret
 100853c:	7179                	addi	sp,sp,-48
 100853e:	ec26                	sd	s1,24(sp)
 1008540:	0024                	addi	s1,sp,8
 1008542:	85a6                	mv	a1,s1
 1008544:	456d                	li	a0,27
 1008546:	f022                	sd	s0,32(sp)
 1008548:	f406                	sd	ra,40(sp)
 100854a:	ef7fd0ef          	jal	ra,1006440 <__spl_start+0x4f50>
 100854e:	842a                	mv	s0,a0
 1008550:	c919                	beqz	a0,1008566 <__spl_start+0x7076>
 1008552:	70a2                	ld	ra,40(sp)
 1008554:	8522                	mv	a0,s0
 1008556:	7402                	ld	s0,32(sp)
 1008558:	64e2                	ld	s1,24(sp)
 100855a:	6145                	addi	sp,sp,48
 100855c:	8082                	ret
 100855e:	8526                	mv	a0,s1
 1008560:	f23fd0ef          	jal	ra,1006482 <__spl_start+0x4f92>
 1008564:	e501                	bnez	a0,100856c <__spl_start+0x707c>
 1008566:	67a2                	ld	a5,8(sp)
 1008568:	fbfd                	bnez	a5,100855e <__spl_start+0x706e>
 100856a:	b7e5                	j	1008552 <__spl_start+0x7062>
 100856c:	842a                	mv	s0,a0
 100856e:	b7d5                	j	1008552 <__spl_start+0x7062>
 1008570:	611c                	ld	a5,0(a0)
 1008572:	77bc                	ld	a5,104(a5)
 1008574:	739c                	ld	a5,32(a5)
 1008576:	eb89                	bnez	a5,1008588 <__spl_start+0x7098>
 1008578:	fda00513          	li	a0,-38
 100857c:	8082                	ret
 100857e:	fda00513          	li	a0,-38
 1008582:	60a2                	ld	ra,8(sp)
 1008584:	0141                	addi	sp,sp,16
 1008586:	8082                	ret
 1008588:	1141                	addi	sp,sp,-16
 100858a:	e406                	sd	ra,8(sp)
 100858c:	9782                	jalr	a5
 100858e:	d965                	beqz	a0,100857e <__spl_start+0x708e>
 1008590:	4505                	li	a0,1
 1008592:	bfc5                	j	1008582 <__spl_start+0x7092>
 1008594:	1101                	addi	sp,sp,-32
 1008596:	e822                	sd	s0,16(sp)
 1008598:	0020                	addi	s0,sp,8
 100859a:	85a2                	mv	a1,s0
 100859c:	456d                	li	a0,27
 100859e:	ec06                	sd	ra,24(sp)
 10085a0:	ec7fd0ef          	jal	ra,1006466 <__spl_start+0x4f76>
 10085a4:	e119                	bnez	a0,10085aa <__spl_start+0x70ba>
 10085a6:	6522                	ld	a0,8(sp)
 10085a8:	ed01                	bnez	a0,10085c0 <__spl_start+0x70d0>
 10085aa:	85a2                	mv	a1,s0
 10085ac:	456d                	li	a0,27
 10085ae:	eb9fd0ef          	jal	ra,1006466 <__spl_start+0x4f76>
 10085b2:	4781                	li	a5,0
 10085b4:	c911                	beqz	a0,10085c8 <__spl_start+0x70d8>
 10085b6:	60e2                	ld	ra,24(sp)
 10085b8:	6442                	ld	s0,16(sp)
 10085ba:	853e                	mv	a0,a5
 10085bc:	6105                	addi	sp,sp,32
 10085be:	8082                	ret
 10085c0:	fb1ff0ef          	jal	ra,1008570 <__spl_start+0x7080>
 10085c4:	00a05463          	blez	a0,10085cc <__spl_start+0x70dc>
 10085c8:	67a2                	ld	a5,8(sp)
 10085ca:	b7f5                	j	10085b6 <__spl_start+0x70c6>
 10085cc:	8522                	mv	a0,s0
 10085ce:	edffd0ef          	jal	ra,10064ac <__spl_start+0x4fbc>
 10085d2:	bfc9                	j	10085a4 <__spl_start+0x70b4>
 10085d4:	611c                	ld	a5,0(a0)
 10085d6:	77bc                	ld	a5,104(a5)
 10085d8:	639c                	ld	a5,0(a5)
 10085da:	c391                	beqz	a5,10085de <__spl_start+0x70ee>
 10085dc:	8782                	jr	a5
 10085de:	fda00513          	li	a0,-38
 10085e2:	8082                	ret
 10085e4:	4501                	li	a0,0
 10085e6:	8082                	ret
 10085e8:	7179                	addi	sp,sp,-48
 10085ea:	f022                	sd	s0,32(sp)
 10085ec:	f406                	sd	ra,40(sp)
 10085ee:	ec26                	sd	s1,24(sp)
 10085f0:	e84a                	sd	s2,16(sp)
 10085f2:	e44e                	sd	s3,8(sp)
 10085f4:	e052                	sd	s4,0(sp)
 10085f6:	791c                	ld	a5,48(a0)
 10085f8:	0d81b503          	ld	a0,216(gp)
 10085fc:	547d                	li	s0,-1
 10085fe:	0907a583          	lw	a1,144(a5) # c090 <_start-0xff3f70>
 1008602:	89ffb0ef          	jal	ra,1003ea0 <__spl_start+0x29b0>
 1008606:	00054463          	bltz	a0,100860e <__spl_start+0x711e>
 100860a:	0005041b          	sext.w	s0,a0
 100860e:	4481                	li	s1,0
 1008610:	597d                	li	s2,-1
 1008612:	00000997          	auipc	s3,0x0
 1008616:	61e98993          	addi	s3,s3,1566 # 1008c30 <__spl_start+0x7740>
 100861a:	00003a17          	auipc	s4,0x3
 100861e:	bd6a0a13          	addi	s4,s4,-1066 # 100b1f0 <__spl_start+0x9d00>
 1008622:	01241b63          	bne	s0,s2,1008638 <__spl_start+0x7148>
 1008626:	70a2                	ld	ra,40(sp)
 1008628:	7402                	ld	s0,32(sp)
 100862a:	6942                	ld	s2,16(sp)
 100862c:	69a2                	ld	s3,8(sp)
 100862e:	6a02                	ld	s4,0(sp)
 1008630:	8526                	mv	a0,s1
 1008632:	64e2                	ld	s1,24(sp)
 1008634:	6145                	addi	sp,sp,48
 1008636:	8082                	ret
 1008638:	8522                	mv	a0,s0
 100863a:	93cfe0ef          	jal	ra,1006776 <__spl_start+0x5286>
 100863e:	c919                	beqz	a0,1008654 <__spl_start+0x7164>
 1008640:	85ce                	mv	a1,s3
 1008642:	8522                	mv	a0,s0
 1008644:	860fe0ef          	jal	ra,10066a4 <__spl_start+0x51b4>
 1008648:	c511                	beqz	a0,1008654 <__spl_start+0x7164>
 100864a:	85d2                	mv	a1,s4
 100864c:	b2dfc0ef          	jal	ra,1005178 <__spl_start+0x3c88>
 1008650:	e111                	bnez	a0,1008654 <__spl_start+0x7164>
 1008652:	2485                	addiw	s1,s1,1
 1008654:	0d81b503          	ld	a0,216(gp)
 1008658:	85a2                	mv	a1,s0
 100865a:	867fb0ef          	jal	ra,1003ec0 <__spl_start+0x29d0>
 100865e:	0005041b          	sext.w	s0,a0
 1008662:	fc0550e3          	bgez	a0,1008622 <__spl_start+0x7132>
 1008666:	547d                	li	s0,-1
 1008668:	bf6d                	j	1008622 <__spl_start+0x7132>
 100866a:	7179                	addi	sp,sp,-48
 100866c:	f022                	sd	s0,32(sp)
 100866e:	ec26                	sd	s1,24(sp)
 1008670:	f406                	sd	ra,40(sp)
 1008672:	619c                	ld	a5,0(a1)
 1008674:	84aa                	mv	s1,a0
 1008676:	842e                	mv	s0,a1
 1008678:	eb89                	bnez	a5,100868a <__spl_start+0x719a>
 100867a:	6948                	ld	a0,144(a0)
 100867c:	862e                	mv	a2,a1
 100867e:	00001597          	auipc	a1,0x1
 1008682:	82a58593          	addi	a1,a1,-2006 # 1008ea8 <__spl_start+0x79b8>
 1008686:	fd5fd0ef          	jal	ra,100665a <__spl_start+0x516a>
 100868a:	68c8                	ld	a0,144(s1)
 100868c:	00001597          	auipc	a1,0x1
 1008690:	88c58593          	addi	a1,a1,-1908 # 1008f18 <__spl_start+0x7a28>
 1008694:	810fe0ef          	jal	ra,10066a4 <__spl_start+0x51b4>
 1008698:	c509                	beqz	a0,10086a2 <__spl_start+0x71b2>
 100869a:	641c                	ld	a5,8(s0)
 100869c:	0027e793          	ori	a5,a5,2
 10086a0:	e41c                	sd	a5,8(s0)
 10086a2:	68c8                	ld	a0,144(s1)
 10086a4:	0030                	addi	a2,sp,8
 10086a6:	00001597          	auipc	a1,0x1
 10086aa:	88258593          	addi	a1,a1,-1918 # 1008f28 <__spl_start+0x7a38>
 10086ae:	fadfd0ef          	jal	ra,100665a <__spl_start+0x516a>
 10086b2:	e919                	bnez	a0,10086c8 <__spl_start+0x71d8>
 10086b4:	641c                	ld	a5,8(s0)
 10086b6:	0017e793          	ori	a5,a5,1
 10086ba:	e41c                	sd	a5,8(s0)
 10086bc:	70a2                	ld	ra,40(sp)
 10086be:	7402                	ld	s0,32(sp)
 10086c0:	64e2                	ld	s1,24(sp)
 10086c2:	4501                	li	a0,0
 10086c4:	6145                	addi	sp,sp,48
 10086c6:	8082                	ret
 10086c8:	68c8                	ld	a0,144(s1)
 10086ca:	0070                	addi	a2,sp,12
 10086cc:	00001597          	auipc	a1,0x1
 10086d0:	86c58593          	addi	a1,a1,-1940 # 1008f38 <__spl_start+0x7a48>
 10086d4:	f87fd0ef          	jal	ra,100665a <__spl_start+0x516a>
 10086d8:	f175                	bnez	a0,10086bc <__spl_start+0x71cc>
 10086da:	bfe9                	j	10086b4 <__spl_start+0x71c4>
 10086dc:	7179                	addi	sp,sp,-48
 10086de:	f406                	sd	ra,40(sp)
 10086e0:	f022                	sd	s0,32(sp)
 10086e2:	ec26                	sd	s1,24(sp)
 10086e4:	6948                	ld	a0,144(a0)
 10086e6:	842e                	mv	s0,a1
 10086e8:	00001597          	auipc	a1,0x1
 10086ec:	82058593          	addi	a1,a1,-2016 # 1008f08 <__spl_start+0x7a18>
 10086f0:	84b2                	mv	s1,a2
 10086f2:	fb3fd0ef          	jal	ra,10066a4 <__spl_start+0x51b4>
 10086f6:	e42a                	sd	a0,8(sp)
 10086f8:	ab9fc0ef          	jal	ra,10051b0 <__spl_start+0x3cc0>
 10086fc:	0505                	addi	a0,a0,1
 10086fe:	00a4ec63          	bltu	s1,a0,1008716 <__spl_start+0x7226>
 1008702:	65a2                	ld	a1,8(sp)
 1008704:	8522                	mv	a0,s0
 1008706:	a61fc0ef          	jal	ra,1005166 <__spl_start+0x3c76>
 100870a:	4501                	li	a0,0
 100870c:	70a2                	ld	ra,40(sp)
 100870e:	7402                	ld	s0,32(sp)
 1008710:	64e2                	ld	s1,24(sp)
 1008712:	6145                	addi	sp,sp,48
 1008714:	8082                	ret
 1008716:	5511                	li	a0,-28
 1008718:	bfd5                	j	100870c <__spl_start+0x721c>
 100871a:	7179                	addi	sp,sp,-48
 100871c:	f406                	sd	ra,40(sp)
 100871e:	f022                	sd	s0,32(sp)
 1008720:	ec26                	sd	s1,24(sp)
 1008722:	84aa                	mv	s1,a0
 1008724:	87efd0ef          	jal	ra,10057a2 <__spl_start+0x42b2>
 1008728:	842a                	mv	s0,a0
 100872a:	8526                	mv	a0,s1
 100872c:	cecfd0ef          	jal	ra,1005c18 <__spl_start+0x4728>
 1008730:	c008                	sw	a0,0(s0)
 1008732:	68c8                	ld	a0,144(s1)
 1008734:	01c40613          	addi	a2,s0,28
 1008738:	00000597          	auipc	a1,0x0
 100873c:	7b858593          	addi	a1,a1,1976 # 1008ef0 <__spl_start+0x7a00>
 1008740:	e432                	sd	a2,8(sp)
 1008742:	f19fd0ef          	jal	ra,100665a <__spl_start+0x516a>
 1008746:	6622                	ld	a2,8(sp)
 1008748:	c909                	beqz	a0,100875a <__spl_start+0x726a>
 100874a:	789c                	ld	a5,48(s1)
 100874c:	00000597          	auipc	a1,0x0
 1008750:	7a458593          	addi	a1,a1,1956 # 1008ef0 <__spl_start+0x7a00>
 1008754:	6bc8                	ld	a0,144(a5)
 1008756:	f05fd0ef          	jal	ra,100665a <__spl_start+0x516a>
 100875a:	4018                	lw	a4,0(s0)
 100875c:	1401b783          	ld	a5,320(gp)
 1008760:	02f71763          	bne	a4,a5,100878e <__spl_start+0x729e>
 1008764:	4c5c                	lw	a5,28(s0)
 1008766:	c785                	beqz	a5,100878e <__spl_start+0x729e>
 1008768:	00003517          	auipc	a0,0x3
 100876c:	a4850513          	addi	a0,a0,-1464 # 100b1b0 <__spl_start+0x9cc0>
 1008770:	cc8fd0ef          	jal	ra,1005c38 <__spl_start+0x4748>
 1008774:	85aa                	mv	a1,a0
 1008776:	cd01                	beqz	a0,100878e <__spl_start+0x729e>
 1008778:	01c46683          	lwu	a3,28(s0)
 100877c:	4781                	li	a5,0
 100877e:	577d                	li	a4,-1
 1008780:	00003617          	auipc	a2,0x3
 1008784:	a3060613          	addi	a2,a2,-1488 # 100b1b0 <__spl_start+0x9cc0>
 1008788:	8526                	mv	a0,s1
 100878a:	c2afd0ef          	jal	ra,1005bb4 <__spl_start+0x46c4>
 100878e:	70a2                	ld	ra,40(sp)
 1008790:	7402                	ld	s0,32(sp)
 1008792:	64e2                	ld	s1,24(sp)
 1008794:	4501                	li	a0,0
 1008796:	6145                	addi	sp,sp,48
 1008798:	8082                	ret
 100879a:	1141                	addi	sp,sp,-16
 100879c:	e406                	sd	ra,8(sp)
 100879e:	80afd0ef          	jal	ra,10057a8 <__spl_start+0x42b8>
 10087a2:	f53fc0ef          	jal	ra,10056f4 <__spl_start+0x4204>
 10087a6:	60a2                	ld	ra,8(sp)
 10087a8:	4501                	li	a0,0
 10087aa:	0141                	addi	sp,sp,16
 10087ac:	8082                	ret
 10087ae:	0000                	unimp
 10087b0:	deadbeef          	jal	t4,fe3d9a <_start-0x1c266>
 10087b4:	deadbeef          	jal	t4,fe3d9e <_start-0x1c262>
 10087b8:	deadbeef          	jal	t4,fe3da2 <_start-0x1c25e>
 10087bc:	deadbeef          	jal	t4,fe3da6 <_start-0x1c25a>
 10087c0:	deadbeef          	jal	t4,fe3daa <_start-0x1c256>
 10087c4:	0000                	unimp
 10087c6:	0000                	unimp
 10087c8:	001b0b03          	lb	s6,1(s6)
 10087cc:	0000                	unimp
 10087ce:	0000                	unimp
 10087d0:	6966                	ld	s2,88(sp)
 10087d2:	5f74                	lw	a3,124(a4)
 10087d4:	6966                	ld	s2,88(sp)
 10087d6:	646e                	ld	s0,216(sp)
 10087d8:	635f 6e6f 6966      	0x69666e6f635f
 10087de:	6f6e5f67          	0x6f6e5f67
 10087e2:	6564                	ld	s1,200(a0)
 10087e4:	0000                	unimp
 10087e6:	0000                	unimp
 10087e8:	5f6c7073          	csrci	0x5f6,24
 10087ec:	6f6c                	ld	a1,216(a4)
 10087ee:	6461                	lui	s0,0x18
 10087f0:	735f 6d69 6c70      	0x6c706d69735f
 10087f6:	5f65                	li	t5,-7
 10087f8:	6966                	ld	s2,88(sp)
 10087fa:	0074                	addi	a3,sp,12
 10087fc:	0000                	unimp
 10087fe:	0000                	unimp
 1008800:	6461                	lui	s0,0x18
 1008802:	5f64                	lw	s1,124(a4)
 1008804:	746d                	lui	s0,0xffffb
 1008806:	5f64                	lw	s1,124(a4)
 1008808:	6564                	ld	s1,200(a0)
 100880a:	6976                	ld	s2,344(sp)
 100880c:	00006563          	bltu	zero,zero,1008816 <__spl_start+0x7326>
 1008810:	6466                	ld	s0,88(sp)
 1008812:	5f74                	lw	a3,124(a4)
 1008814:	6572                	ld	a0,280(sp)
 1008816:	64726f63          	bltu	tp,t2,1008e74 <__spl_start+0x7984>
 100881a:	6c5f 616f 6164      	0x6164616f6c5f
 1008820:	6c62                	ld	s8,24(sp)
 1008822:	0065                	c.nop	25
 1008824:	0000                	unimp
 1008826:	0000                	unimp
 1008828:	6466                	ld	s0,88(sp)
 100882a:	5f74                	lw	a3,124(a4)
 100882c:	6966                	ld	s2,88(sp)
 100882e:	646e                	ld	s0,216(sp)
 1008830:	6f5f 5f72 6461      	0x64615f726f5f
 1008836:	5f64                	lw	s1,124(a4)
 1008838:	6e627573          	csrrci	a0,0x6e6,4
 100883c:	0065646f          	jal	s0,105e842 <__spl_src_start+0x5175a>
 1008840:	7264                	ld	s1,224(a2)
 1008842:	7669                	lui	a2,0xffffa
 1008844:	7265                	lui	tp,0xffff9
 1008846:	746d2f73          	csrrs	t5,0x746,s10
 100884a:	2f64                	fld	fs1,216(a4)
 100884c:	746d                	lui	s0,0xffffb
 100884e:	6364                	ld	s1,192(a4)
 1008850:	2e65726f          	jal	tp,105fb36 <__spl_src_start+0x52a4e>
 1008854:	00000063          	beqz	zero,1008854 <__spl_start+0x7364>
 1008858:	5542                	lw	a0,48(sp)
 100885a:	74612047          	0x74612047
 100885e:	2520                	fld	fs0,72(a0)
 1008860:	64253a73          	csrrc	s4,0x642,a0
 1008864:	2873252f          	0x2873252f
 1008868:	2129                	addiw	sp,sp,10
 100886a:	000a                	c.slli	zero,0x2
 100886c:	0000                	unimp
 100886e:	0000                	unimp
 1008870:	5542                	lw	a0,48(sp)
 1008872:	00002147          	fmsub.s	ft2,ft0,ft0,ft0,rdn
 1008876:	0000                	unimp
 1008878:	0808                	addi	a0,sp,16
 100887a:	0808                	addi	a0,sp,16
 100887c:	0808                	addi	a0,sp,16
 100887e:	0808                	addi	a0,sp,16
 1008880:	2808                	fld	fa0,16(s0)
 1008882:	2828                	fld	fa0,80(s0)
 1008884:	2828                	fld	fa0,80(s0)
 1008886:	0808                	addi	a0,sp,16
 1008888:	0808                	addi	a0,sp,16
 100888a:	0808                	addi	a0,sp,16
 100888c:	0808                	addi	a0,sp,16
 100888e:	0808                	addi	a0,sp,16
 1008890:	0808                	addi	a0,sp,16
 1008892:	0808                	addi	a0,sp,16
 1008894:	0808                	addi	a0,sp,16
 1008896:	0808                	addi	a0,sp,16
 1008898:	10a0                	addi	s0,sp,104
 100889a:	1010                	addi	a2,sp,32
 100889c:	1010                	addi	a2,sp,32
 100889e:	1010                	addi	a2,sp,32
 10088a0:	1010                	addi	a2,sp,32
 10088a2:	1010                	addi	a2,sp,32
 10088a4:	1010                	addi	a2,sp,32
 10088a6:	1010                	addi	a2,sp,32
 10088a8:	0404                	addi	s1,sp,512
 10088aa:	0404                	addi	s1,sp,512
 10088ac:	0404                	addi	s1,sp,512
 10088ae:	0404                	addi	s1,sp,512
 10088b0:	0404                	addi	s1,sp,512
 10088b2:	1010                	addi	a2,sp,32
 10088b4:	1010                	addi	a2,sp,32
 10088b6:	1010                	addi	a2,sp,32
 10088b8:	4110                	lw	a2,0(a0)
 10088ba:	4141                	li	sp,16
 10088bc:	4141                	li	sp,16
 10088be:	0141                	addi	sp,sp,16
 10088c0:	0101                	addi	sp,sp,0
 10088c2:	0101                	addi	sp,sp,0
 10088c4:	0101                	addi	sp,sp,0
 10088c6:	0101                	addi	sp,sp,0
 10088c8:	0101                	addi	sp,sp,0
 10088ca:	0101                	addi	sp,sp,0
 10088cc:	0101                	addi	sp,sp,0
 10088ce:	0101                	addi	sp,sp,0
 10088d0:	0101                	addi	sp,sp,0
 10088d2:	1001                	c.nop	-32
 10088d4:	1010                	addi	a2,sp,32
 10088d6:	1010                	addi	a2,sp,32
 10088d8:	4210                	lw	a2,0(a2)
 10088da:	4242                	lw	tp,16(sp)
 10088dc:	4242                	lw	tp,16(sp)
 10088de:	0242                	slli	tp,tp,0x10
 10088e0:	0202                	c.slli64	tp
 10088e2:	0202                	c.slli64	tp
 10088e4:	0202                	c.slli64	tp
 10088e6:	0202                	c.slli64	tp
 10088e8:	0202                	c.slli64	tp
 10088ea:	0202                	c.slli64	tp
 10088ec:	0202                	c.slli64	tp
 10088ee:	0202                	c.slli64	tp
 10088f0:	0202                	c.slli64	tp
 10088f2:	1002                	c.slli	zero,0x20
 10088f4:	1010                	addi	a2,sp,32
 10088f6:	0810                	addi	a2,sp,16
	...
 1008918:	10a0                	addi	s0,sp,104
 100891a:	1010                	addi	a2,sp,32
 100891c:	1010                	addi	a2,sp,32
 100891e:	1010                	addi	a2,sp,32
 1008920:	1010                	addi	a2,sp,32
 1008922:	1010                	addi	a2,sp,32
 1008924:	1010                	addi	a2,sp,32
 1008926:	1010                	addi	a2,sp,32
 1008928:	1010                	addi	a2,sp,32
 100892a:	1010                	addi	a2,sp,32
 100892c:	1010                	addi	a2,sp,32
 100892e:	1010                	addi	a2,sp,32
 1008930:	1010                	addi	a2,sp,32
 1008932:	1010                	addi	a2,sp,32
 1008934:	1010                	addi	a2,sp,32
 1008936:	1010                	addi	a2,sp,32
 1008938:	0101                	addi	sp,sp,0
 100893a:	0101                	addi	sp,sp,0
 100893c:	0101                	addi	sp,sp,0
 100893e:	0101                	addi	sp,sp,0
 1008940:	0101                	addi	sp,sp,0
 1008942:	0101                	addi	sp,sp,0
 1008944:	0101                	addi	sp,sp,0
 1008946:	0101                	addi	sp,sp,0
 1008948:	0101                	addi	sp,sp,0
 100894a:	0101                	addi	sp,sp,0
 100894c:	0101                	addi	sp,sp,0
 100894e:	1001                	c.nop	-32
 1008950:	0101                	addi	sp,sp,0
 1008952:	0101                	addi	sp,sp,0
 1008954:	0101                	addi	sp,sp,0
 1008956:	0201                	addi	tp,tp,0
 1008958:	0202                	c.slli64	tp
 100895a:	0202                	c.slli64	tp
 100895c:	0202                	c.slli64	tp
 100895e:	0202                	c.slli64	tp
 1008960:	0202                	c.slli64	tp
 1008962:	0202                	c.slli64	tp
 1008964:	0202                	c.slli64	tp
 1008966:	0202                	c.slli64	tp
 1008968:	0202                	c.slli64	tp
 100896a:	0202                	c.slli64	tp
 100896c:	0202                	c.slli64	tp
 100896e:	1002                	c.slli	zero,0x20
 1008970:	0202                	c.slli64	tp
 1008972:	0202                	c.slli64	tp
 1008974:	0202                	c.slli64	tp
 1008976:	0202                	c.slli64	tp
 1008978:	6e55                	lui	t3,0x15
 100897a:	6168                	ld	a0,192(a0)
 100897c:	646e                	ld	s0,216(sp)
 100897e:	656c                	ld	a1,200(a0)
 1008980:	2064                	fld	fs1,192(s0)
 1008982:	7865                	lui	a6,0xffff9
 1008984:	74706563          	bltu	zero,t2,10090ce <__spl_start+0x7bde>
 1008988:	6f69                	lui	t5,0x1a
 100898a:	3a6e                	fld	fs4,248(sp)
 100898c:	2520                	fld	fs0,72(a0)
 100898e:	00000a73          	0xa73
 1008992:	0000                	unimp
 1008994:	0000                	unimp
 1008996:	0000                	unimp
 1008998:	6e55                	lui	t3,0x15
 100899a:	6168                	ld	a0,192(a0)
 100899c:	646e                	ld	s0,216(sp)
 100899e:	656c                	ld	a1,200(a0)
 10089a0:	2064                	fld	fs1,192(s0)
 10089a2:	7865                	lui	a6,0xffff9
 10089a4:	74706563          	bltu	zero,t2,10090ee <__spl_start+0x7bfe>
 10089a8:	6f69                	lui	t5,0x1a
 10089aa:	206e                	fld	ft0,216(sp)
 10089ac:	65646f63          	bltu	s0,s6,100900a <__spl_start+0x7b1a>
 10089b0:	203a                	fld	ft0,392(sp)
 10089b2:	6c25                	lui	s8,0x9
 10089b4:	0a64                	addi	s1,sp,284
 10089b6:	0000                	unimp
 10089b8:	5045                	c.li	zero,-15
 10089ba:	25203a43          	0x25203a43
 10089be:	3130                	fld	fa2,96(a0)
 10089c0:	6c36                	ld	s8,328(sp)
 10089c2:	2078                	fld	fa4,192(s0)
 10089c4:	4152                	lw	sp,20(sp)
 10089c6:	203a                	fld	ft0,392(sp)
 10089c8:	3025                	0x3025
 10089ca:	3631                	addiw	a2,a2,-20
 10089cc:	786c                	ld	a1,240(s0)
 10089ce:	5420                	lw	s0,104(s0)
 10089d0:	4156                	lw	sp,84(sp)
 10089d2:	3a4c                	fld	fa1,176(a2)
 10089d4:	2520                	fld	fs0,72(a0)
 10089d6:	3130                	fld	fa2,96(a0)
 10089d8:	6c36                	ld	s8,328(sp)
 10089da:	0a78                	addi	a4,sp,284
 10089dc:	0000                	unimp
 10089de:	0000                	unimp
 10089e0:	5045                	c.li	zero,-15
 10089e2:	25203a43          	0x25203a43
 10089e6:	3130                	fld	fa2,96(a0)
 10089e8:	6c36                	ld	s8,328(sp)
 10089ea:	2078                	fld	fa4,192(s0)
 10089ec:	4152                	lw	sp,20(sp)
 10089ee:	203a                	fld	ft0,392(sp)
 10089f0:	3025                	0x3025
 10089f2:	3631                	addiw	a2,a2,-20
 10089f4:	786c                	ld	a1,240(s0)
 10089f6:	7220                	ld	s0,96(a2)
 10089f8:	6c65                	lui	s8,0x19
 10089fa:	6120636f          	jal	t1,100f00c <__spl_src_start+0x1f24>
 10089fe:	6a64                	ld	s1,208(a2)
 1008a00:	7375                	lui	t1,0xffffd
 1008a02:	6574                	ld	a3,200(a0)
 1008a04:	0a64                	addi	s1,sp,284
 1008a06:	0000                	unimp
 1008a08:	7325                	lui	t1,0xfffe9
 1008a0a:	203a                	fld	ft0,392(sp)
 1008a0c:	6e75                	lui	t3,0x1d
 1008a0e:	6f6c                	ld	a1,216(a4)
 1008a10:	66206b63          	bltu	zero,sp,1009086 <__spl_start+0x7b96>
 1008a14:	6961                	lui	s2,0x18
 1008a16:	656c                	ld	a1,200(a0)
 1008a18:	2c64                	fld	fs1,216(s0)
 1008a1a:	7720                	ld	s0,104(a4)
 1008a1c:	6972                	ld	s2,280(sp)
 1008a1e:	6574                	ld	a3,200(a0)
 1008a20:	616d2073          	csrs	0x616,s10
 1008a24:	2079                	0x2079
 1008a26:	6f6e                	ld	t5,216(sp)
 1008a28:	2074                	fld	fa3,192(s0)
 1008a2a:	6b726f77          	0x6b726f77
 1008a2e:	000a                	c.slli	zero,0x2
 1008a30:	6c61                	lui	s8,0x18
 1008a32:	6f6c                	ld	a1,216(a4)
 1008a34:	70732063          	0x70732063
 1008a38:	6361                	lui	t1,0x18
 1008a3a:	2065                	0x2065
 1008a3c:	7865                	lui	a6,0xffff9
 1008a3e:	6168                	ld	a0,192(a0)
 1008a40:	7375                	lui	t1,0xffffd
 1008a42:	6574                	ld	a3,200(a0)
 1008a44:	0a64                	addi	s1,sp,284
 1008a46:	0000                	unimp
 1008a48:	5f6c7073          	csrci	0x5f6,24
 1008a4c:	6165                	addi	sp,sp,112
 1008a4e:	6c72                	ld	s8,280(sp)
 1008a50:	5f79                	li	t5,-2
 1008a52:	6e69                	lui	t3,0x1a
 1008a54:	7469                	lui	s0,0xffffa
 1008a56:	2928                	fld	fa0,80(a0)
 1008a58:	6620                	ld	s0,72(a2)
 1008a5a:	6961                	lui	s2,0x18
 1008a5c:	656c                	ld	a1,200(a0)
 1008a5e:	3a64                	fld	fs1,240(a2)
 1008a60:	2520                	fld	fs0,72(a0)
 1008a62:	0a64                	addi	s1,sp,284
 1008a64:	0000                	unimp
 1008a66:	0000                	unimp
 1008a68:	5f6c7073          	csrci	0x5f6,24
 1008a6c:	6f62                	ld	t5,24(sp)
 1008a6e:	7261                	lui	tp,0xffff8
 1008a70:	5f64                	lw	s1,124(a4)
 1008a72:	6e69                	lui	t3,0x1a
 1008a74:	7469                	lui	s0,0xffffa
 1008a76:	665f 2928 6620      	0x66202928665f
 1008a7c:	6961                	lui	s2,0x18
 1008a7e:	656c                	ld	a1,200(a0)
 1008a80:	3a64                	fld	fs1,240(a2)
 1008a82:	2520                	fld	fs0,72(a0)
 1008a84:	0a64                	addi	s1,sp,284
 1008a86:	0000                	unimp
 1008a88:	7254                	ld	a3,160(a2)
 1008a8a:	6979                	lui	s2,0x1e
 1008a8c:	676e                	ld	a4,216(sp)
 1008a8e:	7420                	ld	s0,104(s0)
 1008a90:	6f62206f          	j	102b186 <__spl_src_start+0x1e09e>
 1008a94:	6620746f          	jal	s0,10100f6 <__spl_src_start+0x300e>
 1008a98:	6f72                	ld	t5,280(sp)
 1008a9a:	206d                	0x206d
 1008a9c:	7325                	lui	t1,0xfffe9
 1008a9e:	000a                	c.slli	zero,0x2
 1008aa0:	3a4c5053          	0x3a4c5053
 1008aa4:	5520                	lw	s0,104(a0)
 1008aa6:	736e                	ld	t1,248(sp)
 1008aa8:	7075                	c.lui	zero,0xffffd
 1008aaa:	6f70                	ld	a2,216(a4)
 1008aac:	7472                	ld	s0,312(sp)
 1008aae:	6465                	lui	s0,0x19
 1008ab0:	4220                	lw	s0,64(a2)
 1008ab2:	20746f6f          	jal	t5,104f4b8 <__spl_src_start+0x423d0>
 1008ab6:	6544                	ld	s1,136(a0)
 1008ab8:	6976                	ld	s2,344(sp)
 1008aba:	0a216563          	bltu	sp,sp,1008b64 <__spl_start+0x7674>
 1008abe:	0000                	unimp
 1008ac0:	3a4c5053          	0x3a4c5053
 1008ac4:	6620                	ld	s0,72(a2)
 1008ac6:	6961                	lui	s2,0x18
 1008ac8:	656c                	ld	a1,200(a0)
 1008aca:	2064                	fld	fs1,192(s0)
 1008acc:	6f74                	ld	a3,216(a4)
 1008ace:	6220                	ld	s0,64(a2)
 1008ad0:	20746f6f          	jal	t5,104f4d6 <__spl_src_start+0x423ee>
 1008ad4:	7266                	ld	tp,120(sp)
 1008ad6:	61206d6f          	jal	s10,100f0e8 <__spl_src_start+0x2000>
 1008ada:	6c6c                	ld	a1,216(s0)
 1008adc:	6220                	ld	s0,64(a2)
 1008ade:	20746f6f          	jal	t5,104f4e4 <__spl_src_start+0x423fc>
 1008ae2:	6564                	ld	s1,200(a0)
 1008ae4:	6976                	ld	s2,344(sp)
 1008ae6:	0a736563          	bltu	t1,t2,1008b90 <__spl_start+0x76a0>
 1008aea:	0000                	unimp
 1008aec:	0000                	unimp
 1008aee:	0000                	unimp
 1008af0:	aaaaaaab          	0xaaaaaaab
 1008af4:	aaaa                	fsd	fa0,336(sp)
 1008af6:	aaaa                	fsd	fa0,336(sp)
 1008af8:	0000                	unimp
 1008afa:	89e8                	0x89e8
 1008afc:	2304                	fld	fs1,0(a4)
 1008afe:	cccd8ac7          	0xcccd8ac7
 1008b02:	cccc                	sw	a1,28(s1)
 1008b04:	cccc                	sw	a1,28(s1)
 1008b06:	cccc                	sw	a1,28(s1)
 1008b08:	eeeeeeef          	jal	t4,ff71f6 <_start-0x8e0a>
 1008b0c:	eeee                	sd	s11,344(sp)
 1008b0e:	eeee                	sd	s11,344(sp)
 1008b10:	f0f1                	bnez	s1,1008ad4 <__spl_start+0x75e4>
 1008b12:	f0f0                	sd	a2,224(s1)
 1008b14:	f0f0                	sd	a2,224(s1)
 1008b16:	f0f0                	sd	a2,224(s1)
 1008b18:	0101                	addi	sp,sp,0
 1008b1a:	0001                	nop
 1008b1c:	0101                	addi	sp,sp,0
 1008b1e:	0001                	nop
 1008b20:	6552                	ld	a0,272(sp)
 1008b22:	6f6d                	lui	t5,0x1b
 1008b24:	6976                	ld	s2,344(sp)
 1008b26:	676e                	ld	a4,216(sp)
 1008b28:	4d20                	lw	s0,88(a0)
 1008b2a:	4454                	lw	a3,12(s0)
 1008b2c:	6420                	ld	s0,72(s0)
 1008b2e:	7665                	lui	a2,0xffff9
 1008b30:	6369                	lui	t1,0x1a
 1008b32:	2065                	0x2065
 1008b34:	20642523          	sw	t1,522(s0) # 1920a <_start-0xfe6df6>
 1008b38:	2528                	fld	fa0,72(a0)
 1008b3a:	77202973          	csrr	s2,0x772
 1008b3e:	7469                	lui	s0,0xffffa
 1008b40:	2068                	fld	fa0,192(s0)
 1008b42:	7375                	lui	t1,0xffffd
 1008b44:	2065                	0x2065
 1008b46:	6e756f63          	bltu	a0,t2,1009244 <__spl_start+0x7d54>
 1008b4a:	2074                	fld	fa3,192(s0)
 1008b4c:	6425                	lui	s0,0x9
 1008b4e:	000a                	c.slli	zero,0x2
 1008b50:	6f6c632f          	0x6f6c632f
 1008b54:	00736b63          	bltu	t1,t2,1008b6a <__spl_start+0x767a>
 1008b58:	7269662f          	0x7269662f
 1008b5c:	776d                	lui	a4,0xffffb
 1008b5e:	7261                	lui	tp,0xffff8
 1008b60:	0065                	c.nop	25
 1008b62:	0000                	unimp
 1008b64:	0000                	unimp
 1008b66:	0000                	unimp
 1008b68:	6974                	ld	a3,208(a0)
 1008b6a:	742d6b63          	bltu	s10,sp,10092c0 <__spl_start+0x7dd0>
 1008b6e:	6d69                	lui	s10,0x1a
 1008b70:	7265                	lui	tp,0xffff9
 1008b72:	0000                	unimp
 1008b74:	0000                	unimp
 1008b76:	0000                	unimp
 1008b78:	6572                	ld	a0,280(sp)
 1008b7a:	74746573          	csrrsi	a0,0x747,8
 1008b7e:	6e69                	lui	t3,0x1a
 1008b80:	2e2e2067          	0x2e2e2067
 1008b84:	0a2e                	slli	s4,s4,0xb
 1008b86:	0000                	unimp
 1008b88:	6572                	ld	a0,280(sp)
 1008b8a:	20746573          	csrrsi	a0,0x207,8
 1008b8e:	6f6e                	ld	t5,216(sp)
 1008b90:	2074                	fld	fa3,192(s0)
 1008b92:	70707573          	csrrci	a0,0x707,0
 1008b96:	6574726f          	jal	tp,10509ec <__spl_src_start+0x43904>
 1008b9a:	2064                	fld	fs1,192(s0)
 1008b9c:	6579                	lui	a0,0x1e
 1008b9e:	0a74                	addi	a3,sp,284
	...
 1008ba8:	64646123          	0x64646123
 1008bac:	6572                	ld	a0,280(sp)
 1008bae:	632d7373          	csrrci	t1,0x632,26
 1008bb2:	6c65                	lui	s8,0x19
 1008bb4:	736c                	ld	a1,224(a4)
 1008bb6:	0000                	unimp
 1008bb8:	7325                	lui	t1,0xfffe9
 1008bba:	203a                	fld	ft0,392(sp)
 1008bbc:	7325                	lui	t1,0xfffe9
 1008bbe:	203a                	fld	ft0,392(sp)
 1008bc0:	7325                	lui	t1,0xfffe9
 1008bc2:	000a                	c.slli	zero,0x2
 1008bc4:	0000                	unimp
 1008bc6:	0000                	unimp
 1008bc8:	7325                	lui	t1,0xfffe9
 1008bca:	203a                	fld	ft0,392(sp)
 1008bcc:	756e                	ld	a0,248(sp)
 1008bce:	206d                	0x206d
 1008bd0:	6162                	ld	sp,24(sp)
 1008bd2:	6b6e                	ld	s6,216(sp)
 1008bd4:	64252073          	csrs	0x642,a0
 1008bd8:	6520                	ld	s0,72(a0)
 1008bda:	6378                	ld	a4,192(a4)
 1008bdc:	6565                	lui	a0,0x19
 1008bde:	7364                	ld	s1,224(a4)
 1008be0:	6820                	ld	s0,80(s0)
 1008be2:	7261                	lui	tp,0xffff8
 1008be4:	6364                	ld	s1,192(a4)
 1008be6:	6465646f          	jal	s0,105f22c <__spl_src_start+0x52144>
 1008bea:	6c20                	ld	s0,88(s0)
 1008bec:	6d69                	lui	s10,0x1a
 1008bee:	7469                	lui	s0,0xffffa
 1008bf0:	2520                	fld	fs0,72(a0)
 1008bf2:	2e64                	fld	fs1,216(a2)
 1008bf4:	5220                	lw	s0,96(a2)
 1008bf6:	6365                	lui	t1,0x19
 1008bf8:	69706d6f          	jal	s10,100fa8e <__spl_src_start+0x29a6>
 1008bfc:	656c                	ld	a1,200(a0)
 1008bfe:	7720                	ld	s0,104(a4)
 1008c00:	7469                	lui	s0,0xffffa
 1008c02:	2068                	fld	fa0,192(s0)
 1008c04:	6968                	ld	a0,208(a0)
 1008c06:	72656867          	0x72656867
 1008c0a:	4d20                	lw	s0,88(a0)
 1008c0c:	4d45                	li	s10,17
 1008c0e:	5f59524f          	fnmadd.q	ft4,fs2,fs5,fa1,unknown
 1008c12:	4142                	lw	sp,16(sp)
 1008c14:	4b4e                	lw	s6,208(sp)
 1008c16:	414d5f53          	0x414d5f53
 1008c1a:	3f58                	fld	fa4,184(a4)
 1008c1c:	000a                	c.slli	zero,0x2
 1008c1e:	0000                	unimp
 1008c20:	7325                	lui	t1,0xfffe9
 1008c22:	203a                	fld	ft0,392(sp)
 1008c24:	7325                	lui	t1,0xfffe9
 1008c26:	000a                	c.slli	zero,0x2
 1008c28:	656d                	lui	a0,0x1b
 1008c2a:	6f6d                	lui	t5,0x1b
 1008c2c:	7972                	ld	s2,312(sp)
 1008c2e:	0000                	unimp
 1008c30:	6564                	ld	s1,200(a0)
 1008c32:	6976                	ld	s2,344(sp)
 1008c34:	745f6563          	bltu	t5,t0,100937e <__spl_start+0x7e8e>
 1008c38:	7079                	c.lui	zero,0xffffe
 1008c3a:	0065                	c.nop	25
 1008c3c:	0000                	unimp
 1008c3e:	0000                	unimp
 1008c40:	4e524157          	0x4e524157
 1008c44:	4e49                	li	t3,18
 1008c46:	63203a47          	fmsub.d	fs4,ft0,fs2,fa2,rup
 1008c4a:	646c756f          	jal	a0,10d0290 <__spl_src_start+0xc31a8>
 1008c4e:	6e20                	ld	s0,88(a2)
 1008c50:	7320746f          	jal	s0,1010382 <__spl_src_start+0x329a>
 1008c54:	7465                	lui	s0,0xffff9
 1008c56:	2520                	fld	fs0,72(a0)
 1008c58:	73252073          	csrs	0x732,a0
 1008c5c:	0a2e                	slli	s4,s4,0xb
 1008c5e:	0000                	unimp
 1008c60:	696c612f          	0x696c612f
 1008c64:	7361                	lui	t1,0xffff8
 1008c66:	7365                	lui	t1,0xffff9
	...
 1008c70:	6966                	ld	s2,88(sp)
 1008c72:	2d74                	fld	fa3,216(a0)
 1008c74:	6d69                	lui	s10,0x1a
 1008c76:	6761                	lui	a4,0x18
 1008c78:	7365                	lui	t1,0xffff9
 1008c7a:	0000                	unimp
 1008c7c:	0000                	unimp
 1008c7e:	0000                	unimp
 1008c80:	6f6c                	ld	a1,216(a4)
 1008c82:	6461                	lui	s0,0x18
 1008c84:	0000                	unimp
 1008c86:	0000                	unimp
 1008c88:	6e65                	lui	t3,0x19
 1008c8a:	7274                	ld	a3,224(a2)
 1008c8c:	0079                	c.nop	30
 1008c8e:	0000                	unimp
 1008c90:	7a697323          	0x7a697323
 1008c94:	2d65                	addiw	s10,s10,25
 1008c96:	6c6c6563          	bltu	s8,t1,1009360 <__spl_start+0x7e70>
 1008c9a:	00000073          	ecall
 1008c9e:	0000                	unimp
 1008ca0:	763c                	ld	a5,104(a2)
 1008ca2:	6c61                	lui	s8,0x18
 1008ca4:	6469                	lui	s0,0x1a
 1008ca6:	6f20                	ld	s0,88(a4)
 1008ca8:	6666                	ld	a2,88(sp)
 1008caa:	2f746573          	csrrsi	a0,0x2f7,8
 1008cae:	656c                	ld	a1,200(a0)
 1008cb0:	676e                	ld	a4,216(sp)
 1008cb2:	6874                	ld	a3,208(s0)
 1008cb4:	003e                	c.slli	zero,0xf
 1008cb6:	0000                	unimp
 1008cb8:	6e3c                	ld	a5,88(a2)
 1008cba:	7265206f          	j	105b3e0 <__spl_src_start+0x4e2f8>
 1008cbe:	6f72                	ld	t5,280(sp)
 1008cc0:	3e72                	fld	ft8,312(sp)
 1008cc2:	0000                	unimp
 1008cc4:	0000                	unimp
 1008cc6:	0000                	unimp
 1008cc8:	753c                	ld	a5,104(a0)
 1008cca:	6b6e                	ld	s6,216(sp)
 1008ccc:	6f6e                	ld	t5,216(sp)
 1008cce:	65206e77          	0x65206e77
 1008cd2:	7272                	ld	tp,312(sp)
 1008cd4:	003e726f          	jal	tp,10f04d6 <__spl_src_start+0xe33ee>
 1008cd8:	6f68632f          	0x6f68632f
 1008cdc:	006e6573          	csrrsi	a0,0x6,28
 1008ce0:	6e6f632f          	0x6e6f632f
 1008ce4:	6966                	ld	s2,88(sp)
 1008ce6:	74730067          	jr	1863(t1) # ffffffffffff9747 <__soc_ctrl_scratch1+0xfffffffffdff972f>
 1008cea:	7461                	lui	s0,0xffff8
 1008cec:	7375                	lui	t1,0xffffd
 1008cee:	0000                	unimp
 1008cf0:	79616b6f          	jal	s6,101f486 <__spl_src_start+0x1239e>
 1008cf4:	0000                	unimp
 1008cf6:	0000                	unimp
 1008cf8:	694d                	lui	s2,0x13
 1008cfa:	6e697373          	csrrci	t1,0x6e6,18
 1008cfe:	54442067          	0x54442067
 1008d02:	0a42                	slli	s4,s4,0x10
 1008d04:	0000                	unimp
 1008d06:	0000                	unimp
 1008d08:	6e6f632f          	0x6e6f632f
 1008d0c:	6966                	ld	s2,88(sp)
 1008d0e:	61727567          	0x61727567
 1008d12:	6974                	ld	a3,208(a0)
 1008d14:	00736e6f          	jal	t3,103f51a <__spl_src_start+0x32432>
 1008d18:	6564                	ld	s1,200(a0)
 1008d1a:	6166                	ld	sp,88(sp)
 1008d1c:	6c75                	lui	s8,0x1d
 1008d1e:	0074                	addi	a3,sp,12
 1008d20:	6564                	ld	s1,200(a0)
 1008d22:	69726373          	csrrsi	t1,0x697,4
 1008d26:	7470                	ld	a2,232(s0)
 1008d28:	6f69                	lui	t5,0x1a
 1008d2a:	006e                	c.slli	zero,0x1b
 1008d2c:	0000                	unimp
 1008d2e:	0000                	unimp
 1008d30:	7325                	lui	t1,0xfffe9
 1008d32:	203a                	fld	ft0,392(sp)
 1008d34:	694d                	lui	s2,0x13
 1008d36:	6e697373          	csrrci	t1,0x6e6,18
 1008d3a:	44462067          	0x44462067
 1008d3e:	2054                	fld	fa3,128(s0)
 1008d40:	6564                	ld	s1,200(a0)
 1008d42:	69726373          	csrrsi	t1,0x697,4
 1008d46:	7470                	ld	a2,232(s0)
 1008d48:	6f69                	lui	t5,0x1a
 1008d4a:	206e                	fld	ft0,216(sp)
 1008d4c:	6e69                	lui	t3,0x1a
 1008d4e:	4420                	lw	s0,72(s0)
 1008d50:	4254                	lw	a3,4(a2)
 1008d52:	000a                	c.slli	zero,0x2
 1008d54:	0000                	unimp
 1008d56:	0000                	unimp
 1008d58:	6e55                	lui	t3,0x15
 1008d5a:	70707573          	csrrci	a0,0x707,0
 1008d5e:	6574726f          	jal	tp,1050bb4 <__spl_src_start+0x43acc>
 1008d62:	2064                	fld	fs1,192(s0)
 1008d64:	7325                	lui	t1,0xfffe9
 1008d66:	6120                	ld	s0,64(a0)
 1008d68:	6464                	ld	s1,200(s0)
 1008d6a:	6572                	ld	a0,280(sp)
 1008d6c:	73207373          	csrrci	t1,0x732,0
 1008d70:	7a69                	lui	s4,0xffffa
 1008d72:	0a65                	addi	s4,s4,25
 1008d74:	0000                	unimp
 1008d76:	0000                	unimp
 1008d78:	6164                	ld	s1,192(a0)
 1008d7a:	6174                	ld	a3,192(a0)
 1008d7c:	0000                	unimp
 1008d7e:	0000                	unimp
 1008d80:	6164                	ld	s1,192(a0)
 1008d82:	6174                	ld	a3,192(a0)
 1008d84:	6f2d                	lui	t5,0xb
 1008d86:	6666                	ld	a2,88(sp)
 1008d88:	00746573          	csrrsi	a0,0x7,8
 1008d8c:	0000                	unimp
 1008d8e:	0000                	unimp
 1008d90:	6164                	ld	s1,192(a0)
 1008d92:	6174                	ld	a3,192(a0)
 1008d94:	702d                	c.lui	zero,0xfffeb
 1008d96:	7469736f          	jal	t1,10a04dc <__spl_src_start+0x933f4>
 1008d9a:	6f69                	lui	t5,0x1a
 1008d9c:	006e                	c.slli	zero,0x1b
 1008d9e:	0000                	unimp
 1008da0:	6164                	ld	s1,192(a0)
 1008da2:	6174                	ld	a3,192(a0)
 1008da4:	732d                	lui	t1,0xfffeb
 1008da6:	7a69                	lui	s4,0xffffa
 1008da8:	0065                	c.nop	25
 1008daa:	0000                	unimp
 1008dac:	0000                	unimp
 1008dae:	0000                	unimp
 1008db0:	6c756f43          	0x6c756f43
 1008db4:	2064                	fld	fs1,192(s0)
 1008db6:	6f6e                	ld	t5,216(sp)
 1008db8:	2074                	fld	fa3,192(s0)
 1008dba:	6e69                	lui	t3,0x1a
 1008dbc:	7469                	lui	s0,0xffffa
 1008dbe:	6169                	addi	sp,sp,208
 1008dc0:	696c                	ld	a1,208(a0)
 1008dc2:	657a                	ld	a0,408(sp)
 1008dc4:	7420                	ld	s0,104(s0)
 1008dc6:	6d69                	lui	s10,0x1a
 1008dc8:	7265                	lui	tp,0xffff9
 1008dca:	2820                	fld	fs0,80(s0)
 1008dcc:	7265                	lui	tp,0xffff9
 1008dce:	2072                	fld	ft0,280(sp)
 1008dd0:	6425                	lui	s0,0x9
 1008dd2:	0a29                	addi	s4,s4,10
 1008dd4:	0000                	unimp
 1008dd6:	0000                	unimp
 1008dd8:	6c756f43          	0x6c756f43
 1008ddc:	2064                	fld	fs1,192(s0)
 1008dde:	6f6e                	ld	t5,216(sp)
 1008de0:	2074                	fld	fa3,192(s0)
 1008de2:	6572                	ld	a0,280(sp)
 1008de4:	6461                	lui	s0,0x18
 1008de6:	6320                	ld	s0,64(a4)
 1008de8:	746e756f          	jal	a0,10f052e <__spl_src_start+0xe3446>
 1008dec:	6620                	ld	s0,72(a2)
 1008dee:	6f72                	ld	t5,280(sp)
 1008df0:	206d                	0x206d
 1008df2:	6974                	ld	a3,208(a0)
 1008df4:	656d                	lui	a0,0x1b
 1008df6:	2072                	fld	ft0,280(sp)
 1008df8:	6528                	ld	a0,72(a0)
 1008dfa:	7272                	ld	tp,312(sp)
 1008dfc:	2520                	fld	fs0,72(a0)
 1008dfe:	2964                	fld	fs1,208(a0)
 1008e00:	000a                	c.slli	zero,0x2
 1008e02:	0000                	unimp
 1008e04:	0000                	unimp
 1008e06:	0000                	unimp
 1008e08:	6e6e6143          	fmadd.q	ft2,ft8,ft6,fa3,unknown
 1008e0c:	6320746f          	jal	s0,101043e <__spl_src_start+0x3356>
 1008e10:	656c                	ld	a1,200(a0)
 1008e12:	7261                	lui	tp,0xffff8
 1008e14:	4920                	lw	s0,80(a0)
 1008e16:	4950                	lw	a2,20(a0)
 1008e18:	6f20                	ld	s0,88(a4)
 1008e1a:	2066                	fld	ft0,88(sp)
 1008e1c:	6168                	ld	a0,192(a0)
 1008e1e:	7472                	ld	s0,312(sp)
 1008e20:	2520                	fld	fs0,72(a0)
 1008e22:	646c                	ld	a1,200(s0)
 1008e24:	2820                	fld	fs0,80(s0)
 1008e26:	7265                	lui	tp,0xffff9
 1008e28:	6f72                	ld	t5,280(sp)
 1008e2a:	2072                	fld	ft0,280(sp)
 1008e2c:	6425                	lui	s0,0x9
 1008e2e:	0a29                	addi	s4,s4,10
	...
 1008e38:	20232323          	sw	sp,518(t1) # fffffffffffeb206 <__soc_ctrl_scratch1+0xfffffffffdfeb1ee>
 1008e3c:	5245                	li	tp,-15
 1008e3e:	4f52                	lw	t5,20(sp)
 1008e40:	2052                	fld	ft0,272(sp)
 1008e42:	20232323          	sw	sp,518(t1)
 1008e46:	6c50                	ld	a2,152(s0)
 1008e48:	6165                	addi	sp,sp,112
 1008e4a:	52206573          	csrrsi	a0,0x522,0
 1008e4e:	5345                	li	t1,-15
 1008e50:	5445                	li	s0,-15
 1008e52:	7420                	ld	s0,104(s0)
 1008e54:	6568                	ld	a0,200(a0)
 1008e56:	6220                	ld	s0,64(a2)
 1008e58:	6472616f          	jal	sp,102fc9e <__spl_src_start+0x22bb6>
 1008e5c:	2320                	fld	fs0,64(a4)
 1008e5e:	000a2323          	sw	zero,6(s4) # ffffffffffffa006 <__soc_ctrl_scratch1+0xfffffffffdff9fee>
 1008e62:	0000                	unimp
 1008e64:	0000                	unimp
 1008e66:	0000                	unimp
 1008e68:	706d6f63          	bltu	s10,t1,1009586 <__spl_start+0x8096>
 1008e6c:	7461                	lui	s0,0xffff8
 1008e6e:	6269                	lui	tp,0x1a
 1008e70:	656c                	ld	a1,200(a0)
 1008e72:	0000                	unimp
 1008e74:	0000                	unimp
 1008e76:	0000                	unimp
 1008e78:	6572                	ld	a0,280(sp)
 1008e7a:	666f2d67          	0x666f2d67
 1008e7e:	7366                	ld	t1,120(sp)
 1008e80:	7465                	lui	s0,0xffff9
 1008e82:	0000                	unimp
 1008e84:	0000                	unimp
 1008e86:	0000                	unimp
 1008e88:	6572                	ld	a0,280(sp)
 1008e8a:	68732d67          	0x68732d67
 1008e8e:	6669                	lui	a2,0x1a
 1008e90:	0074                	addi	a3,sp,12
 1008e92:	0000                	unimp
 1008e94:	0000                	unimp
 1008e96:	0000                	unimp
 1008e98:	6572                	ld	a0,280(sp)
 1008e9a:	6f692d67          	0x6f692d67
 1008e9e:	772d                	lui	a4,0xfffeb
 1008ea0:	6469                	lui	s0,0x1a
 1008ea2:	6874                	ld	a3,208(s0)
 1008ea4:	0000                	unimp
 1008ea6:	0000                	unimp
 1008ea8:	636f6c63          	bltu	t5,s6,10094e0 <__spl_start+0x7ff0>
 1008eac:	72662d6b          	0x72662d6b
 1008eb0:	7165                	addi	sp,sp,-400
 1008eb2:	6575                	lui	a0,0x1d
 1008eb4:	636e                	ld	t1,216(sp)
 1008eb6:	0079                	c.nop	30
 1008eb8:	550a                	lw	a0,160(sp)
 1008eba:	422d                	li	tp,11
 1008ebc:	20746f6f          	jal	t5,104f8c2 <__spl_src_start+0x427da>
 1008ec0:	204c5053          	0x204c5053
 1008ec4:	3032                	fld	ft0,296(sp)
 1008ec6:	3132                	fld	ft2,296(sp)
 1008ec8:	302e                	fld	ft0,232(sp)
 1008eca:	4d282037          	lui	zero,0x4d282
 1008ece:	7961                	lui	s2,0xffff8
 1008ed0:	3020                	fld	fs0,96(s0)
 1008ed2:	2038                	fld	fa4,64(s0)
 1008ed4:	3032                	fld	ft0,296(sp)
 1008ed6:	3432                	fld	fs0,296(sp)
 1008ed8:	2d20                	fld	fs0,88(a0)
 1008eda:	3020                	fld	fs0,96(s0)
 1008edc:	3a39                	addiw	s4,s4,-18
 1008ede:	303a3433          	0x303a3433
 1008ee2:	302b2033          	0x302b2033
 1008ee6:	3030                	fld	fa2,96(s0)
 1008ee8:	2930                	fld	fa2,80(a0)
 1008eea:	000a                	c.slli	zero,0x2
 1008eec:	0000                	unimp
 1008eee:	0000                	unimp
 1008ef0:	6974                	ld	a3,208(a0)
 1008ef2:	656d                	lui	a0,0x1b
 1008ef4:	6162                	ld	sp,24(sp)
 1008ef6:	662d6573          	csrrsi	a0,0x662,26
 1008efa:	6572                	ld	a0,280(sp)
 1008efc:	7571                	lui	a0,0xffffc
 1008efe:	6e65                	lui	t3,0x19
 1008f00:	00007963          	bgeu	zero,zero,1008f12 <__spl_start+0x7a22>
 1008f04:	0000                	unimp
 1008f06:	0000                	unimp
 1008f08:	6972                	ld	s2,280(sp)
 1008f0a:	2c766373          	csrrsi	t1,0x2c7,12
 1008f0e:	7369                	lui	t1,0xffffa
 1008f10:	0061                	c.nop	24
 1008f12:	0000                	unimp
 1008f14:	0000                	unimp
 1008f16:	0000                	unimp
 1008f18:	6d6d                	lui	s10,0x1b
 1008f1a:	2d75                	addiw	s10,s10,29
 1008f1c:	7974                	ld	a3,240(a0)
 1008f1e:	6570                	ld	a2,200(a0)
	...
 1008f28:	2d69                	addiw	s10,s10,26
 1008f2a:	68636163          	bltu	t1,t1,10095ac <__spl_start+0x80bc>
 1008f2e:	2d65                	addiw	s10,s10,25
 1008f30:	657a6973          	csrrsi	s2,0x657,20
 1008f34:	0000                	unimp
 1008f36:	0000                	unimp
 1008f38:	2d64                	fld	fs1,216(a0)
 1008f3a:	68636163          	bltu	t1,t1,10095bc <__spl_start+0x80cc>
 1008f3e:	2d65                	addiw	s10,s10,25
 1008f40:	657a6973          	csrrsi	s2,0x657,20
 1008f44:	0000                	unimp
 1008f46:	0000                	unimp
 1008f48:	6f647473          	csrrci	s0,0x6f6,8
 1008f4c:	7475                	lui	s0,0xffffd
 1008f4e:	702d                	c.lui	zero,0xfffeb
 1008f50:	7461                	lui	s0,0xffff8
 1008f52:	0068                	addi	a0,sp,12
 1008f54:	0000                	unimp
 1008f56:	0000                	unimp
 1008f58:	736e6f63          	bltu	t3,s6,1009696 <__spl_start+0x81a6>
 1008f5c:	00656c6f          	jal	s8,105ef62 <__spl_src_start+0x51e7a>
 1008f60:	6f4e                	ld	t5,208(sp)
 1008f62:	7320                	ld	s0,96(a4)
 1008f64:	7265                	lui	tp,0xffff9
 1008f66:	6169                	addi	sp,sp,208
 1008f68:	206c                	fld	fa1,192(s0)
 1008f6a:	7264                	ld	s1,224(a2)
 1008f6c:	7669                	lui	a2,0xffffa
 1008f6e:	7265                	lui	tp,0xffff9
 1008f70:	6620                	ld	s0,72(a2)
 1008f72:	646e756f          	jal	a0,10f05b8 <__spl_src_start+0xe34d0>
 1008f76:	0000                	unimp
 1008f78:	6172                	ld	sp,280(sp)
 1008f7a:	676e                	ld	a4,216(sp)
 1008f7c:	7365                	lui	t1,0xffff9
 1008f7e:	0000                	unimp
 1008f80:	7570632f          	0x7570632f
 1008f84:	00000073          	ecall
 1008f88:	276e6143          	fmadd.q	ft2,ft8,fs6,ft4,unknown
 1008f8c:	2074                	fld	fa3,192(s0)
 1008f8e:	6966                	ld	s2,88(sp)
 1008f90:	646e                	ld	s0,216(sp)
 1008f92:	6320                	ld	s0,64(a4)
 1008f94:	7570                	ld	a2,232(a0)
 1008f96:	6f6e2073          	csrs	0x6f6,t3
 1008f9a:	6564                	ld	s1,200(a0)
 1008f9c:	0a21                	addi	s4,s4,8
 1008f9e:	0000                	unimp
 1008fa0:	6572                	ld	a0,280(sp)
 1008fa2:	00000067          	jr	zero # 0 <_start-0x1000000>
 1008fa6:	0000                	unimp
 1008fa8:	6148                	ld	a0,128(a0)
 1008faa:	7472                	ld	s0,312(sp)
 1008fac:	4920                	lw	s0,80(a0)
 1008fae:	2044                	fld	fs1,128(s0)
 1008fb0:	6425                	lui	s0,0x9
 1008fb2:	6920                	ld	s0,80(a0)
 1008fb4:	756f2073          	csrs	0x756,t5
 1008fb8:	2074                	fld	fa3,192(s0)
 1008fba:	7220666f          	jal	a2,100f6dc <__spl_src_start+0x25f4>
 1008fbe:	6e61                	lui	t3,0x18
 1008fc0:	202c6567          	0x202c6567
 1008fc4:	6e69                	lui	t3,0x1a
 1008fc6:	61657263          	bgeu	a0,s6,10095ca <__spl_start+0x80da>
 1008fca:	43206573          	csrrsi	a0,0x432,0
 1008fce:	49464e4f          	fnmadd.s	ft8,fa2,fs4,fs1,rmm
 1008fd2:	524e5f47          	fmsub.d	ft10,ft8,ft4,fa0,unknown
 1008fd6:	435f 5550 0a53      	0xa535550435f
 1008fdc:	0000                	unimp
 1008fde:	0000                	unimp
 1008fe0:	6e6e6143          	fmadd.q	ft2,ft8,ft6,fa3,unknown
 1008fe4:	7320746f          	jal	s0,1010716 <__spl_src_start+0x362e>
 1008fe8:	6e65                	lui	t3,0x19
 1008fea:	2064                	fld	fs1,192(s0)
 1008fec:	5049                	c.li	zero,-14
 1008fee:	2049                	0x2049
 1008ff0:	6f74                	ld	a3,216(a4)
 1008ff2:	6820                	ld	s0,80(s0)
 1008ff4:	7261                	lui	tp,0xffff8
 1008ff6:	2074                	fld	fa3,192(s0)
 1008ff8:	6425                	lui	s0,0x9
 1008ffa:	000a                	c.slli	zero,0x2
 1008ffc:	0000                	unimp
 1008ffe:	0000                	unimp
 1009000:	7325                	lui	t1,0xfffe9
 1009002:	2520                	fld	fs0,72(a0)
 1009004:	49203a73          	csrrc	s4,0x492,zero
 1009008:	766e                	ld	a2,248(sp)
 100900a:	6c61                	lui	s8,0x18
 100900c:	6469                	lui	s0,0x1a
 100900e:	6320                	ld	s0,64(a4)
 1009010:	64252073          	csrs	0x642,a0
 1009014:	2820                	fld	fs0,80(s0)
 1009016:	7265                	lui	tp,0xffff9
 1009018:	3d72                	fld	fs10,312(sp)
 100901a:	6425                	lui	s0,0x9
 100901c:	0a29                	addi	s4,s4,10
 100901e:	0000                	unimp
 1009020:	6f6e                	ld	t5,216(sp)
 1009022:	2572                	fld	fa0,280(sp)
 1009024:	0064                	addi	s1,sp,12
 1009026:	0000                	unimp
 1009028:	6146                	ld	sp,80(sp)
 100902a:	6c69                	lui	s8,0x1a
 100902c:	6465                	lui	s0,0x19
 100902e:	7420                	ld	s0,104(s0)
 1009030:	6e75206f          	j	105bf16 <__spl_src_start+0x4ee2e>
 1009034:	6572                	ld	a0,280(sp)
 1009036:	74736967          	0x74736967
 100903a:	7265                	lui	tp,0xffff9
 100903c:	4d20                	lw	s0,88(a0)
 100903e:	4454                	lw	a3,12(s0)
 1009040:	2520                	fld	fs0,72(a0)
 1009042:	6e612073          	csrs	0x6e6,sp
 1009046:	2064                	fld	fs1,192(s0)
 1009048:	6874                	ld	a3,208(s0)
 100904a:	2065                	0x2065
 100904c:	5f697073          	csrci	0x5f6,18
 1009050:	6c66                	ld	s8,88(sp)
 1009052:	7361                	lui	t1,0xffff8
 1009054:	2068                	fld	fa0,192(s0)
 1009056:	656a626f          	jal	tp,10af6ac <__spl_src_start+0xa25c4>
 100905a:	69207463          	bgeu	zero,s2,10096e2 <__spl_start+0x81f2>
 100905e:	6f672073          	csrs	0x6f6,a4
 1009062:	6e69                	lui	t3,0x1a
 1009064:	77612067          	0x77612067
 1009068:	7961                	lui	s2,0xffff8
 100906a:	203a                	fld	ft0,392(sp)
 100906c:	6f79                	lui	t5,0x1e
 100906e:	2775                	addiw	a4,a4,29
 1009070:	6572                	ld	a0,280(sp)
 1009072:	6920                	ld	s0,80(a0)
 1009074:	206e                	fld	ft0,216(sp)
 1009076:	6564                	ld	s1,200(a0)
 1009078:	7065                	c.lui	zero,0xffff9
 100907a:	7420                	ld	s0,104(s0)
 100907c:	6f72                	ld	t5,280(sp)
 100907e:	6275                	lui	tp,0x1d
 1009080:	656c                	ld	a1,200(a0)
 1009082:	0021                	c.nop	8
 1009084:	0000                	unimp
 1009086:	0000                	unimp
 1009088:	5f697073          	csrci	0x5f6,18
 100908c:	6c66                	ld	s8,88(sp)
 100908e:	7361                	lui	t1,0xffff8
 1009090:	0068                	addi	a0,sp,12
 1009092:	0000                	unimp
 1009094:	0000                	unimp
 1009096:	0000                	unimp
 1009098:	656a                	ld	a0,152(sp)
 100909a:	6564                	ld	s1,200(a0)
 100909c:	70735f63          	bge	t1,t2,10097ba <__spl_start+0x82ca>
 10090a0:	5f69                	li	t5,-6
 10090a2:	6f6e                	ld	t5,216(sp)
 10090a4:	0072                	c.slli	zero,0x1c
 10090a6:	0000                	unimp
 10090a8:	203a4653          	0x203a4653
 10090ac:	6146                	ld	sp,80(sp)
 10090ae:	6c69                	lui	s8,0x1a
 10090b0:	6465                	lui	s0,0x19
 10090b2:	7420                	ld	s0,104(s0)
 10090b4:	6573206f          	j	103bf0a <__spl_src_start+0x2ee22>
 10090b8:	2074                	fld	fa3,192(s0)
 10090ba:	7075                	c.lui	zero,0xffffd
 10090bc:	7320                	ld	s0,96(a4)
 10090be:	616c                	ld	a1,192(a0)
 10090c0:	6576                	ld	a0,344(sp)
 10090c2:	000a                	c.slli	zero,0x2
 10090c4:	0000                	unimp
 10090c6:	0000                	unimp
 10090c8:	6e49                	lui	t3,0x12
 10090ca:	6176                	ld	sp,344(sp)
 10090cc:	696c                	ld	a1,208(a0)
 10090ce:	2064                	fld	fs1,192(s0)
 10090d0:	7562                	ld	a0,56(sp)
 10090d2:	64252073          	csrs	0x642,a0
 10090d6:	2820                	fld	fs0,80(s0)
 10090d8:	7265                	lui	tp,0xffff9
 10090da:	3d72                	fld	fs10,312(sp)
 10090dc:	6425                	lui	s0,0x9
 10090de:	0a29                	addi	s4,s4,10
	...
 10090e8:	7325                	lui	t1,0xfffe9
 10090ea:	2520                	fld	fs0,72(a0)
 10090ec:	49203a73          	csrrc	s4,0x492,zero
 10090f0:	766e                	ld	a2,248(sp)
 10090f2:	6c61                	lui	s8,0x18
 10090f4:	6469                	lui	s0,0x1a
 10090f6:	6320                	ld	s0,64(a4)
 10090f8:	6968                	ld	a0,208(a0)
 10090fa:	2070                	fld	fa2,192(s0)
 10090fc:	656c6573          	csrrsi	a0,0x656,24
 1009100:	25207463          	bgeu	zero,s2,1009348 <__spl_start+0x7e58>
 1009104:	3a64                	fld	fs1,240(a2)
 1009106:	6425                	lui	s0,0x9
 1009108:	2820                	fld	fs0,80(s0)
 100910a:	7265                	lui	tp,0xffff9
 100910c:	3d72                	fld	fs10,312(sp)
 100910e:	6425                	lui	s0,0x9
 1009110:	0a29                	addi	s4,s4,10
 1009112:	0000                	unimp
 1009114:	0000                	unimp
 1009116:	0000                	unimp
 1009118:	0c0b1303          	lh	t1,192(s6)
 100911c:	bcbb3c3b          	0xbcbb3c3b
 1009120:	eceb6c6b          	0xeceb6c6b
 1009124:	0000                	unimp
 1009126:	0000                	unimp
 1009128:	471f 0000 0000      	0x471f
 100912e:	00000003          	lb	zero,0(zero) # 0 <_start-0x1000000>
 1009132:	0001                	nop
 1009134:	0040                	addi	s0,sp,4
 1009136:	0100                	addi	s0,sp,128
 1009138:	0000                	unimp
 100913a:	0000                	unimp
 100913c:	0001                	nop
 100913e:	0000                	unimp
 1009140:	471f 0001 0000      	0x1471f
 1009146:	00000003          	lb	zero,0(zero) # 0 <_start-0x1000000>
 100914a:	0001                	nop
 100914c:	0040                	addi	s0,sp,4
 100914e:	0100                	addi	s0,sp,128
 1009150:	0000                	unimp
 1009152:	0000                	unimp
 1009154:	0001                	nop
 1009156:	0000                	unimp
 1009158:	221f 0000 0000      	0x221f
 100915e:	00000003          	lb	zero,0(zero) # 0 <_start-0x1000000>
 1009162:	0001                	nop
 1009164:	0004                	0x4
 1009166:	0100                	addi	s0,sp,128
 1009168:	0000                	unimp
 100916a:	0000                	unimp
 100916c:	0001                	nop
 100916e:	0000                	unimp
 1009170:	231f 0000 0000      	0x231f
 1009176:	00000003          	lb	zero,0(zero) # 0 <_start-0x1000000>
 100917a:	0001                	nop
 100917c:	0008                	0x8
 100917e:	0100                	addi	s0,sp,128
 1009180:	0000                	unimp
 1009182:	0000                	unimp
 1009184:	0001                	nop
 1009186:	0000                	unimp
 1009188:	241f 0000 0000      	0x241f
 100918e:	00000003          	lb	zero,0(zero) # 0 <_start-0x1000000>
 1009192:	0001                	nop
 1009194:	0008                	0x8
 1009196:	0100                	addi	s0,sp,128
 1009198:	0000                	unimp
 100919a:	0000                	unimp
 100919c:	0001                	nop
 100919e:	0000                	unimp
 10091a0:	251f 0000 0000      	0x251f
 10091a6:	00000003          	lb	zero,0(zero) # 0 <_start-0x1000000>
 10091aa:	0001                	nop
 10091ac:	0010                	0x10
 10091ae:	0100                	addi	s0,sp,128
 10091b0:	0000                	unimp
 10091b2:	0000                	unimp
 10091b4:	0001                	nop
 10091b6:	0000                	unimp
 10091b8:	261f 0000 0000      	0x261f
 10091be:	00000003          	lb	zero,0(zero) # 0 <_start-0x1000000>
 10091c2:	0001                	nop
 10091c4:	0020                	addi	s0,sp,8
 10091c6:	0100                	addi	s0,sp,128
 10091c8:	0000                	unimp
 10091ca:	0000                	unimp
 10091cc:	0001                	nop
 10091ce:	0000                	unimp
 10091d0:	271f 0000 0000      	0x271f
 10091d6:	00000003          	lb	zero,0(zero) # 0 <_start-0x1000000>
 10091da:	0001                	nop
 10091dc:	0040                	addi	s0,sp,4
 10091de:	0100                	addi	s0,sp,128
 10091e0:	0000                	unimp
 10091e2:	0000                	unimp
 10091e4:	0001                	nop
 10091e6:	0000                	unimp
 10091e8:	281f 0000 0000      	0x281f
 10091ee:	00000003          	lb	zero,0(zero) # 0 <_start-0x1000000>
 10091f2:	0001                	nop
 10091f4:	0080                	addi	s0,sp,64
 10091f6:	0100                	addi	s0,sp,128
 10091f8:	0000                	unimp
 10091fa:	0000                	unimp
 10091fc:	0001                	nop
 10091fe:	0000                	unimp
 1009200:	421f 0016 0000      	0x16421f
 1009206:	00000003          	lb	zero,0(zero) # 0 <_start-0x1000000>
 100920a:	0001                	nop
 100920c:	0040                	addi	s0,sp,4
 100920e:	0100                	addi	s0,sp,128
 1009210:	0000                	unimp
 1009212:	0000                	unimp
 1009214:	0001                	nop
 1009216:	0000                	unimp
 1009218:	451f 0001 0000      	0x1451f
 100921e:	00000003          	lb	zero,0(zero) # 0 <_start-0x1000000>
 1009222:	0001                	nop
 1009224:	0010                	0x10
 1009226:	0100                	addi	s0,sp,128
 1009228:	0000                	unimp
 100922a:	0000                	unimp
 100922c:	0001                	nop
 100922e:	0000                	unimp
 1009230:	301c                	fld	fa5,32(s0)
 1009232:	0016                	c.slli	zero,0x5
 1009234:	0000                	unimp
 1009236:	00000003          	lb	zero,0(zero) # 0 <_start-0x1000000>
 100923a:	0001                	nop
 100923c:	0040                	addi	s0,sp,4
 100923e:	0100                	addi	s0,sp,128
	...
 1009248:	301c                	fld	fa5,32(s0)
 100924a:	00000017          	auipc	zero,0x0
 100924e:	00000003          	lb	zero,0(zero) # 0 <_start-0x1000000>
 1009252:	0001                	nop
 1009254:	0080                	addi	s0,sp,64
 1009256:	0100                	addi	s0,sp,128
 1009258:	0000                	unimp
 100925a:	0000                	unimp
 100925c:	0001                	nop
 100925e:	0000                	unimp
 1009260:	701c                	ld	a5,32(s0)
 1009262:	0018                	0x18
 1009264:	0000                	unimp
 1009266:	00000003          	lb	zero,0(zero) # 0 <_start-0x1000000>
 100926a:	0001                	nop
 100926c:	0100                	addi	s0,sp,128
 100926e:	0100                	addi	s0,sp,128
	...
 1009278:	381c                	fld	fa5,48(s0)
 100927a:	00000017          	auipc	zero,0x0
 100927e:	00000003          	lb	zero,0(zero) # 0 <_start-0x1000000>
 1009282:	0001                	nop
 1009284:	0080                	addi	s0,sp,64
 1009286:	0100                	addi	s0,sp,128
 1009288:	0000                	unimp
 100928a:	0000                	unimp
 100928c:	0001                	nop
 100928e:	0000                	unimp
 1009290:	40c8                	lw	a0,4(s1)
 1009292:	0015                	c.nop	5
 1009294:	0000                	unimp
 1009296:	00000003          	lb	zero,0(zero) # 0 <_start-0x1000000>
 100929a:	0001                	nop
 100929c:	0020                	addi	s0,sp,8
 100929e:	0100                	addi	s0,sp,128
 10092a0:	0000                	unimp
 10092a2:	0000                	unimp
 10092a4:	0361                	addi	t1,t1,24
 10092a6:	0000                	unimp
 10092a8:	40c8                	lw	a0,4(s1)
 10092aa:	0016                	c.slli	zero,0x5
 10092ac:	0000                	unimp
 10092ae:	00000003          	lb	zero,0(zero) # 0 <_start-0x1000000>
 10092b2:	0001                	nop
 10092b4:	0040                	addi	s0,sp,4
 10092b6:	0100                	addi	s0,sp,128
 10092b8:	0000                	unimp
 10092ba:	0000                	unimp
 10092bc:	0361                	addi	t1,t1,24
 10092be:	0000                	unimp
 10092c0:	60c8                	ld	a0,128(s1)
 10092c2:	0016                	c.slli	zero,0x5
 10092c4:	0000                	unimp
 10092c6:	00000003          	lb	zero,0(zero) # 0 <_start-0x1000000>
 10092ca:	0001                	nop
 10092cc:	0040                	addi	s0,sp,4
 10092ce:	0100                	addi	s0,sp,128
 10092d0:	0000                	unimp
 10092d2:	0000                	unimp
 10092d4:	0361                	addi	t1,t1,24
 10092d6:	0000                	unimp
 10092d8:	40c8                	lw	a0,4(s1)
 10092da:	00000017          	auipc	zero,0x0
 10092de:	00000003          	lb	zero,0(zero) # 0 <_start-0x1000000>
 10092e2:	0001                	nop
 10092e4:	0080                	addi	s0,sp,64
 10092e6:	0100                	addi	s0,sp,128
 10092e8:	0000                	unimp
 10092ea:	0000                	unimp
 10092ec:	0361                	addi	t1,t1,24
 10092ee:	0000                	unimp
 10092f0:	60c8                	ld	a0,128(s1)
 10092f2:	00000017          	auipc	zero,0x0
 10092f6:	00000003          	lb	zero,0(zero) # 0 <_start-0x1000000>
 10092fa:	0001                	nop
 10092fc:	0080                	addi	s0,sp,64
 10092fe:	0100                	addi	s0,sp,128
 1009300:	0000                	unimp
 1009302:	0000                	unimp
 1009304:	0361                	addi	t1,t1,24
 1009306:	0000                	unimp
 1009308:	40c8                	lw	a0,4(s1)
 100930a:	0018                	0x18
 100930c:	0000                	unimp
 100930e:	00000003          	lb	zero,0(zero) # 0 <_start-0x1000000>
 1009312:	0001                	nop
 1009314:	0100                	addi	s0,sp,128
 1009316:	0100                	addi	s0,sp,128
 1009318:	0000                	unimp
 100931a:	0000                	unimp
 100931c:	0361                	addi	t1,t1,24
 100931e:	0000                	unimp
 1009320:	60c8                	ld	a0,128(s1)
 1009322:	0018                	0x18
 1009324:	0000                	unimp
 1009326:	00000003          	lb	zero,0(zero) # 0 <_start-0x1000000>
 100932a:	0001                	nop
 100932c:	0100                	addi	s0,sp,128
 100932e:	0100                	addi	s0,sp,128
 1009330:	0000                	unimp
 1009332:	0000                	unimp
 1009334:	0321                	addi	t1,t1,8
 1009336:	0000                	unimp
 1009338:	409d                	li	ra,7
 100933a:	00000013          	nop
 100933e:	00000003          	lb	zero,0(zero) # 0 <_start-0x1000000>
 1009342:	0001                	nop
 1009344:	0008                	0x8
 1009346:	0100                	addi	s0,sp,128
 1009348:	0000                	unimp
 100934a:	0000                	unimp
 100934c:	0061                	c.nop	24
 100934e:	0000                	unimp
 1009350:	609d                	lui	ra,0x7
 1009352:	0016                	c.slli	zero,0x5
 1009354:	0000                	unimp
 1009356:	00000003          	lb	zero,0(zero) # 0 <_start-0x1000000>
 100935a:	0001                	nop
 100935c:	0040                	addi	s0,sp,4
 100935e:	0100                	addi	s0,sp,128
	...
 1009368:	609d                	lui	ra,0x7
 100936a:	00000017          	auipc	zero,0x0
 100936e:	00000003          	lb	zero,0(zero) # 0 <_start-0x1000000>
 1009372:	0001                	nop
 1009374:	0080                	addi	s0,sp,64
 1009376:	0100                	addi	s0,sp,128
	...
 1009380:	609d                	lui	ra,0x7
 1009382:	0018                	0x18
 1009384:	0000                	unimp
 1009386:	00000003          	lb	zero,0(zero) # 0 <_start-0x1000000>
 100938a:	0001                	nop
 100938c:	0100                	addi	s0,sp,128
 100938e:	0100                	addi	s0,sp,128
 1009390:	0000                	unimp
 1009392:	0000                	unimp
 1009394:	0021                	c.nop	8
 1009396:	0000                	unimp
 1009398:	609d                	lui	ra,0x7
 100939a:	0019                	c.nop	6
 100939c:	0000                	unimp
 100939e:	00000003          	lb	zero,0(zero) # 0 <_start-0x1000000>
 10093a2:	0001                	nop
 10093a4:	0200                	addi	s0,sp,256
 10093a6:	0100                	addi	s0,sp,128
 10093a8:	0000                	unimp
 10093aa:	0000                	unimp
 10093ac:	0021                	c.nop	8
 10093ae:	0000                	unimp
 10093b0:	709d                	lui	ra,0xfffe7
 10093b2:	0016                	c.slli	zero,0x5
 10093b4:	0000                	unimp
 10093b6:	00000003          	lb	zero,0(zero) # 0 <_start-0x1000000>
 10093ba:	0001                	nop
 10093bc:	0040                	addi	s0,sp,4
 10093be:	0100                	addi	s0,sp,128
 10093c0:	0000                	unimp
 10093c2:	0000                	unimp
 10093c4:	0061                	c.nop	24
 10093c6:	0000                	unimp
 10093c8:	709d                	lui	ra,0xfffe7
 10093ca:	00000017          	auipc	zero,0x0
 10093ce:	00000003          	lb	zero,0(zero) # 0 <_start-0x1000000>
 10093d2:	0001                	nop
 10093d4:	0080                	addi	s0,sp,64
 10093d6:	0100                	addi	s0,sp,128
 10093d8:	0000                	unimp
 10093da:	0000                	unimp
 10093dc:	0061                	c.nop	24
 10093de:	0000                	unimp
 10093e0:	709d                	lui	ra,0xfffe7
 10093e2:	0018                	0x18
 10093e4:	0000                	unimp
 10093e6:	00000003          	lb	zero,0(zero) # 0 <_start-0x1000000>
 10093ea:	0001                	nop
 10093ec:	0100                	addi	s0,sp,128
 10093ee:	0100                	addi	s0,sp,128
 10093f0:	0000                	unimp
 10093f2:	0000                	unimp
 10093f4:	0061                	c.nop	24
 10093f6:	0000                	unimp
 10093f8:	709d                	lui	ra,0xfffe7
 10093fa:	0019                	c.nop	6
 10093fc:	0000                	unimp
 10093fe:	00000003          	lb	zero,0(zero) # 0 <_start-0x1000000>
 1009402:	0001                	nop
 1009404:	0200                	addi	s0,sp,256
 1009406:	0100                	addi	s0,sp,128
 1009408:	0000                	unimp
 100940a:	0000                	unimp
 100940c:	0861                	addi	a6,a6,24
 100940e:	0000                	unimp
 1009410:	20c2                	fld	ft1,16(sp)
 1009412:	0012                	c.slli	zero,0x4
 1009414:	0000                	unimp
 1009416:	00000003          	lb	zero,0(zero) # 0 <_start-0x1000000>
 100941a:	0001                	nop
 100941c:	0004                	0x4
 100941e:	0100                	addi	s0,sp,128
 1009420:	0000                	unimp
 1009422:	0000                	unimp
 1009424:	0001                	nop
 1009426:	0000                	unimp
 1009428:	20c2                	fld	ft1,16(sp)
 100942a:	00000013          	nop
 100942e:	00000003          	lb	zero,0(zero) # 0 <_start-0x1000000>
 1009432:	0001                	nop
 1009434:	0008                	0x8
 1009436:	0100                	addi	s0,sp,128
 1009438:	0000                	unimp
 100943a:	0000                	unimp
 100943c:	0001                	nop
 100943e:	0000                	unimp
 1009440:	20c2                	fld	ft1,16(sp)
 1009442:	0014                	0x14
 1009444:	0000                	unimp
 1009446:	00000003          	lb	zero,0(zero) # 0 <_start-0x1000000>
 100944a:	0001                	nop
 100944c:	0010                	0x10
 100944e:	0100                	addi	s0,sp,128
	...
 1009458:	20c2                	fld	ft1,16(sp)
 100945a:	0015                	c.nop	5
 100945c:	0000                	unimp
 100945e:	00000003          	lb	zero,0(zero) # 0 <_start-0x1000000>
 1009462:	0001                	nop
 1009464:	0020                	addi	s0,sp,8
 1009466:	0100                	addi	s0,sp,128
 1009468:	0000                	unimp
 100946a:	0000                	unimp
 100946c:	0001                	nop
 100946e:	0000                	unimp
 1009470:	20c2                	fld	ft1,16(sp)
 1009472:	0016                	c.slli	zero,0x5
 1009474:	0000                	unimp
 1009476:	00000003          	lb	zero,0(zero) # 0 <_start-0x1000000>
 100947a:	0001                	nop
 100947c:	0040                	addi	s0,sp,4
 100947e:	0100                	addi	s0,sp,128
 1009480:	0000                	unimp
 1009482:	0000                	unimp
 1009484:	0001                	nop
 1009486:	0000                	unimp
 1009488:	20c2                	fld	ft1,16(sp)
 100948a:	00000017          	auipc	zero,0x0
 100948e:	00000003          	lb	zero,0(zero) # 0 <_start-0x1000000>
 1009492:	0001                	nop
 1009494:	0080                	addi	s0,sp,64
 1009496:	0100                	addi	s0,sp,128
 1009498:	0000                	unimp
 100949a:	0000                	unimp
 100949c:	0001                	nop
 100949e:	0000                	unimp
 10094a0:	25c2                	fld	fa1,16(sp)
 10094a2:	0032                	c.slli	zero,0xc
 10094a4:	0000                	unimp
 10094a6:	00000003          	lb	zero,0(zero) # 0 <_start-0x1000000>
 10094aa:	0001                	nop
 10094ac:	0004                	0x4
 10094ae:	0100                	addi	s0,sp,128
 10094b0:	0000                	unimp
 10094b2:	0000                	unimp
 10094b4:	0001                	nop
 10094b6:	0000                	unimp
 10094b8:	25c2                	fld	fa1,16(sp)
 10094ba:	0035                	c.nop	13
 10094bc:	0000                	unimp
 10094be:	00000003          	lb	zero,0(zero) # 0 <_start-0x1000000>
 10094c2:	0001                	nop
 10094c4:	0020                	addi	s0,sp,8
 10094c6:	0100                	addi	s0,sp,128
 10094c8:	0000                	unimp
 10094ca:	0000                	unimp
 10094cc:	0001                	nop
 10094ce:	0000                	unimp
 10094d0:	25c2                	fld	fa1,16(sp)
 10094d2:	0036                	c.slli	zero,0xd
 10094d4:	0000                	unimp
 10094d6:	10000003          	lb	zero,256(zero) # 100 <_start-0xffff00>
 10094da:	0000                	unimp
 10094dc:	0400                	addi	s0,sp,512
 10094de:	0100                	addi	s0,sp,128
 10094e0:	0000                	unimp
 10094e2:	0000                	unimp
 10094e4:	0001                	nop
 10094e6:	0000                	unimp
 10094e8:	25c2                	fld	fa1,16(sp)
 10094ea:	00000037          	lui	zero,0x0
 10094ee:	00000003          	lb	zero,0(zero) # 0 <_start-0x1000000>
 10094f2:	0001                	nop
 10094f4:	0080                	addi	s0,sp,64
 10094f6:	0100                	addi	s0,sp,128
 10094f8:	0000                	unimp
 10094fa:	0000                	unimp
 10094fc:	0001                	nop
 10094fe:	0000                	unimp
 1009500:	20c2                	fld	ft1,16(sp)
 1009502:	0018                	0x18
 1009504:	0000                	unimp
 1009506:	00000003          	lb	zero,0(zero) # 0 <_start-0x1000000>
 100950a:	0001                	nop
 100950c:	0100                	addi	s0,sp,128
 100950e:	0100                	addi	s0,sp,128
 1009510:	0000                	unimp
 1009512:	0000                	unimp
 1009514:	0001                	nop
 1009516:	0000                	unimp
 1009518:	25c2                	fld	fa1,16(sp)
 100951a:	0038                	addi	a4,sp,8
 100951c:	0000                	unimp
 100951e:	00000003          	lb	zero,0(zero) # 0 <_start-0x1000000>
 1009522:	0001                	nop
 1009524:	0100                	addi	s0,sp,128
 1009526:	0100                	addi	s0,sp,128
 1009528:	0000                	unimp
 100952a:	0000                	unimp
 100952c:	0001                	nop
 100952e:	0000                	unimp
 1009530:	26c2                	fld	fa3,16(sp)
 1009532:	0018                	0x18
 1009534:	0000                	unimp
 1009536:	00000003          	lb	zero,0(zero) # 0 <_start-0x1000000>
 100953a:	0001                	nop
 100953c:	0100                	addi	s0,sp,128
 100953e:	0100                	addi	s0,sp,128
	...
 1009548:	20c2                	fld	ft1,16(sp)
 100954a:	0019                	c.nop	6
 100954c:	0000                	unimp
 100954e:	00000003          	lb	zero,0(zero) # 0 <_start-0x1000000>
 1009552:	0001                	nop
 1009554:	0200                	addi	s0,sp,256
 1009556:	0100                	addi	s0,sp,128
 1009558:	0000                	unimp
 100955a:	0000                	unimp
 100955c:	0060                	addi	s0,sp,12
 100955e:	0000                	unimp
 1009560:	25c2                	fld	fa1,16(sp)
 1009562:	0039                	c.nop	14
 1009564:	0000                	unimp
 1009566:	00000003          	lb	zero,0(zero) # 0 <_start-0x1000000>
 100956a:	0001                	nop
 100956c:	0200                	addi	s0,sp,256
 100956e:	0100                	addi	s0,sp,128
 1009570:	0000                	unimp
 1009572:	0000                	unimp
 1009574:	0801                	addi	a6,a6,0
 1009576:	0000                	unimp
 1009578:	26c2                	fld	fa3,16(sp)
 100957a:	0019                	c.nop	6
 100957c:	0000                	unimp
 100957e:	00000003          	lb	zero,0(zero) # 0 <_start-0x1000000>
 1009582:	0001                	nop
 1009584:	0200                	addi	s0,sp,256
 1009586:	0100                	addi	s0,sp,128
	...
 1009590:	20c2                	fld	ft1,16(sp)
 1009592:	001a                	c.slli	zero,0x6
 1009594:	0000                	unimp
 1009596:	00000003          	lb	zero,0(zero) # 0 <_start-0x1000000>
 100959a:	0001                	nop
 100959c:	0400                	addi	s0,sp,512
 100959e:	0100                	addi	s0,sp,128
 10095a0:	0000                	unimp
 10095a2:	0000                	unimp
 10095a4:	0860                	addi	s0,sp,28
 10095a6:	0000                	unimp
 10095a8:	25c2                	fld	fa1,16(sp)
 10095aa:	003a                	c.slli	zero,0xe
 10095ac:	0000                	unimp
 10095ae:	00000003          	lb	zero,0(zero) # 0 <_start-0x1000000>
 10095b2:	0001                	nop
 10095b4:	0400                	addi	s0,sp,512
 10095b6:	0100                	addi	s0,sp,128
 10095b8:	0000                	unimp
 10095ba:	0000                	unimp
 10095bc:	0861                	addi	a6,a6,24
 10095be:	0000                	unimp
 10095c0:	25c2                	fld	fa1,16(sp)
 10095c2:	003c                	addi	a5,sp,8
 10095c4:	0000                	unimp
 10095c6:	00000003          	lb	zero,0(zero) # 0 <_start-0x1000000>
 10095ca:	0001                	nop
 10095cc:	1000                	addi	s0,sp,32
 10095ce:	0100                	addi	s0,sp,128
 10095d0:	0000                	unimp
 10095d2:	0000                	unimp
 10095d4:	0861                	addi	a6,a6,24
 10095d6:	0000                	unimp
 10095d8:	20c2                	fld	ft1,16(sp)
 10095da:	0000001b          	sext.w	zero,zero
 10095de:	00000003          	lb	zero,0(zero) # 0 <_start-0x1000000>
 10095e2:	0001                	nop
 10095e4:	0800                	addi	s0,sp,16
 10095e6:	0100                	addi	s0,sp,128
 10095e8:	0000                	unimp
 10095ea:	0000                	unimp
 10095ec:	0061                	c.nop	24
 10095ee:	0000                	unimp
 10095f0:	24c2                	fld	fs1,16(sp)
 10095f2:	0015                	c.nop	5
 10095f4:	0000                	unimp
 10095f6:	00000003          	lb	zero,0(zero) # 0 <_start-0x1000000>
 10095fa:	0001                	nop
 10095fc:	0020                	addi	s0,sp,8
 10095fe:	0100                	addi	s0,sp,128
 1009600:	0000                	unimp
 1009602:	0000                	unimp
 1009604:	0841                	addi	a6,a6,16
 1009606:	0000                	unimp
 1009608:	28c2                	fld	fa7,16(sp)
 100960a:	00000017          	auipc	zero,0x0
 100960e:	00000003          	lb	zero,0(zero) # 0 <_start-0x1000000>
 1009612:	0001                	nop
 1009614:	0080                	addi	s0,sp,64
 1009616:	0100                	addi	s0,sp,128
 1009618:	0000                	unimp
 100961a:	0000                	unimp
 100961c:	0001                	nop
 100961e:	0000                	unimp
 1009620:	bb20                	fsd	fs0,112(a4)
 1009622:	0015                	c.nop	5
 1009624:	0000                	unimp
 1009626:	00000003          	lb	zero,0(zero) # 0 <_start-0x1000000>
 100962a:	0001                	nop
 100962c:	0020                	addi	s0,sp,8
 100962e:	0100                	addi	s0,sp,128
 1009630:	0000                	unimp
 1009632:	0000                	unimp
 1009634:	0041                	c.nop	16
 1009636:	0000                	unimp
 1009638:	ba20                	fsd	fs0,112(a2)
 100963a:	0016                	c.slli	zero,0x5
 100963c:	0000                	unimp
 100963e:	00000003          	lb	zero,0(zero) # 0 <_start-0x1000000>
 1009642:	0001                	nop
 1009644:	0040                	addi	s0,sp,4
 1009646:	0100                	addi	s0,sp,128
 1009648:	0000                	unimp
 100964a:	0000                	unimp
 100964c:	0040                	addi	s0,sp,4
 100964e:	0000                	unimp
 1009650:	bb20                	fsd	fs0,112(a4)
 1009652:	0016                	c.slli	zero,0x5
 1009654:	0000                	unimp
 1009656:	00000003          	lb	zero,0(zero) # 0 <_start-0x1000000>
 100965a:	0001                	nop
 100965c:	0040                	addi	s0,sp,4
 100965e:	0100                	addi	s0,sp,128
 1009660:	0000                	unimp
 1009662:	0000                	unimp
 1009664:	0040                	addi	s0,sp,4
 1009666:	0000                	unimp
 1009668:	ba20                	fsd	fs0,112(a2)
 100966a:	00000017          	auipc	zero,0x0
 100966e:	00000003          	lb	zero,0(zero) # 0 <_start-0x1000000>
 1009672:	0001                	nop
 1009674:	0080                	addi	s0,sp,64
 1009676:	0100                	addi	s0,sp,128
 1009678:	0000                	unimp
 100967a:	0000                	unimp
 100967c:	0041                	c.nop	16
 100967e:	0000                	unimp
 1009680:	bb20                	fsd	fs0,112(a4)
 1009682:	00000017          	auipc	zero,0x0
 1009686:	00000003          	lb	zero,0(zero) # 0 <_start-0x1000000>
 100968a:	0001                	nop
 100968c:	0080                	addi	s0,sp,64
 100968e:	0100                	addi	s0,sp,128
 1009690:	0000                	unimp
 1009692:	0000                	unimp
 1009694:	0041                	c.nop	16
 1009696:	0000                	unimp
 1009698:	bb20                	fsd	fs0,112(a4)
 100969a:	0018                	0x18
 100969c:	0000                	unimp
 100969e:	00000003          	lb	zero,0(zero) # 0 <_start-0x1000000>
 10096a2:	0001                	nop
 10096a4:	0100                	addi	s0,sp,128
 10096a6:	0100                	addi	s0,sp,128
 10096a8:	0000                	unimp
 10096aa:	0000                	unimp
 10096ac:	0041                	c.nop	16
 10096ae:	0000                	unimp
 10096b0:	ba20                	fsd	fs0,112(a2)
 10096b2:	0018                	0x18
 10096b4:	0000                	unimp
 10096b6:	00000003          	lb	zero,0(zero) # 0 <_start-0x1000000>
 10096ba:	0001                	nop
 10096bc:	0100                	addi	s0,sp,128
 10096be:	0100                	addi	s0,sp,128
 10096c0:	0000                	unimp
 10096c2:	0000                	unimp
 10096c4:	0041                	c.nop	16
 10096c6:	0000                	unimp
 10096c8:	ba20                	fsd	fs0,112(a2)
 10096ca:	1019                	c.nop	-26
 10096cc:	0044                	addi	s1,sp,4
 10096ce:	0006                	c.slli	zero,0x1
 10096d0:	0000                	unimp
 10096d2:	0001                	nop
 10096d4:	0200                	addi	s0,sp,256
 10096d6:	0100                	addi	s0,sp,128
 10096d8:	0000                	unimp
 10096da:	0000                	unimp
 10096dc:	08e1                	addi	a7,a7,24
 10096de:	0000                	unimp
 10096e0:	ba20                	fsd	fs0,112(a2)
 10096e2:	0019                	c.nop	6
 10096e4:	0000                	unimp
 10096e6:	00000003          	lb	zero,0(zero) # 0 <_start-0x1000000>
 10096ea:	0001                	nop
 10096ec:	0200                	addi	s0,sp,256
 10096ee:	0100                	addi	s0,sp,128
 10096f0:	0000                	unimp
 10096f2:	0000                	unimp
 10096f4:	00e1                	addi	ra,ra,24
 10096f6:	0000                	unimp
 10096f8:	bb20                	fsd	fs0,112(a4)
 10096fa:	1019                	c.nop	-26
 10096fc:	0044                	addi	s1,sp,4
 10096fe:	0006                	c.slli	zero,0x1
 1009700:	0000                	unimp
 1009702:	0001                	nop
 1009704:	0200                	addi	s0,sp,256
 1009706:	0100                	addi	s0,sp,128
 1009708:	0000                	unimp
 100970a:	0000                	unimp
 100970c:	08c1                	addi	a7,a7,16
 100970e:	0000                	unimp
 1009710:	bb20                	fsd	fs0,112(a4)
 1009712:	0019                	c.nop	6
 1009714:	0000                	unimp
 1009716:	00000003          	lb	zero,0(zero) # 0 <_start-0x1000000>
 100971a:	0001                	nop
 100971c:	0200                	addi	s0,sp,256
 100971e:	0100                	addi	s0,sp,128
 1009720:	0000                	unimp
 1009722:	0000                	unimp
 1009724:	00c1                	addi	ra,ra,16
 1009726:	0000                	unimp
 1009728:	bb20                	fsd	fs0,112(a4)
 100972a:	1020                	addi	s0,sp,40
 100972c:	0044                	addi	s1,sp,4
 100972e:	0006                	c.slli	zero,0x1
 1009730:	0000                	unimp
 1009732:	0001                	nop
 1009734:	0400                	addi	s0,sp,512
 1009736:	0100                	addi	s0,sp,128
 1009738:	0000                	unimp
 100973a:	0000                	unimp
 100973c:	08e0                	addi	s0,sp,92
 100973e:	0000                	unimp
 1009740:	bb20                	fsd	fs0,112(a4)
 1009742:	0020                	addi	s0,sp,8
 1009744:	0000                	unimp
 1009746:	00000003          	lb	zero,0(zero) # 0 <_start-0x1000000>
 100974a:	0001                	nop
 100974c:	0400                	addi	s0,sp,512
 100974e:	0100                	addi	s0,sp,128
 1009750:	0000                	unimp
 1009752:	0000                	unimp
 1009754:	00c1                	addi	ra,ra,16
 1009756:	0000                	unimp
 1009758:	ba20                	fsd	fs0,112(a2)
 100975a:	1020                	addi	s0,sp,40
 100975c:	0044                	addi	s1,sp,4
 100975e:	0006                	c.slli	zero,0x1
 1009760:	0000                	unimp
 1009762:	0001                	nop
 1009764:	0400                	addi	s0,sp,512
 1009766:	0100                	addi	s0,sp,128
 1009768:	0000                	unimp
 100976a:	0000                	unimp
 100976c:	08c1                	addi	a7,a7,16
 100976e:	0000                	unimp
 1009770:	ba20                	fsd	fs0,112(a2)
 1009772:	0020                	addi	s0,sp,8
 1009774:	0000                	unimp
 1009776:	00000003          	lb	zero,0(zero) # 0 <_start-0x1000000>
 100977a:	0001                	nop
 100977c:	0400                	addi	s0,sp,512
 100977e:	0100                	addi	s0,sp,128
 1009780:	0000                	unimp
 1009782:	0000                	unimp
 1009784:	00c1                	addi	ra,ra,16
 1009786:	0000                	unimp
 1009788:	ba20                	fsd	fs0,112(a2)
 100978a:	0021                	c.nop	8
 100978c:	0000                	unimp
 100978e:	00000003          	lb	zero,0(zero) # 0 <_start-0x1000000>
 1009792:	0001                	nop
 1009794:	0800                	addi	s0,sp,16
 1009796:	0100                	addi	s0,sp,128
 1009798:	0000                	unimp
 100979a:	0000                	unimp
 100979c:	10c1                	addi	ra,ra,-16
 100979e:	0000                	unimp
 10097a0:	bb20                	fsd	fs0,112(a4)
 10097a2:	0021                	c.nop	8
 10097a4:	0000                	unimp
 10097a6:	00000003          	lb	zero,0(zero) # 0 <_start-0x1000000>
 10097aa:	0001                	nop
 10097ac:	0800                	addi	s0,sp,16
 10097ae:	0100                	addi	s0,sp,128
 10097b0:	0000                	unimp
 10097b2:	0000                	unimp
 10097b4:	10c1                	addi	ra,ra,-16
 10097b6:	0000                	unimp
 10097b8:	ba21                	j	10090d0 <__spl_start+0x7be0>
 10097ba:	0020                	addi	s0,sp,8
 10097bc:	0000                	unimp
 10097be:	00000003          	lb	zero,0(zero) # 0 <_start-0x1000000>
 10097c2:	0001                	nop
 10097c4:	0800                	addi	s0,sp,16
 10097c6:	0100                	addi	s0,sp,128
 10097c8:	0000                	unimp
 10097ca:	0000                	unimp
 10097cc:	10c1                	addi	ra,ra,-16
 10097ce:	0000                	unimp
 10097d0:	bb20                	fsd	fs0,112(a4)
 10097d2:	0022                	c.slli	zero,0x8
 10097d4:	0000                	unimp
 10097d6:	00000003          	lb	zero,0(zero) # 0 <_start-0x1000000>
 10097da:	0001                	nop
 10097dc:	1000                	addi	s0,sp,32
 10097de:	0100                	addi	s0,sp,128
 10097e0:	0000                	unimp
 10097e2:	0000                	unimp
 10097e4:	10c1                	addi	ra,ra,-16
 10097e6:	0000                	unimp
 10097e8:	5b2c                	lw	a1,112(a4)
 10097ea:	001a                	c.slli	zero,0x6
 10097ec:	0000                	unimp
 10097ee:	00000003          	lb	zero,0(zero) # 0 <_start-0x1000000>
 10097f2:	0002                	c.slli64	zero
 10097f4:	0200                	addi	s0,sp,256
 10097f6:	0100                	addi	s0,sp,128
 10097f8:	0000                	unimp
 10097fa:	0000                	unimp
 10097fc:	0880                	addi	s0,sp,80
 10097fe:	0001                	nop
 1009800:	5b2c                	lw	a1,112(a4)
 1009802:	001c                	0x1c
 1009804:	0000                	unimp
 1009806:	00000003          	lb	zero,0(zero) # 0 <_start-0x1000000>
 100980a:	0002                	c.slli64	zero
 100980c:	0800                	addi	s0,sp,16
 100980e:	0100                	addi	s0,sp,128
 1009810:	0000                	unimp
 1009812:	0000                	unimp
 1009814:	0880                	addi	s0,sp,80
 1009816:	0001                	nop
 1009818:	0201                	addi	tp,tp,0
 100981a:	4d15                	li	s10,5
 100981c:	0000                	unimp
 100981e:	0005                	c.nop	1
 1009820:	0000                	unimp
 1009822:	0001                	nop
 1009824:	0040                	addi	s0,sp,4
 1009826:	0100                	addi	s0,sp,128
 1009828:	0000                	unimp
 100982a:	0000                	unimp
 100982c:	0060                	addi	s0,sp,12
 100982e:	0000                	unimp
 1009830:	0201                	addi	tp,tp,0
 1009832:	4d16                	lw	s10,68(sp)
 1009834:	0000                	unimp
 1009836:	0005                	c.nop	1
 1009838:	0000                	unimp
 100983a:	0001                	nop
 100983c:	0080                	addi	s0,sp,64
 100983e:	0100                	addi	s0,sp,128
 1009840:	0000                	unimp
 1009842:	0000                	unimp
 1009844:	0060                	addi	s0,sp,12
 1009846:	0000                	unimp
 1009848:	0201                	addi	tp,tp,0
 100984a:	4d19                	li	s10,6
 100984c:	0000                	unimp
 100984e:	0005                	c.nop	1
 1009850:	0000                	unimp
 1009852:	0004                	0x4
 1009854:	0080                	addi	s0,sp,64
 1009856:	0100                	addi	s0,sp,128
 1009858:	0000                	unimp
 100985a:	0000                	unimp
 100985c:	4060                	lw	s0,68(s0)
 100985e:	0000                	unimp
 1009860:	0201                	addi	tp,tp,0
 1009862:	4d19                	li	s10,6
 1009864:	0001                	nop
 1009866:	0005                	c.nop	1
 1009868:	0000                	unimp
 100986a:	0001                	nop
 100986c:	0200                	addi	s0,sp,256
 100986e:	0100                	addi	s0,sp,128
 1009870:	0000                	unimp
 1009872:	0000                	unimp
 1009874:	4060                	lw	s0,68(s0)
 1009876:	0000                	unimp
 1009878:	0201                	addi	tp,tp,0
 100987a:	4d20                	lw	s0,88(a0)
 100987c:	8000                	0x8000
 100987e:	0006                	c.slli	zero,0x1
 1009880:	0000                	unimp
 1009882:	0004                	0x4
 1009884:	0100                	addi	s0,sp,128
 1009886:	0100                	addi	s0,sp,128
 1009888:	0000                	unimp
 100988a:	0000                	unimp
 100988c:	4060                	lw	s0,68(s0)
 100988e:	0000                	unimp
 1009890:	0201                	addi	tp,tp,0
 1009892:	4d20                	lw	s0,88(a0)
 1009894:	8100                	0x8100
 1009896:	0006                	c.slli	zero,0x1
 1009898:	0000                	unimp
 100989a:	0004                	0x4
 100989c:	0100                	addi	s0,sp,128
 100989e:	0100                	addi	s0,sp,128
 10098a0:	0000                	unimp
 10098a2:	0000                	unimp
 10098a4:	4060                	lw	s0,68(s0)
 10098a6:	0000                	unimp
 10098a8:	0201                	addi	tp,tp,0
 10098aa:	4d20                	lw	s0,88(a0)
 10098ac:	0000                	unimp
 10098ae:	0005                	c.nop	1
 10098b0:	0000                	unimp
 10098b2:	0004                	0x4
 10098b4:	0100                	addi	s0,sp,128
 10098b6:	0100                	addi	s0,sp,128
 10098b8:	0000                	unimp
 10098ba:	0000                	unimp
 10098bc:	4060                	lw	s0,68(s0)
 10098be:	0000                	unimp
 10098c0:	0201                	addi	tp,tp,0
 10098c2:	4d20                	lw	s0,88(a0)
 10098c4:	0001                	nop
 10098c6:	0005                	c.nop	1
 10098c8:	0000                	unimp
 10098ca:	0001                	nop
 10098cc:	0400                	addi	s0,sp,512
 10098ce:	0100                	addi	s0,sp,128
 10098d0:	0000                	unimp
 10098d2:	0000                	unimp
 10098d4:	4060                	lw	s0,68(s0)
 10098d6:	0000                	unimp
 10098d8:	0201                	addi	tp,tp,0
 10098da:	4f20                	lw	s0,88(a4)
 10098dc:	0000                	unimp
 10098de:	0005                	c.nop	1
 10098e0:	0000                	unimp
 10098e2:	0004                	0x4
 10098e4:	0100                	addi	s0,sp,128
 10098e6:	0100                	addi	s0,sp,128
 10098e8:	0000                	unimp
 10098ea:	0000                	unimp
 10098ec:	4060                	lw	s0,68(s0)
 10098ee:	0000                	unimp
 10098f0:	2001                	0x2001
 10098f2:	0318                	addi	a4,sp,384
 10098f4:	0000                	unimp
 10098f6:	0005                	c.nop	1
 10098f8:	0000                	unimp
 10098fa:	0004                	0x4
 10098fc:	0040                	addi	s0,sp,4
 10098fe:	0100                	addi	s0,sp,128
	...
 1009908:	2001                	0x2001
 100990a:	0318                	addi	a4,sp,384
 100990c:	0001                	nop
 100990e:	0005                	c.nop	1
 1009910:	0000                	unimp
 1009912:	0001                	nop
 1009914:	0100                	addi	s0,sp,128
 1009916:	0100                	addi	s0,sp,128
	...
 1009920:	2001                	0x2001
 1009922:	4d18                	lw	a4,24(a0)
 1009924:	8001                	c.srli64	s0
 1009926:	0006                	c.slli	zero,0x1
 1009928:	0000                	unimp
 100992a:	0001                	nop
 100992c:	0100                	addi	s0,sp,128
 100992e:	0100                	addi	s0,sp,128
 1009930:	0000                	unimp
 1009932:	0000                	unimp
 1009934:	4060                	lw	s0,68(s0)
 1009936:	0000                	unimp
 1009938:	2001                	0x2001
 100993a:	4d18                	lw	a4,24(a0)
 100993c:	0000                	unimp
 100993e:	0005                	c.nop	1
 1009940:	0000                	unimp
 1009942:	0004                	0x4
 1009944:	0040                	addi	s0,sp,4
 1009946:	0100                	addi	s0,sp,128
 1009948:	0000                	unimp
 100994a:	0000                	unimp
 100994c:	4060                	lw	s0,68(s0)
 100994e:	0000                	unimp
 1009950:	2001                	0x2001
 1009952:	4d18                	lw	a4,24(a0)
 1009954:	0001                	nop
 1009956:	0005                	c.nop	1
 1009958:	0000                	unimp
 100995a:	0001                	nop
 100995c:	0100                	addi	s0,sp,128
 100995e:	0100                	addi	s0,sp,128
 1009960:	0000                	unimp
 1009962:	0000                	unimp
 1009964:	4060                	lw	s0,68(s0)
 1009966:	0000                	unimp
 1009968:	0201                	addi	tp,tp,0
 100996a:	00000013          	nop
 100996e:	00000003          	lb	zero,0(zero) # 0 <_start-0x1000000>
 1009972:	0001                	nop
 1009974:	0010                	0x10
 1009976:	0100                	addi	s0,sp,128
	...
 1009980:	0201                	addi	tp,tp,0
 1009982:	0014                	0x14
 1009984:	0000                	unimp
 1009986:	00000003          	lb	zero,0(zero) # 0 <_start-0x1000000>
 100998a:	0001                	nop
 100998c:	0020                	addi	s0,sp,8
 100998e:	0100                	addi	s0,sp,128
	...
 1009998:	0201                	addi	tp,tp,0
 100999a:	0015                	c.nop	5
 100999c:	0000                	unimp
 100999e:	00000003          	lb	zero,0(zero) # 0 <_start-0x1000000>
 10099a2:	0001                	nop
 10099a4:	0040                	addi	s0,sp,4
 10099a6:	0100                	addi	s0,sp,128
	...
 10099b0:	0201                	addi	tp,tp,0
 10099b2:	0016                	c.slli	zero,0x5
 10099b4:	0000                	unimp
 10099b6:	00000003          	lb	zero,0(zero) # 0 <_start-0x1000000>
 10099ba:	0001                	nop
 10099bc:	0080                	addi	s0,sp,64
 10099be:	0100                	addi	s0,sp,128
	...
 10099c8:	4001                	c.li	zero,0
 10099ca:	0015                	c.nop	5
 10099cc:	0000                	unimp
 10099ce:	00000003          	lb	zero,0(zero) # 0 <_start-0x1000000>
 10099d2:	0001                	nop
 10099d4:	0020                	addi	s0,sp,8
 10099d6:	0100                	addi	s0,sp,128
 10099d8:	0000                	unimp
 10099da:	0000                	unimp
 10099dc:	0061                	c.nop	24
 10099de:	0000                	unimp
 10099e0:	4001                	c.li	zero,0
 10099e2:	00000017          	auipc	zero,0x0
 10099e6:	00000003          	lb	zero,0(zero) # 0 <_start-0x1000000>
 10099ea:	0001                	nop
 10099ec:	0080                	addi	s0,sp,64
 10099ee:	0100                	addi	s0,sp,128
 10099f0:	0000                	unimp
 10099f2:	0000                	unimp
 10099f4:	0001                	nop
 10099f6:	0000                	unimp
 10099f8:	4001                	c.li	zero,0
 10099fa:	0014                	0x14
 10099fc:	0000                	unimp
 10099fe:	00000003          	lb	zero,0(zero) # 0 <_start-0x1000000>
 1009a02:	0001                	nop
 1009a04:	0010                	0x10
 1009a06:	0100                	addi	s0,sp,128
 1009a08:	0000                	unimp
 1009a0a:	0000                	unimp
 1009a0c:	0021                	c.nop	8
 1009a0e:	0000                	unimp
 1009a10:	6001                	0x6001
 1009a12:	00000017          	auipc	zero,0x0
 1009a16:	00000003          	lb	zero,0(zero) # 0 <_start-0x1000000>
 1009a1a:	0001                	nop
 1009a1c:	0080                	addi	s0,sp,64
 1009a1e:	0100                	addi	s0,sp,128
 1009a20:	0000                	unimp
 1009a22:	0000                	unimp
 1009a24:	0861                	addi	a6,a6,24
 1009a26:	0000                	unimp
 1009a28:	6001                	0x6001
 1009a2a:	0018                	0x18
 1009a2c:	0000                	unimp
 1009a2e:	00000003          	lb	zero,0(zero) # 0 <_start-0x1000000>
 1009a32:	0001                	nop
 1009a34:	0100                	addi	s0,sp,128
 1009a36:	0100                	addi	s0,sp,128
 1009a38:	0000                	unimp
 1009a3a:	0000                	unimp
 1009a3c:	0861                	addi	a6,a6,24
 1009a3e:	0000                	unimp
 1009a40:	008d25bf 00030000 	0x30000008d25bf
 1009a48:	0000                	unimp
 1009a4a:	0001                	nop
 1009a4c:	0008                	0x8
 1009a4e:	0100                	addi	s0,sp,128
 1009a50:	0000                	unimp
 1009a52:	0000                	unimp
 1009a54:	0005                	c.nop	1
 1009a56:	0000                	unimp
 1009a58:	008e25bf 00030000 	0x30000008e25bf
 1009a60:	0000                	unimp
 1009a62:	0001                	nop
 1009a64:	0010                	0x10
 1009a66:	0100                	addi	s0,sp,128
 1009a68:	0000                	unimp
 1009a6a:	0000                	unimp
 1009a6c:	0005                	c.nop	1
 1009a6e:	0000                	unimp
 1009a70:	004125bf 00030000 	0x30000004125bf
 1009a78:	0000                	unimp
 1009a7a:	0001                	nop
 1009a7c:	0020                	addi	s0,sp,8
 1009a7e:	0100                	addi	s0,sp,128
 1009a80:	0000                	unimp
 1009a82:	0000                	unimp
 1009a84:	0005                	c.nop	1
 1009a86:	0000                	unimp
 1009a88:	004a25bf 00030000 	0x30000004a25bf
 1009a90:	0000                	unimp
 1009a92:	0001                	nop
 1009a94:	0040                	addi	s0,sp,4
 1009a96:	0100                	addi	s0,sp,128
 1009a98:	0000                	unimp
 1009a9a:	0000                	unimp
 1009a9c:	0005                	c.nop	1
 1009a9e:	0000                	unimp
 1009aa0:	004b25bf 00030000 	0x30000004b25bf
 1009aa8:	0000                	unimp
 1009aaa:	0001                	nop
 1009aac:	0080                	addi	s0,sp,64
 1009aae:	0100                	addi	s0,sp,128
 1009ab0:	0000                	unimp
 1009ab2:	0000                	unimp
 1009ab4:	0001                	nop
 1009ab6:	0000                	unimp
 1009ab8:	000125bf 00030000 	0x30000000125bf
 1009ac0:	0000                	unimp
 1009ac2:	0001                	nop
 1009ac4:	0001                	nop
 1009ac6:	0100                	addi	s0,sp,128
 1009ac8:	0000                	unimp
 1009aca:	0000                	unimp
 1009acc:	0005                	c.nop	1
 1009ace:	0000                	unimp
 1009ad0:	000225bf 00030000 	0x30000000225bf
 1009ad8:	0000                	unimp
 1009ada:	0001                	nop
 1009adc:	0002                	c.slli64	zero
 1009ade:	0100                	addi	s0,sp,128
 1009ae0:	0000                	unimp
 1009ae2:	0000                	unimp
 1009ae4:	0005                	c.nop	1
 1009ae6:	0000                	unimp
 1009ae8:	000325bf 00030000 	0x30000000325bf
 1009af0:	0000                	unimp
 1009af2:	0001                	nop
 1009af4:	0004                	0x4
 1009af6:	0100                	addi	s0,sp,128
 1009af8:	0000                	unimp
 1009afa:	0000                	unimp
 1009afc:	0005                	c.nop	1
 1009afe:	0000                	unimp
 1009b00:	1662                	slli	a2,a2,0x38
 1009b02:	0012                	c.slli	zero,0x4
 1009b04:	0000                	unimp
 1009b06:	00000003          	lb	zero,0(zero) # 0 <_start-0x1000000>
 1009b0a:	0001                	nop
 1009b0c:	0004                	0x4
 1009b0e:	0100                	addi	s0,sp,128
 1009b10:	0000                	unimp
 1009b12:	0000                	unimp
 1009b14:	0001                	nop
 1009b16:	0000                	unimp
 1009b18:	1662                	slli	a2,a2,0x38
 1009b1a:	00000013          	nop
 1009b1e:	00000003          	lb	zero,0(zero) # 0 <_start-0x1000000>
 1009b22:	0001                	nop
 1009b24:	0008                	0x8
 1009b26:	0100                	addi	s0,sp,128
 1009b28:	0000                	unimp
 1009b2a:	0000                	unimp
 1009b2c:	0001                	nop
 1009b2e:	0000                	unimp
 1009b30:	000425bf 00030000 	0x30000000425bf
 1009b38:	0000                	unimp
 1009b3a:	0001                	nop
 1009b3c:	0008                	0x8
 1009b3e:	0100                	addi	s0,sp,128
 1009b40:	0000                	unimp
 1009b42:	0000                	unimp
 1009b44:	0005                	c.nop	1
 1009b46:	0000                	unimp
 1009b48:	000525bf 00030000 	0x30000000525bf
 1009b50:	0000                	unimp
 1009b52:	0001                	nop
 1009b54:	0010                	0x10
 1009b56:	0100                	addi	s0,sp,128
 1009b58:	0000                	unimp
 1009b5a:	0000                	unimp
 1009b5c:	0005                	c.nop	1
 1009b5e:	0000                	unimp
 1009b60:	004326bf 00030000 	0x30000004326bf
 1009b68:	0000                	unimp
 1009b6a:	0001                	nop
 1009b6c:	0080                	addi	s0,sp,64
 1009b6e:	0100                	addi	s0,sp,128
 1009b70:	0000                	unimp
 1009b72:	0000                	unimp
 1009b74:	8061                	srli	s0,s0,0x18
 1009b76:	0000                	unimp
 1009b78:	005126bf 00030000 	0x30000005126bf
 1009b80:	0000                	unimp
 1009b82:	0001                	nop
 1009b84:	0020                	addi	s0,sp,8
 1009b86:	0100                	addi	s0,sp,128
 1009b88:	0000                	unimp
 1009b8a:	0000                	unimp
 1009b8c:	8001                	c.srli64	s0
 1009b8e:	0000                	unimp
 1009b90:	002226bf 00030000 	0x30000002226bf
 1009b98:	0000                	unimp
 1009b9a:	0001                	nop
 1009b9c:	0040                	addi	s0,sp,4
 1009b9e:	0100                	addi	s0,sp,128
 1009ba0:	0000                	unimp
 1009ba2:	0000                	unimp
 1009ba4:	8001                	c.srli64	s0
 1009ba6:	0000                	unimp
 1009ba8:	004326bf 00030000 	0x30000004326bf
 1009bb0:	0000                	unimp
 1009bb2:	0001                	nop
 1009bb4:	0080                	addi	s0,sp,64
 1009bb6:	0100                	addi	s0,sp,128
 1009bb8:	0000                	unimp
 1009bba:	0000                	unimp
 1009bbc:	8001                	c.srli64	s0
 1009bbe:	0000                	unimp
 1009bc0:	2020                	fld	fs0,64(s0)
 1009bc2:	0011                	c.nop	4
 1009bc4:	0000                	unimp
 1009bc6:	80000003          	lb	zero,-2048(zero) # fffffffffffff800 <__soc_ctrl_scratch1+0xfffffffffdfff7e8>
 1009bca:	0000                	unimp
 1009bcc:	0004                	0x4
 1009bce:	0100                	addi	s0,sp,128
	...
 1009bd8:	2020                	fld	fs0,64(s0)
 1009bda:	0012                	c.slli	zero,0x4
 1009bdc:	0000                	unimp
 1009bde:	00000003          	lb	zero,0(zero) # 0 <_start-0x1000000>
 1009be2:	0001                	nop
 1009be4:	0004                	0x4
 1009be6:	0100                	addi	s0,sp,128
	...
 1009bf0:	2020                	fld	fs0,64(s0)
 1009bf2:	00000013          	nop
 1009bf6:	00000003          	lb	zero,0(zero) # 0 <_start-0x1000000>
 1009bfa:	0001                	nop
 1009bfc:	0008                	0x8
 1009bfe:	0100                	addi	s0,sp,128
	...
 1009c08:	2020                	fld	fs0,64(s0)
 1009c0a:	0014                	0x14
 1009c0c:	0000                	unimp
 1009c0e:	00000003          	lb	zero,0(zero) # 0 <_start-0x1000000>
 1009c12:	0001                	nop
 1009c14:	0010                	0x10
 1009c16:	0100                	addi	s0,sp,128
	...
 1009c20:	2020                	fld	fs0,64(s0)
 1009c22:	0015                	c.nop	5
 1009c24:	0000                	unimp
 1009c26:	00000003          	lb	zero,0(zero) # 0 <_start-0x1000000>
 1009c2a:	0001                	nop
 1009c2c:	0020                	addi	s0,sp,8
 1009c2e:	0100                	addi	s0,sp,128
	...
 1009c38:	2020                	fld	fs0,64(s0)
 1009c3a:	0016                	c.slli	zero,0x5
 1009c3c:	0000                	unimp
 1009c3e:	00000003          	lb	zero,0(zero) # 0 <_start-0x1000000>
 1009c42:	0001                	nop
 1009c44:	0040                	addi	s0,sp,4
 1009c46:	0100                	addi	s0,sp,128
	...
 1009c50:	2020                	fld	fs0,64(s0)
 1009c52:	00000017          	auipc	zero,0x0
 1009c56:	00000003          	lb	zero,0(zero) # 0 <_start-0x1000000>
 1009c5a:	0001                	nop
 1009c5c:	0080                	addi	s0,sp,64
 1009c5e:	0100                	addi	s0,sp,128
	...
 1009c68:	2020                	fld	fs0,64(s0)
 1009c6a:	0018                	0x18
 1009c6c:	0000                	unimp
 1009c6e:	00000003          	lb	zero,0(zero) # 0 <_start-0x1000000>
 1009c72:	0004                	0x4
 1009c74:	0040                	addi	s0,sp,4
 1009c76:	0100                	addi	s0,sp,128
	...
 1009c80:	8020                	0x8020
 1009c82:	0015                	c.nop	5
 1009c84:	0000                	unimp
 1009c86:	00000003          	lb	zero,0(zero) # 0 <_start-0x1000000>
 1009c8a:	0001                	nop
 1009c8c:	0020                	addi	s0,sp,8
 1009c8e:	0100                	addi	s0,sp,128
 1009c90:	0000                	unimp
 1009c92:	0000                	unimp
 1009c94:	0001                	nop
 1009c96:	0000                	unimp
 1009c98:	7120                	ld	s0,96(a0)
 1009c9a:	0015                	c.nop	5
 1009c9c:	0000                	unimp
 1009c9e:	00000003          	lb	zero,0(zero) # 0 <_start-0x1000000>
 1009ca2:	0001                	nop
 1009ca4:	0020                	addi	s0,sp,8
 1009ca6:	0100                	addi	s0,sp,128
 1009ca8:	0000                	unimp
 1009caa:	0000                	unimp
 1009cac:	0061                	c.nop	24
 1009cae:	0000                	unimp
 1009cb0:	7120                	ld	s0,96(a0)
 1009cb2:	00000017          	auipc	zero,0x0
 1009cb6:	00000003          	lb	zero,0(zero) # 0 <_start-0x1000000>
 1009cba:	0001                	nop
 1009cbc:	0080                	addi	s0,sp,64
 1009cbe:	0100                	addi	s0,sp,128
	...
 1009cc8:	001420ef          	jal	ra,104c4c8 <__spl_src_start+0x3f3e0>
 1009ccc:	0000                	unimp
 1009cce:	00000003          	lb	zero,0(zero) # 0 <_start-0x1000000>
 1009cd2:	0001                	nop
 1009cd4:	0010                	0x10
 1009cd6:	0100                	addi	s0,sp,128
	...
 1009ce0:	001520ef          	jal	ra,105c4e0 <__spl_src_start+0x4f3f8>
 1009ce4:	0000                	unimp
 1009ce6:	00000003          	lb	zero,0(zero) # 0 <_start-0x1000000>
 1009cea:	0001                	nop
 1009cec:	0020                	addi	s0,sp,8
 1009cee:	0100                	addi	s0,sp,128
	...
 1009cf8:	001620ef          	jal	ra,106c4f8 <__spl_src_start+0x5f410>
 1009cfc:	0000                	unimp
 1009cfe:	00000003          	lb	zero,0(zero) # 0 <_start-0x1000000>
 1009d02:	0001                	nop
 1009d04:	0040                	addi	s0,sp,4
 1009d06:	0100                	addi	s0,sp,128
	...
 1009d10:	001030ef          	jal	ra,100d510 <__spl_src_start+0x428>
 1009d14:	0000                	unimp
 1009d16:	00000003          	lb	zero,0(zero) # 0 <_start-0x1000000>
 1009d1a:	0001                	nop
 1009d1c:	0001                	nop
 1009d1e:	0100                	addi	s0,sp,128
 1009d20:	0000                	unimp
 1009d22:	0000                	unimp
 1009d24:	0001                	nop
 1009d26:	0000                	unimp
 1009d28:	001330ef          	jal	ra,103d528 <__spl_src_start+0x30440>
 1009d2c:	0000                	unimp
 1009d2e:	00000003          	lb	zero,0(zero) # 0 <_start-0x1000000>
 1009d32:	0001                	nop
 1009d34:	0008                	0x8
 1009d36:	0100                	addi	s0,sp,128
 1009d38:	0000                	unimp
 1009d3a:	0000                	unimp
 1009d3c:	0001                	nop
 1009d3e:	0000                	unimp
 1009d40:	001530ef          	jal	ra,105d540 <__spl_src_start+0x50458>
 1009d44:	0000                	unimp
 1009d46:	00000003          	lb	zero,0(zero) # 0 <_start-0x1000000>
 1009d4a:	0001                	nop
 1009d4c:	0020                	addi	s0,sp,8
 1009d4e:	0100                	addi	s0,sp,128
 1009d50:	0000                	unimp
 1009d52:	0000                	unimp
 1009d54:	0001                	nop
 1009d56:	0000                	unimp
 1009d58:	001560ef          	jal	ra,1060558 <__spl_src_start+0x53470>
 1009d5c:	0000                	unimp
 1009d5e:	00000003          	lb	zero,0(zero) # 0 <_start-0x1000000>
 1009d62:	0001                	nop
 1009d64:	0020                	addi	s0,sp,8
 1009d66:	0100                	addi	s0,sp,128
 1009d68:	0000                	unimp
 1009d6a:	0000                	unimp
 1009d6c:	0361                	addi	t1,t1,24
 1009d6e:	0000                	unimp
 1009d70:	001630ef          	jal	ra,106d570 <__spl_src_start+0x60488>
 1009d74:	0000                	unimp
 1009d76:	00000003          	lb	zero,0(zero) # 0 <_start-0x1000000>
 1009d7a:	0001                	nop
 1009d7c:	0040                	addi	s0,sp,4
 1009d7e:	0100                	addi	s0,sp,128
 1009d80:	0000                	unimp
 1009d82:	0000                	unimp
 1009d84:	0001                	nop
 1009d86:	0000                	unimp
 1009d88:	001240ef          	jal	ra,102e588 <__spl_src_start+0x214a0>
 1009d8c:	0000                	unimp
 1009d8e:	00000003          	lb	zero,0(zero) # 0 <_start-0x1000000>
 1009d92:	0001                	nop
 1009d94:	0004                	0x4
 1009d96:	0100                	addi	s0,sp,128
 1009d98:	0000                	unimp
 1009d9a:	0000                	unimp
 1009d9c:	0001                	nop
 1009d9e:	0000                	unimp
 1009da0:	001250ef          	jal	ra,102f5a0 <__spl_src_start+0x224b8>
 1009da4:	0000                	unimp
 1009da6:	00000003          	lb	zero,0(zero) # 0 <_start-0x1000000>
 1009daa:	0001                	nop
 1009dac:	0004                	0x4
 1009dae:	0100                	addi	s0,sp,128
 1009db0:	0000                	unimp
 1009db2:	0000                	unimp
 1009db4:	0001                	nop
 1009db6:	0000                	unimp
 1009db8:	001260ef          	jal	ra,10305b8 <__spl_src_start+0x234d0>
 1009dbc:	0000                	unimp
 1009dbe:	00000003          	lb	zero,0(zero) # 0 <_start-0x1000000>
 1009dc2:	0001                	nop
 1009dc4:	0004                	0x4
 1009dc6:	0100                	addi	s0,sp,128
 1009dc8:	0000                	unimp
 1009dca:	0000                	unimp
 1009dcc:	0001                	nop
 1009dce:	0000                	unimp
 1009dd0:	001640ef          	jal	ra,106e5d0 <__spl_src_start+0x614e8>
 1009dd4:	0000                	unimp
 1009dd6:	00000003          	lb	zero,0(zero) # 0 <_start-0x1000000>
 1009dda:	0001                	nop
 1009ddc:	0040                	addi	s0,sp,4
 1009dde:	0100                	addi	s0,sp,128
 1009de0:	0000                	unimp
 1009de2:	0000                	unimp
 1009de4:	0061                	c.nop	24
 1009de6:	0000                	unimp
 1009de8:	001660ef          	jal	ra,10705e8 <__spl_src_start+0x63500>
 1009dec:	0000                	unimp
 1009dee:	00000003          	lb	zero,0(zero) # 0 <_start-0x1000000>
 1009df2:	0001                	nop
 1009df4:	0040                	addi	s0,sp,4
 1009df6:	0100                	addi	s0,sp,128
 1009df8:	0000                	unimp
 1009dfa:	0000                	unimp
 1009dfc:	0361                	addi	t1,t1,24
 1009dfe:	0000                	unimp
 1009e00:	001670ef          	jal	ra,1071600 <__spl_src_start+0x64518>
 1009e04:	0000                	unimp
 1009e06:	00000003          	lb	zero,0(zero) # 0 <_start-0x1000000>
 1009e0a:	0001                	nop
 1009e0c:	0040                	addi	s0,sp,4
 1009e0e:	0100                	addi	s0,sp,128
 1009e10:	0000                	unimp
 1009e12:	0000                	unimp
 1009e14:	0361                	addi	t1,t1,24
 1009e16:	0000                	unimp
 1009e18:	001680ef          	jal	ra,1072618 <__spl_src_start+0x65530>
 1009e1c:	0000                	unimp
 1009e1e:	00000003          	lb	zero,0(zero) # 0 <_start-0x1000000>
 1009e22:	0001                	nop
 1009e24:	0040                	addi	s0,sp,4
 1009e26:	0100                	addi	s0,sp,128
 1009e28:	0000                	unimp
 1009e2a:	0000                	unimp
 1009e2c:	0361                	addi	t1,t1,24
 1009e2e:	0000                	unimp
 1009e30:	001730ef          	jal	ra,107d630 <__spl_src_start+0x70548>
 1009e34:	0000                	unimp
 1009e36:	00000003          	lb	zero,0(zero) # 0 <_start-0x1000000>
 1009e3a:	0001                	nop
 1009e3c:	0080                	addi	s0,sp,64
 1009e3e:	0100                	addi	s0,sp,128
 1009e40:	0000                	unimp
 1009e42:	0000                	unimp
 1009e44:	0001                	nop
 1009e46:	0000                	unimp
 1009e48:	001760ef          	jal	ra,1080648 <__spl_src_start+0x73560>
 1009e4c:	0000                	unimp
 1009e4e:	00000003          	lb	zero,0(zero) # 0 <_start-0x1000000>
 1009e52:	0001                	nop
 1009e54:	0080                	addi	s0,sp,64
 1009e56:	0100                	addi	s0,sp,128
 1009e58:	0000                	unimp
 1009e5a:	0000                	unimp
 1009e5c:	0361                	addi	t1,t1,24
 1009e5e:	0000                	unimp
 1009e60:	001770ef          	jal	ra,1081660 <__spl_src_start+0x74578>
 1009e64:	0000                	unimp
 1009e66:	00000003          	lb	zero,0(zero) # 0 <_start-0x1000000>
 1009e6a:	0001                	nop
 1009e6c:	0080                	addi	s0,sp,64
 1009e6e:	0100                	addi	s0,sp,128
 1009e70:	0000                	unimp
 1009e72:	0000                	unimp
 1009e74:	0361                	addi	t1,t1,24
 1009e76:	0000                	unimp
 1009e78:	001860ef          	jal	ra,1090678 <__spl_src_start+0x83590>
 1009e7c:	0000                	unimp
 1009e7e:	00000003          	lb	zero,0(zero) # 0 <_start-0x1000000>
 1009e82:	0001                	nop
 1009e84:	0100                	addi	s0,sp,128
 1009e86:	0100                	addi	s0,sp,128
 1009e88:	0000                	unimp
 1009e8a:	0000                	unimp
 1009e8c:	0361                	addi	t1,t1,24
 1009e8e:	0000                	unimp
 1009e90:	001870ef          	jal	ra,1091690 <__spl_src_start+0x845a8>
 1009e94:	0000                	unimp
 1009e96:	00000003          	lb	zero,0(zero) # 0 <_start-0x1000000>
 1009e9a:	0001                	nop
 1009e9c:	0100                	addi	s0,sp,128
 1009e9e:	0100                	addi	s0,sp,128
 1009ea0:	0000                	unimp
 1009ea2:	0000                	unimp
 1009ea4:	0361                	addi	t1,t1,24
 1009ea6:	0000                	unimp
 1009ea8:	001960ef          	jal	ra,10a06a8 <__spl_src_start+0x935c0>
 1009eac:	0000                	unimp
 1009eae:	00000003          	lb	zero,0(zero) # 0 <_start-0x1000000>
 1009eb2:	0001                	nop
 1009eb4:	0200                	addi	s0,sp,256
 1009eb6:	0100                	addi	s0,sp,128
 1009eb8:	0000                	unimp
 1009eba:	0000                	unimp
 1009ebc:	0361                	addi	t1,t1,24
 1009ebe:	0000                	unimp
 1009ec0:	001970ef          	jal	ra,10a16c0 <__spl_src_start+0x945d8>
 1009ec4:	0000                	unimp
 1009ec6:	00000003          	lb	zero,0(zero) # 0 <_start-0x1000000>
 1009eca:	0001                	nop
 1009ecc:	0200                	addi	s0,sp,256
 1009ece:	0100                	addi	s0,sp,128
 1009ed0:	0000                	unimp
 1009ed2:	0000                	unimp
 1009ed4:	0361                	addi	t1,t1,24
 1009ed6:	0000                	unimp
 1009ed8:	001450ef          	jal	ra,104f6d8 <__spl_src_start+0x425f0>
 1009edc:	0000                	unimp
 1009ede:	00000003          	lb	zero,0(zero) # 0 <_start-0x1000000>
 1009ee2:	0001                	nop
 1009ee4:	0010                	0x10
 1009ee6:	0100                	addi	s0,sp,128
 1009ee8:	0000                	unimp
 1009eea:	0000                	unimp
 1009eec:	0001                	nop
 1009eee:	0000                	unimp
 1009ef0:	001440ef          	jal	ra,104e6f0 <__spl_src_start+0x41608>
 1009ef4:	0000                	unimp
 1009ef6:	00000003          	lb	zero,0(zero) # 0 <_start-0x1000000>
 1009efa:	0001                	nop
 1009efc:	0010                	0x10
 1009efe:	0100                	addi	s0,sp,128
 1009f00:	0000                	unimp
 1009f02:	0000                	unimp
 1009f04:	0061                	c.nop	24
 1009f06:	0000                	unimp
 1009f08:	001540ef          	jal	ra,105e708 <__spl_src_start+0x51620>
 1009f0c:	0000                	unimp
 1009f0e:	00000003          	lb	zero,0(zero) # 0 <_start-0x1000000>
 1009f12:	0001                	nop
 1009f14:	0020                	addi	s0,sp,8
 1009f16:	0100                	addi	s0,sp,128
 1009f18:	0000                	unimp
 1009f1a:	0000                	unimp
 1009f1c:	0061                	c.nop	24
 1009f1e:	0000                	unimp
 1009f20:	001740ef          	jal	ra,107e720 <__spl_src_start+0x71638>
 1009f24:	0000                	unimp
 1009f26:	00000003          	lb	zero,0(zero) # 0 <_start-0x1000000>
 1009f2a:	0001                	nop
 1009f2c:	0080                	addi	s0,sp,64
 1009f2e:	0100                	addi	s0,sp,128
 1009f30:	0000                	unimp
 1009f32:	0000                	unimp
 1009f34:	0061                	c.nop	24
 1009f36:	0000                	unimp
 1009f38:	001840ef          	jal	ra,108e738 <__spl_src_start+0x81650>
 1009f3c:	0000                	unimp
 1009f3e:	00000003          	lb	zero,0(zero) # 0 <_start-0x1000000>
 1009f42:	0001                	nop
 1009f44:	0100                	addi	s0,sp,128
 1009f46:	0100                	addi	s0,sp,128
 1009f48:	0000                	unimp
 1009f4a:	0000                	unimp
 1009f4c:	0361                	addi	t1,t1,24
 1009f4e:	0000                	unimp
 1009f50:	001940ef          	jal	ra,109e750 <__spl_src_start+0x91668>
 1009f54:	0000                	unimp
 1009f56:	00000003          	lb	zero,0(zero) # 0 <_start-0x1000000>
 1009f5a:	0001                	nop
 1009f5c:	0200                	addi	s0,sp,256
 1009f5e:	0100                	addi	s0,sp,128
 1009f60:	0000                	unimp
 1009f62:	0000                	unimp
 1009f64:	0061                	c.nop	24
 1009f66:	0000                	unimp
 1009f68:	001961ef          	jal	gp,10a0768 <__spl_src_start+0x93680>
 1009f6c:	0000                	unimp
 1009f6e:	00000003          	lb	zero,0(zero) # 0 <_start-0x1000000>
 1009f72:	0001                	nop
 1009f74:	0400                	addi	s0,sp,512
 1009f76:	0100                	addi	s0,sp,128
 1009f78:	0000                	unimp
 1009f7a:	0000                	unimp
 1009f7c:	0061                	c.nop	24
 1009f7e:	0000                	unimp
 1009f80:	001971ef          	jal	gp,10a1780 <__spl_src_start+0x94698>
 1009f84:	0000                	unimp
 1009f86:	00000003          	lb	zero,0(zero) # 0 <_start-0x1000000>
 1009f8a:	0001                	nop
 1009f8c:	0400                	addi	s0,sp,512
 1009f8e:	0100                	addi	s0,sp,128
 1009f90:	0000                	unimp
 1009f92:	0000                	unimp
 1009f94:	0061                	c.nop	24
 1009f96:	0000                	unimp
 1009f98:	7020                	ld	s0,96(s0)
 1009f9a:	00000017          	auipc	zero,0x0
 1009f9e:	00000003          	lb	zero,0(zero) # 0 <_start-0x1000000>
 1009fa2:	0001                	nop
 1009fa4:	0080                	addi	s0,sp,64
 1009fa6:	0100                	addi	s0,sp,128
 1009fa8:	0000                	unimp
 1009faa:	0000                	unimp
 1009fac:	0061                	c.nop	24
 1009fae:	0000                	unimp
 1009fb0:	7020                	ld	s0,96(s0)
 1009fb2:	0018                	0x18
 1009fb4:	0000                	unimp
 1009fb6:	00000003          	lb	zero,0(zero) # 0 <_start-0x1000000>
 1009fba:	0001                	nop
 1009fbc:	0100                	addi	s0,sp,128
 1009fbe:	0100                	addi	s0,sp,128
 1009fc0:	0000                	unimp
 1009fc2:	0000                	unimp
 1009fc4:	0061                	c.nop	24
	...
 1009fde:	0000                	unimp
 1009fe0:	2d697073          	csrci	0x2d6,18
 1009fe4:	6c66                	ld	s8,88(sp)
 1009fe6:	7361                	lui	t1,0xffff8
 1009fe8:	0068                	addi	a0,sp,12
 1009fea:	0000                	unimp
 1009fec:	0000                	unimp
 1009fee:	0000                	unimp
 1009ff0:	7325                	lui	t1,0xfffe9
 1009ff2:	2520                	fld	fs0,72(a0)
 1009ff4:	4d203a73          	csrrc	s4,0x4d2,zero
 1009ff8:	6361                	lui	t1,0x18
 1009ffa:	6f72                	ld	t5,280(sp)
 1009ffc:	696e                	ld	s2,216(sp)
 1009ffe:	2078                	fld	fa4,192(s0)
 100a000:	7551                	lui	a0,0xffff4
 100a002:	6461                	lui	s0,0x18
 100a004:	6220                	ld	s0,64(a2)
 100a006:	7469                	lui	s0,0xffffa
 100a008:	6e20                	ld	s0,88(a2)
 100a00a:	7320746f          	jal	s0,101173c <__spl_src_start+0x4654>
 100a00e:	7465                	lui	s0,0xffff9
 100a010:	000a                	c.slli	zero,0x2
 100a012:	0000                	unimp
 100a014:	0000                	unimp
 100a016:	0000                	unimp
 100a018:	6e65                	lui	t3,0x19
 100a01a:	6261                	lui	tp,0x18
 100a01c:	696c                	ld	a1,208(a0)
 100a01e:	676e                	ld	a4,216(sp)
 100a020:	7220                	ld	s0,96(a2)
 100a022:	7365                	lui	t1,0xffff9
 100a024:	7465                	lui	s0,0xffff9
 100a026:	6820                	ld	s0,80(s0)
 100a028:	6361                	lui	t1,0x18
 100a02a:	6d203b6b          	0x6d203b6b
 100a02e:	7961                	lui	s2,0xffff8
 100a030:	6e20                	ld	s0,88(a2)
 100a032:	7220746f          	jal	s0,1011754 <__spl_src_start+0x466c>
 100a036:	6365                	lui	t1,0x19
 100a038:	7265766f          	jal	a2,106175e <__spl_src_start+0x54676>
 100a03c:	6620                	ld	s0,72(a2)
 100a03e:	6f72                	ld	t5,280(sp)
 100a040:	206d                	0x206d
 100a042:	6e75                	lui	t3,0x1d
 100a044:	7865                	lui	a6,0xffff9
 100a046:	6570                	ld	a2,200(a0)
 100a048:	64657463          	bgeu	a0,t1,100a690 <__spl_start+0x91a0>
 100a04c:	7220                	ld	s0,96(a2)
 100a04e:	6265                	lui	tp,0x19
 100a050:	73746f6f          	jal	t5,1050f86 <__spl_src_start+0x43e9e>
 100a054:	000a                	c.slli	zero,0x2
 100a056:	0000                	unimp
 100a058:	7325                	lui	t1,0xfffe9
 100a05a:	2520                	fld	fs0,72(a0)
 100a05c:	66203a73          	csrrc	s4,0x662,zero
 100a060:	616c                	ld	a1,192(a0)
 100a062:	6f206873          	csrrsi	a6,0x6f2,0
 100a066:	6570                	ld	a2,200(a0)
 100a068:	6172                	ld	sp,280(sp)
 100a06a:	6974                	ld	a3,208(a0)
 100a06c:	74206e6f          	jal	t3,10107ae <__spl_src_start+0x36c6>
 100a070:	6d69                	lui	s10,0x1a
 100a072:	6465                	lui	s0,0x19
 100a074:	6f20                	ld	s0,88(a4)
 100a076:	7475                	lui	s0,0xffffd
 100a078:	000a                	c.slli	zero,0x2
 100a07a:	0000                	unimp
 100a07c:	0000                	unimp
 100a07e:	0000                	unimp
 100a080:	6475                	lui	s0,0x1d
 100a082:	7665                	lui	a2,0xffff9
 100a084:	6369                	lui	t1,0x1a
 100a086:	2065                	0x2065
 100a088:	292a                	fld	fs2,136(sp)
 100a08a:	0000                	unimp
 100a08c:	0000                	unimp
 100a08e:	0000                	unimp
 100a090:	4e28                	lw	a0,88(a2)
 100a092:	4c55                	li	s8,21
 100a094:	004c                	addi	a1,sp,4
 100a096:	0000                	unimp
 100a098:	2d697073          	csrci	0x2d6,18
 100a09c:	616d                	addi	sp,sp,240
 100a09e:	2d78                	fld	fa4,216(a0)
 100a0a0:	7266                	ld	tp,120(sp)
 100a0a2:	7165                	addi	sp,sp,-400
 100a0a4:	6575                	lui	a0,0x1d
 100a0a6:	636e                	ld	t1,216(sp)
 100a0a8:	0079                	c.nop	30
 100a0aa:	0000                	unimp
 100a0ac:	0000                	unimp
 100a0ae:	0000                	unimp
 100a0b0:	7325                	lui	t1,0xfffe9
 100a0b2:	2520                	fld	fs0,72(a0)
 100a0b4:	43203a73          	csrrc	s4,0x432,zero
 100a0b8:	6e61                	lui	t3,0x18
 100a0ba:	6f6e                	ld	t5,216(sp)
 100a0bc:	2074                	fld	fa3,192(s0)
 100a0be:	20746573          	csrrsi	a0,0x207,8
 100a0c2:	65657073          	csrci	0x656,10
 100a0c6:	2064                	fld	fs1,192(s0)
 100a0c8:	6528                	ld	a0,72(a0)
 100a0ca:	7272                	ld	tp,312(sp)
 100a0cc:	253d                	addiw	a0,a0,15
 100a0ce:	2964                	fld	fs1,208(a0)
 100a0d0:	000a                	c.slli	zero,0x2
 100a0d2:	0000                	unimp
 100a0d4:	0000                	unimp
 100a0d6:	0000                	unimp
 100a0d8:	7325                	lui	t1,0xfffe9
 100a0da:	2520                	fld	fs0,72(a0)
 100a0dc:	43203a73          	csrrc	s4,0x432,zero
 100a0e0:	6e61                	lui	t3,0x18
 100a0e2:	6f6e                	ld	t5,216(sp)
 100a0e4:	2074                	fld	fa3,192(s0)
 100a0e6:	20746573          	csrrsi	a0,0x207,8
 100a0ea:	6f6d                	lui	t5,0x1b
 100a0ec:	6564                	ld	s1,200(a0)
 100a0ee:	2820                	fld	fs0,80(s0)
 100a0f0:	7265                	lui	tp,0xffff9
 100a0f2:	3d72                	fld	fs10,312(sp)
 100a0f4:	6425                	lui	s0,0x9
 100a0f6:	0a29                	addi	s4,s4,10
	...
 100a100:	2d697073          	csrci	0x2d6,18
 100a104:	6c6f7063          	bgeu	t5,t1,100a7c4 <__spl_start+0x92d4>
	...
 100a110:	2d697073          	csrci	0x2d6,18
 100a114:	61687063          	bgeu	a6,s6,100a714 <__spl_start+0x9224>
	...
 100a120:	2d697073          	csrci	0x2d6,18
 100a124:	682d7363          	bgeu	s10,sp,100a7aa <__spl_start+0x92ba>
 100a128:	6769                	lui	a4,0x1a
 100a12a:	0068                	addi	a0,sp,12
 100a12c:	0000                	unimp
 100a12e:	0000                	unimp
 100a130:	2d697073          	csrci	0x2d6,18
 100a134:	72697733          	0x72697733
 100a138:	0065                	c.nop	25
 100a13a:	0000                	unimp
 100a13c:	0000                	unimp
 100a13e:	0000                	unimp
 100a140:	2d697073          	csrci	0x2d6,18
 100a144:	6168                	ld	a0,192(a0)
 100a146:	666c                	ld	a1,200(a2)
 100a148:	642d                	lui	s0,0xb
 100a14a:	7075                	c.lui	zero,0xffffd
 100a14c:	656c                	ld	a1,200(a0)
 100a14e:	0078                	addi	a4,sp,12
 100a150:	2d697073          	csrci	0x2d6,18
 100a154:	7874                	ld	a3,240(s0)
 100a156:	622d                	lui	tp,0xb
 100a158:	7375                	lui	t1,0xffffd
 100a15a:	772d                	lui	a4,0xfffeb
 100a15c:	6469                	lui	s0,0x1a
 100a15e:	6874                	ld	a3,208(s0)
	...
 100a168:	2d697073          	csrci	0x2d6,18
 100a16c:	7872                	ld	a6,312(sp)
 100a16e:	622d                	lui	tp,0xb
 100a170:	7375                	lui	t1,0xffffd
 100a172:	772d                	lui	a4,0xfffeb
 100a174:	6469                	lui	s0,0x1a
 100a176:	6874                	ld	a3,208(s0)
	...
 100a180:	6466                	ld	s0,88(sp)
 100a182:	0074                	addi	a3,sp,12
 100a184:	0000                	unimp
 100a186:	0000                	unimp
 100a188:	6e6e6163          	bltu	t3,t1,100a86a <__spl_start+0x937a>
 100a18c:	6620746f          	jal	s0,10117ee <__spl_src_start+0x4706>
 100a190:	6e69                	lui	t3,0x1a
 100a192:	2064                	fld	fs1,192(s0)
 100a194:	6d69                	lui	s10,0x1a
 100a196:	6761                	lui	a4,0x18
 100a198:	2065                	0x2065
 100a19a:	6f6e                	ld	t5,216(sp)
 100a19c:	6564                	ld	s1,200(a0)
 100a19e:	2720                	fld	fs0,72(a4)
 100a1a0:	7325                	lui	t1,0xfffe9
 100a1a2:	25203a27          	fsd	fs2,596(zero) # 254 <_start-0xfffdac>
 100a1a6:	0a64                	addi	s1,sp,284
	...
 100a1b0:	6f4e                	ld	t5,208(sp)
 100a1b2:	6420                	ld	s0,72(s0)
 100a1b4:	7665                	lui	a2,0xffff9
 100a1b6:	6369                	lui	t1,0x1a
 100a1b8:	2065                	0x2065
 100a1ba:	7274                	ld	a3,224(a2)
 100a1bc:	6565                	lui	a0,0x19
 100a1be:	7320                	ld	s0,96(a4)
 100a1c0:	6570                	ld	a2,200(a0)
 100a1c2:	69666963          	bltu	a2,s6,100a854 <__spl_start+0x9364>
 100a1c6:	6465                	lui	s0,0x19
 100a1c8:	6920                	ld	s0,80(a0)
 100a1ca:	206e                	fld	ft0,216(sp)
 100a1cc:	204c5053          	0x204c5053
 100a1d0:	6d69                	lui	s10,0x1a
 100a1d2:	6761                	lui	a4,0x18
 100a1d4:	0a65                	addi	s4,s4,25
 100a1d6:	0000                	unimp
 100a1d8:	7469662f          	0x7469662f
 100a1dc:	692d                	lui	s2,0xb
 100a1de:	616d                	addi	sp,sp,240
 100a1e0:	00736567          	0x736567
 100a1e4:	0000                	unimp
 100a1e6:	0000                	unimp
 100a1e8:	276e6143          	fmadd.q	ft2,ft8,fs6,ft4,unknown
 100a1ec:	2074                	fld	fa3,192(s0)
 100a1ee:	6966                	ld	s2,88(sp)
 100a1f0:	646e                	ld	s0,216(sp)
 100a1f2:	5520                	lw	s0,104(a0)
 100a1f4:	422d                	li	tp,11
 100a1f6:	20746f6f          	jal	t5,1050bfc <__spl_src_start+0x43b14>
 100a1fa:	6f6e                	ld	t5,216(sp)
 100a1fc:	6564                	ld	s1,200(a0)
 100a1fe:	202c                	fld	fa1,64(s0)
 100a200:	6425                	lui	s0,0x9
 100a202:	000a                	c.slli	zero,0x2
 100a204:	0000                	unimp
 100a206:	0000                	unimp
 100a208:	276e6143          	fmadd.q	ft2,ft8,fs6,ft4,unknown
 100a20c:	2074                	fld	fa3,192(s0)
 100a20e:	6f6c                	ld	a1,216(a4)
 100a210:	6461                	lui	s0,0x18
 100a212:	2520                	fld	fs0,72(a0)
 100a214:	4e203a73          	csrrc	s4,0x4e2,zero
 100a218:	6f6c206f          	j	10cc90e <__spl_src_start+0xbf826>
 100a21c:	6461                	lui	s0,0x18
 100a21e:	6120                	ld	s0,64(a0)
 100a220:	6464                	ld	s1,200(s0)
 100a222:	6572                	ld	a0,280(sp)
 100a224:	61207373          	csrrci	t1,0x612,0
 100a228:	646e                	ld	s0,216(sp)
 100a22a:	6e20                	ld	s0,88(a2)
 100a22c:	7562206f          	j	102c982 <__spl_src_start+0x1f89a>
 100a230:	6666                	ld	a2,88(sp)
 100a232:	7265                	lui	tp,0xffff9
 100a234:	000a                	c.slli	zero,0x2
 100a236:	0000                	unimp
 100a238:	6e6e6143          	fmadd.q	ft2,ft8,ft6,fa3,unknown
 100a23c:	6720746f          	jal	s0,10118ae <__spl_src_start+0x47c6>
 100a240:	7465                	lui	s0,0xffff9
 100a242:	6920                	ld	s0,80(a0)
 100a244:	616d                	addi	sp,sp,240
 100a246:	64206567          	0x64206567
 100a24a:	7461                	lui	s0,0xffff8
 100a24c:	2f61                	addiw	t5,t5,24
 100a24e:	657a6973          	csrrsi	s2,0x657,20
 100a252:	000a                	c.slli	zero,0x2
 100a254:	0000                	unimp
 100a256:	0000                	unimp
 100a258:	6c756f43          	0x6c756f43
 100a25c:	2064                	fld	fs1,192(s0)
 100a25e:	6f6e                	ld	t5,216(sp)
 100a260:	2074                	fld	fa3,192(s0)
 100a262:	20746567          	0x20746567
 100a266:	4946                	lw	s2,80(sp)
 100a268:	2054                	fld	fa3,128(s0)
 100a26a:	7562                	ld	a0,56(sp)
 100a26c:	6666                	ld	a2,88(sp)
 100a26e:	7265                	lui	tp,0xffff9
 100a270:	6f20                	ld	s0,88(a4)
 100a272:	2066                	fld	ft0,88(sp)
 100a274:	6c25                	lui	s8,0x9
 100a276:	2075                	0x2075
 100a278:	7962                	ld	s2,56(sp)
 100a27a:	6574                	ld	a3,200(a0)
 100a27c:	00000a73          	0xa73
 100a280:	6309                	lui	t1,0x2
 100a282:	6568                	ld	a0,200(a0)
 100a284:	43206b63          	bltu	zero,s2,100a6ba <__spl_start+0x91ca>
 100a288:	49464e4f          	fnmadd.s	ft8,fa2,fs4,fs1,rmm
 100a28c:	59535f47          	fmsub.s	ft10,ft6,fs5,fa1,unknown
 100a290:	50535f53          	0x50535f53
 100a294:	5f4c                	lw	a1,60(a4)
 100a296:	414d                	li	sp,19
 100a298:	4c4c                	lw	a1,28(s0)
 100a29a:	535f434f          	fnmadd.d	ft6,ft10,fs5,fa0,rmm
 100a29e:	5a49                	li	s4,-14
 100a2a0:	0a45                	addi	s4,s4,17
 100a2a2:	0000                	unimp
 100a2a4:	0000                	unimp
 100a2a6:	0000                	unimp
 100a2a8:	616d692f          	0x616d692f
 100a2ac:	00736567          	0x736567
 100a2b0:	6966                	ld	s2,88(sp)
 100a2b2:	6d72                	ld	s10,280(sp)
 100a2b4:	65726177          	0x65726177
	...
 100a2c0:	6f6c                	ld	a1,216(a4)
 100a2c2:	6461                	lui	s0,0x18
 100a2c4:	6261                	lui	tp,0x18
 100a2c6:	656c                	ld	a1,200(a0)
 100a2c8:	00000073          	ecall
 100a2cc:	0000                	unimp
 100a2ce:	0000                	unimp
 100a2d0:	7325                	lui	t1,0xfffe9
 100a2d2:	203a                	fld	ft0,392(sp)
 100a2d4:	276e6163          	bltu	t3,s6,100a536 <__spl_start+0x9046>
 100a2d8:	2074                	fld	fa3,192(s0)
 100a2da:	6f6c                	ld	a1,216(a4)
 100a2dc:	6461                	lui	s0,0x18
 100a2de:	6920                	ld	s0,80(a0)
 100a2e0:	616d                	addi	sp,sp,240
 100a2e2:	6c206567          	0x6c206567
 100a2e6:	6164616f          	jal	sp,10508fc <__spl_src_start+0x43814>
 100a2ea:	6c62                	ld	s8,24(sp)
 100a2ec:	7365                	lui	t1,0xffff9
 100a2ee:	6920                	ld	s0,80(a0)
 100a2f0:	646e                	ld	s0,216(sp)
 100a2f2:	7865                	lui	a6,0xffff9
 100a2f4:	2520                	fld	fs0,72(a0)
 100a2f6:	2064                	fld	fs1,192(s0)
 100a2f8:	7228                	ld	a0,96(a2)
 100a2fa:	7465                	lui	s0,0xffff9
 100a2fc:	3d20                	fld	fs0,120(a0)
 100a2fe:	2520                	fld	fs0,72(a0)
 100a300:	2964                	fld	fs1,208(a0)
 100a302:	000a                	c.slli	zero,0x2
 100a304:	0000                	unimp
 100a306:	0000                	unimp
 100a308:	7974                	ld	a3,240(a0)
 100a30a:	6570                	ld	a2,200(a0)
 100a30c:	0000                	unimp
 100a30e:	0000                	unimp
 100a310:	0000736f          	jal	t1,1011310 <__spl_src_start+0x4228>
 100a314:	0000                	unimp
 100a316:	0000                	unimp
 100a318:	2d55                	addiw	s10,s10,21
 100a31a:	6f42                	ld	t5,16(sp)
 100a31c:	0000746f          	jal	s0,101131c <__spl_src_start+0x4234>
 100a320:	20495053          	0x20495053
 100a324:	7270                	ld	a2,224(a2)
 100a326:	2065626f          	jal	tp,106052c <__spl_src_start+0x53444>
 100a32a:	6166                	ld	sp,88(sp)
 100a32c:	6c69                	lui	s8,0x1a
 100a32e:	6465                	lui	s0,0x19
 100a330:	0a2e                	slli	s4,s4,0xb
 100a332:	0000                	unimp
 100a334:	0000                	unimp
 100a336:	0000                	unimp
 100a338:	2d75                	addiw	s10,s10,29
 100a33a:	6f62                	ld	t5,24(sp)
 100a33c:	732c746f          	jal	s0,10d1a6e <__spl_src_start+0xc4986>
 100a340:	6c70                	ld	a2,216(s0)
 100a342:	702d                	c.lui	zero,0xfffeb
 100a344:	7961                	lui	s2,0xffff8
 100a346:	6f6c                	ld	a1,216(a4)
 100a348:	6461                	lui	s0,0x18
 100a34a:	6f2d                	lui	t5,0xb
 100a34c:	6666                	ld	a2,88(sp)
 100a34e:	00746573          	csrrsi	a0,0x7,8
 100a352:	0000                	unimp
 100a354:	0000                	unimp
 100a356:	0000                	unimp
 100a358:	6e49                	lui	t3,0x12
 100a35a:	75727473          	csrrci	s0,0x757,4
 100a35e:	6f697463          	bgeu	s2,s6,100aa46 <__spl_start+0x9556>
 100a362:	206e                	fld	ft0,216(sp)
 100a364:	6461                	lui	s0,0x18
 100a366:	7264                	ld	s1,224(a2)
 100a368:	7365                	lui	t1,0xffff9
 100a36a:	696d2073          	csrs	0x696,s10
 100a36e:	696c6173          	csrrsi	sp,0x696,24
 100a372:	64656e67          	0x64656e67
 100a376:	0000                	unimp
 100a378:	6e49                	lui	t3,0x12
 100a37a:	75727473          	csrrci	s0,0x757,4
 100a37e:	6f697463          	bgeu	s2,s6,100aa66 <__spl_start+0x9576>
 100a382:	206e                	fld	ft0,216(sp)
 100a384:	6361                	lui	t1,0x18
 100a386:	73736563          	bltu	t1,s7,100aab0 <__spl_start+0x95c0>
 100a38a:	6620                	ld	s0,72(a2)
 100a38c:	7561                	lui	a0,0xffff8
 100a38e:	746c                	ld	a1,232(s0)
	...
 100a398:	6c49                	lui	s8,0x12
 100a39a:	656c                	ld	a1,200(a0)
 100a39c:	206c6167          	0x206c6167
 100a3a0:	6e69                	lui	t3,0x1a
 100a3a2:	75727473          	csrrci	s0,0x757,4
 100a3a6:	6f697463          	bgeu	s2,s6,100aa8e <__spl_start+0x959e>
 100a3aa:	006e                	c.slli	zero,0x1b
 100a3ac:	0000                	unimp
 100a3ae:	0000                	unimp
 100a3b0:	7242                	ld	tp,48(sp)
 100a3b2:	6165                	addi	sp,sp,112
 100a3b4:	696f706b          	0x696f706b
 100a3b8:	746e                	ld	s0,248(sp)
 100a3ba:	0000                	unimp
 100a3bc:	0000                	unimp
 100a3be:	0000                	unimp
 100a3c0:	6f4c                	ld	a1,152(a4)
 100a3c2:	6461                	lui	s0,0x18
 100a3c4:	6120                	ld	s0,64(a0)
 100a3c6:	6464                	ld	s1,200(s0)
 100a3c8:	6572                	ld	a0,280(sp)
 100a3ca:	6d207373          	csrrci	t1,0x6d2,0
 100a3ce:	7369                	lui	t1,0xffffa
 100a3d0:	6c61                	lui	s8,0x18
 100a3d2:	6769                	lui	a4,0x1a
 100a3d4:	656e                	ld	a0,216(sp)
 100a3d6:	0064                	addi	s1,sp,12
 100a3d8:	6f4c                	ld	a1,152(a4)
 100a3da:	6461                	lui	s0,0x18
 100a3dc:	6120                	ld	s0,64(a0)
 100a3de:	73656363          	bltu	a0,s6,100ab04 <__spl_start+0x9614>
 100a3e2:	61662073          	csrs	0x616,a2
 100a3e6:	6c75                	lui	s8,0x1d
 100a3e8:	0074                	addi	a3,sp,12
 100a3ea:	0000                	unimp
 100a3ec:	0000                	unimp
 100a3ee:	0000                	unimp
 100a3f0:	726f7453          	0x726f7453
 100a3f4:	2f65                	addiw	t5,t5,25
 100a3f6:	4d41                	li	s10,16
 100a3f8:	6461204f          	0x6461204f
 100a3fc:	7264                	ld	s1,224(a2)
 100a3fe:	7365                	lui	t1,0xffff9
 100a400:	696d2073          	csrs	0x696,s10
 100a404:	696c6173          	csrrsi	sp,0x696,24
 100a408:	64656e67          	0x64656e67
 100a40c:	0000                	unimp
 100a40e:	0000                	unimp
 100a410:	726f7453          	0x726f7453
 100a414:	2f65                	addiw	t5,t5,25
 100a416:	4d41                	li	s10,16
 100a418:	6361204f          	fnmadd.d	ft0,ft2,fs6,fa2,rdn
 100a41c:	73736563          	bltu	t1,s7,100ab46 <__spl_start+0x9656>
 100a420:	6620                	ld	s0,72(a2)
 100a422:	7561                	lui	a0,0xffff8
 100a424:	746c                	ld	a1,232(s0)
 100a426:	0000                	unimp
 100a428:	6e45                	lui	t3,0x11
 100a42a:	6976                	ld	s2,344(sp)
 100a42c:	6f72                	ld	t5,280(sp)
 100a42e:	6d6e                	ld	s10,216(sp)
 100a430:	6e65                	lui	t3,0x19
 100a432:	2074                	fld	fa3,192(s0)
 100a434:	6c6c6163          	bltu	s8,t1,100aaf6 <__spl_start+0x9606>
 100a438:	6620                	ld	s0,72(a2)
 100a43a:	6f72                	ld	t5,280(sp)
 100a43c:	206d                	0x206d
 100a43e:	2d55                	addiw	s10,s10,21
 100a440:	6f6d                	lui	t5,0x1b
 100a442:	6564                	ld	s1,200(a0)
 100a444:	0000                	unimp
 100a446:	0000                	unimp
 100a448:	6e45                	lui	t3,0x11
 100a44a:	6976                	ld	s2,344(sp)
 100a44c:	6f72                	ld	t5,280(sp)
 100a44e:	6d6e                	ld	s10,216(sp)
 100a450:	6e65                	lui	t3,0x19
 100a452:	2074                	fld	fa3,192(s0)
 100a454:	6c6c6163          	bltu	s8,t1,100ab16 <__spl_start+0x9626>
 100a458:	6620                	ld	s0,72(a2)
 100a45a:	6f72                	ld	t5,280(sp)
 100a45c:	206d                	0x206d
 100a45e:	6f6d2d53          	0x6f6d2d53
 100a462:	6564                	ld	s1,200(a0)
 100a464:	0000                	unimp
 100a466:	0000                	unimp
 100a468:	6552                	ld	a0,272(sp)
 100a46a:	76726573          	csrrsi	a0,0x767,4
 100a46e:	6465                	lui	s0,0x19
	...
 100a478:	6e45                	lui	t3,0x11
 100a47a:	6976                	ld	s2,344(sp)
 100a47c:	6f72                	ld	t5,280(sp)
 100a47e:	6d6e                	ld	s10,216(sp)
 100a480:	6e65                	lui	t3,0x19
 100a482:	2074                	fld	fa3,192(s0)
 100a484:	6c6c6163          	bltu	s8,t1,100ab46 <__spl_start+0x9656>
 100a488:	6620                	ld	s0,72(a2)
 100a48a:	6f72                	ld	t5,280(sp)
 100a48c:	206d                	0x206d
 100a48e:	2d4d                	addiw	s10,s10,19
 100a490:	6f6d                	lui	t5,0x1b
 100a492:	6564                	ld	s1,200(a0)
 100a494:	0000                	unimp
 100a496:	0000                	unimp
 100a498:	6e49                	lui	t3,0x12
 100a49a:	75727473          	csrrci	s0,0x757,4
 100a49e:	6f697463          	bgeu	s2,s6,100ab86 <__spl_start+0x9696>
 100a4a2:	206e                	fld	ft0,216(sp)
 100a4a4:	6170                	ld	a2,192(a0)
 100a4a6:	66206567          	0x66206567
 100a4aa:	7561                	lui	a0,0xffff8
 100a4ac:	746c                	ld	a1,232(s0)
 100a4ae:	0000                	unimp
 100a4b0:	6f4c                	ld	a1,152(a4)
 100a4b2:	6461                	lui	s0,0x18
 100a4b4:	7020                	ld	s0,96(s0)
 100a4b6:	6761                	lui	a4,0x18
 100a4b8:	2065                	0x2065
 100a4ba:	6166                	ld	sp,88(sp)
 100a4bc:	6c75                	lui	s8,0x1d
 100a4be:	0074                	addi	a3,sp,12
 100a4c0:	726f7453          	0x726f7453
 100a4c4:	2f65                	addiw	t5,t5,25
 100a4c6:	4d41                	li	s10,16
 100a4c8:	6170204f          	fnmadd.s	ft0,ft0,fs7,fa2,rdn
 100a4cc:	66206567          	0x66206567
 100a4d0:	7561                	lui	a0,0xffff8
 100a4d2:	746c                	ld	a1,232(s0)
 100a4d4:	0000                	unimp
 100a4d6:	0000                	unimp
 100a4d8:	00495053          	fadd.s	ft0,fs2,ft4,unknown
 100a4dc:	0000                	unimp
 100a4de:	0000                	unimp
 100a4e0:	4152                	lw	sp,20(sp)
 100a4e2:	004d                	c.nop	19
 100a4e4:	0000                	unimp
 100a4e6:	0000                	unimp
 100a4e8:	7261                	lui	tp,0xffff8
 100a4ea:	74696863          	bltu	s2,t1,100ac3a <__spl_start+0x974a>
 100a4ee:	6365                	lui	t1,0x19
 100a4f0:	7574                	ld	a3,232(a0)
 100a4f2:	6572                	ld	a0,280(sp)
 100a4f4:	0000                	unimp
 100a4f6:	0000                	unimp
 100a4f8:	706d6f63          	bltu	s10,t1,100ac16 <__spl_start+0x9726>
 100a4fc:	6572                	ld	a0,280(sp)
 100a4fe:	6f697373          	csrrci	t1,0x6f6,18
 100a502:	006e                	c.slli	zero,0x1b
 100a504:	0000                	unimp
 100a506:	0000                	unimp
 100a508:	7265706f          	j	1061c2e <__spl_src_start+0x54b46>
 100a50c:	7461                	lui	s0,0xffff8
 100a50e:	6e69                	lui	t3,0x1a
 100a510:	79732067          	0x79732067
 100a514:	6d657473          	csrrci	s0,0x6d6,10
	...
 100a520:	6d69                	lui	s10,0x1a
 100a522:	6761                	lui	a4,0x18
 100a524:	2065                	0x2065
 100a526:	7974                	ld	a3,240(a0)
 100a528:	6570                	ld	a2,200(a0)
 100a52a:	0000                	unimp
 100a52c:	0000                	unimp
 100a52e:	0000                	unimp
 100a530:	7a62                	ld	s4,56(sp)
 100a532:	7069                	c.lui	zero,0xffffa
 100a534:	0032                	c.slli	zero,0xc
 100a536:	0000                	unimp
 100a538:	70697a67          	0x70697a67
 100a53c:	0000                	unimp
 100a53e:	0000                	unimp
 100a540:	7a6c                	ld	a1,240(a2)
 100a542:	616d                	addi	sp,sp,240
 100a544:	0000                	unimp
 100a546:	0000                	unimp
 100a548:	7a6c                	ld	a1,240(a2)
 100a54a:	0000006f          	j	100a54a <__spl_start+0x905a>
 100a54e:	0000                	unimp
 100a550:	6f6e                	ld	t5,216(sp)
 100a552:	656e                	ld	a0,216(sp)
 100a554:	0000                	unimp
 100a556:	0000                	unimp
 100a558:	6e75                	lui	t3,0x1d
 100a55a:	706d6f63          	bltu	s10,t1,100ac78 <__spl_start+0x9788>
 100a55e:	6572                	ld	a0,280(sp)
 100a560:	64657373          	csrrci	t1,0x646,10
 100a564:	0000                	unimp
 100a566:	0000                	unimp
 100a568:	7a62                	ld	s4,56(sp)
 100a56a:	7069                	c.lui	zero,0xffffa
 100a56c:	2032                	fld	ft0,264(sp)
 100a56e:	706d6f63          	bltu	s10,t1,100ac8c <__spl_start+0x979c>
 100a572:	6572                	ld	a0,280(sp)
 100a574:	64657373          	csrrci	t1,0x646,10
	...
 100a580:	70697a67          	0x70697a67
 100a584:	6320                	ld	s0,64(a4)
 100a586:	72706d6f          	jal	s10,10114ac <__spl_src_start+0x43c4>
 100a58a:	7365                	lui	t1,0xffff9
 100a58c:	00646573          	csrrsi	a0,0x6,8
 100a590:	7a6c                	ld	a1,240(a2)
 100a592:	616d                	addi	sp,sp,240
 100a594:	6320                	ld	s0,64(a4)
 100a596:	72706d6f          	jal	s10,10114bc <__spl_src_start+0x43d4>
 100a59a:	7365                	lui	t1,0xffff9
 100a59c:	00646573          	csrrsi	a0,0x6,8
 100a5a0:	7a6c                	ld	a1,240(a2)
 100a5a2:	6f63206f          	j	103cc98 <__spl_src_start+0x2fbb0>
 100a5a6:	706d                	c.lui	zero,0xffffb
 100a5a8:	6572                	ld	a0,280(sp)
 100a5aa:	64657373          	csrrci	t1,0x646,10
 100a5ae:	0000                	unimp
 100a5b0:	7a6c                	ld	a1,240(a2)
 100a5b2:	0034                	addi	a3,sp,8
 100a5b4:	0000                	unimp
 100a5b6:	0000                	unimp
 100a5b8:	7a6c                	ld	a1,240(a2)
 100a5ba:	2034                	fld	fa3,64(s0)
 100a5bc:	706d6f63          	bltu	s10,t1,100acda <__spl_start+0x97ea>
 100a5c0:	6572                	ld	a0,280(sp)
 100a5c2:	64657373          	csrrci	t1,0x646,10
 100a5c6:	0000                	unimp
 100a5c8:	737a                	ld	t1,440(sp)
 100a5ca:	6474                	ld	a3,200(s0)
 100a5cc:	0000                	unimp
 100a5ce:	0000                	unimp
 100a5d0:	737a                	ld	t1,440(sp)
 100a5d2:	6474                	ld	a3,200(s0)
 100a5d4:	6320                	ld	s0,64(a4)
 100a5d6:	72706d6f          	jal	s10,10114fc <__spl_src_start+0x4414>
 100a5da:	7365                	lui	t1,0xffff9
 100a5dc:	00646573          	csrrsi	a0,0x6,8
 100a5e0:	6961                	lui	s2,0x18
 100a5e2:	616d6973          	csrrsi	s2,0x616,26
 100a5e6:	00006567          	0x6567
 100a5ea:	0000                	unimp
 100a5ec:	0000                	unimp
 100a5ee:	0000                	unimp
 100a5f0:	6144                	ld	s1,128(a0)
 100a5f2:	6976                	ld	s2,344(sp)
 100a5f4:	636e                	ld	t1,216(sp)
 100a5f6:	2069                	0x2069
 100a5f8:	4941                	li	s2,16
 100a5fa:	6d692053          	0x6d692053
 100a5fe:	6761                	lui	a4,0x18
 100a600:	0065                	c.nop	25
 100a602:	0000                	unimp
 100a604:	0000                	unimp
 100a606:	0000                	unimp
 100a608:	6966                	ld	s2,88(sp)
 100a60a:	656c                	ld	a1,200(a0)
 100a60c:	74737973          	csrrci	s2,0x747,6
 100a610:	6d65                	lui	s10,0x19
 100a612:	0000                	unimp
 100a614:	0000                	unimp
 100a616:	0000                	unimp
 100a618:	6946                	ld	s2,80(sp)
 100a61a:	656c                	ld	a1,200(a0)
 100a61c:	74737973          	csrrci	s2,0x747,6
 100a620:	6d65                	lui	s10,0x19
 100a622:	4920                	lw	s0,80(a0)
 100a624:	616d                	addi	sp,sp,240
 100a626:	00006567          	0x6567
 100a62a:	0000                	unimp
 100a62c:	0000                	unimp
 100a62e:	0000                	unimp
 100a630:	6946                	ld	s2,80(sp)
 100a632:	6d72                	ld	s10,280(sp)
 100a634:	65726177          	0x65726177
	...
 100a640:	6c66                	ld	s8,88(sp)
 100a642:	7461                	lui	s0,0xffff8
 100a644:	645f 0074 6c46      	0x6c460074645f
 100a64a:	7461                	lui	s0,0xffff8
 100a64c:	4420                	lw	s0,72(s0)
 100a64e:	7665                	lui	a2,0xffff9
 100a650:	6369                	lui	t1,0x1a
 100a652:	2065                	0x2065
 100a654:	7254                	ld	a3,160(a2)
 100a656:	6565                	lui	a0,0x19
	...
 100a660:	6d697067          	0x6d697067
 100a664:	6761                	lui	a4,0x18
 100a666:	0065                	c.nop	25
 100a668:	4954                	lw	a3,20(a0)
 100a66a:	4b20                	lw	s0,80(a4)
 100a66c:	7965                	lui	s2,0xffff9
 100a66e:	6e6f7473          	csrrci	s0,0x6e6,30
 100a672:	2065                	0x2065
 100a674:	204c5053          	0x204c5053
 100a678:	6d49                	lui	s10,0x12
 100a67a:	6761                	lui	a4,0x18
 100a67c:	0065                	c.nop	25
 100a67e:	0000                	unimp
 100a680:	6e72656b          	0x6e72656b
 100a684:	6c65                	lui	s8,0x19
 100a686:	0000                	unimp
 100a688:	6e72654b          	fnmsub.q	fa0,ft4,ft7,fa3,unknown
 100a68c:	6c65                	lui	s8,0x19
 100a68e:	4920                	lw	s0,80(a0)
 100a690:	616d                	addi	sp,sp,240
 100a692:	00006567          	0x6567
 100a696:	0000                	unimp
 100a698:	6e72656b          	0x6e72656b
 100a69c:	6c65                	lui	s8,0x19
 100a69e:	6e5f 6c6f 616f      	0x616f6c6f6e5f
 100a6a4:	0064                	addi	s1,sp,12
 100a6a6:	0000                	unimp
 100a6a8:	6e72654b          	fnmsub.q	fa0,ft4,ft7,fa3,unknown
 100a6ac:	6c65                	lui	s8,0x19
 100a6ae:	4920                	lw	s0,80(a0)
 100a6b0:	616d                	addi	sp,sp,240
 100a6b2:	28206567          	0x28206567
 100a6b6:	6f6e                	ld	t5,216(sp)
 100a6b8:	6c20                	ld	s0,88(s0)
 100a6ba:	6964616f          	jal	sp,1050d50 <__spl_src_start+0x43c68>
 100a6be:	676e                	ld	a4,216(sp)
 100a6c0:	6420                	ld	s0,72(s0)
 100a6c2:	29656e6f          	jal	t3,1060958 <__spl_src_start+0x53870>
 100a6c6:	0000                	unimp
 100a6c8:	6962776b          	0x6962776b
 100a6cc:	616d                	addi	sp,sp,240
 100a6ce:	00006567          	0x6567
 100a6d2:	0000                	unimp
 100a6d4:	0000                	unimp
 100a6d6:	0000                	unimp
 100a6d8:	6b72694b          	fnmsub.d	fs2,ft4,fs7,fa3,unknown
 100a6dc:	646f6f77          	0x646f6f77
 100a6e0:	4220                	lw	s0,64(a2)
 100a6e2:	20746f6f          	jal	t5,10510e8 <__spl_src_start+0x44000>
 100a6e6:	6d49                	lui	s10,0x12
 100a6e8:	6761                	lui	a4,0x18
 100a6ea:	0065                	c.nop	25
 100a6ec:	0000                	unimp
 100a6ee:	0000                	unimp
 100a6f0:	6d69                	lui	s10,0x1a
 100a6f2:	6978                	ld	a4,208(a0)
 100a6f4:	616d                	addi	sp,sp,240
 100a6f6:	00006567          	0x6567
 100a6fa:	0000                	unimp
 100a6fc:	0000                	unimp
 100a6fe:	0000                	unimp
 100a700:	7246                	ld	tp,112(sp)
 100a702:	6565                	lui	a0,0x19
 100a704:	6c616373          	csrrsi	t1,0x6c6,2
 100a708:	2065                	0x2065
 100a70a:	2e69                	addiw	t3,t3,26
 100a70c:	584d                	li	a6,-13
 100a70e:	4220                	lw	s0,64(a2)
 100a710:	20746f6f          	jal	t5,1051116 <__spl_src_start+0x4402e>
 100a714:	6d49                	lui	s10,0x12
 100a716:	6761                	lui	a4,0x18
 100a718:	0065                	c.nop	25
 100a71a:	0000                	unimp
 100a71c:	0000                	unimp
 100a71e:	0000                	unimp
 100a720:	6d69                	lui	s10,0x1a
 100a722:	3878                	fld	fa4,240(s0)
 100a724:	6d69                	lui	s10,0x1a
 100a726:	6761                	lui	a4,0x18
 100a728:	0065                	c.nop	25
 100a72a:	0000                	unimp
 100a72c:	0000                	unimp
 100a72e:	0000                	unimp
 100a730:	584e                	lw	a6,240(sp)
 100a732:	2050                	fld	fa2,128(s0)
 100a734:	2e69                	addiw	t3,t3,26
 100a736:	584d                	li	a6,-13
 100a738:	2038                	fld	fa4,64(s0)
 100a73a:	6f42                	ld	t5,16(sp)
 100a73c:	4920746f          	jal	s0,1011bce <__spl_src_start+0x4ae6>
 100a740:	616d                	addi	sp,sp,240
 100a742:	00006567          	0x6567
 100a746:	0000                	unimp
 100a748:	6d69                	lui	s10,0x1a
 100a74a:	3878                	fld	fa4,240(s0)
 100a74c:	696d                	lui	s2,0x1b
 100a74e:	616d                	addi	sp,sp,240
 100a750:	00006567          	0x6567
 100a754:	0000                	unimp
 100a756:	0000                	unimp
 100a758:	584e                	lw	a6,240(sp)
 100a75a:	2050                	fld	fa2,128(s0)
 100a75c:	2e69                	addiw	t3,t3,26
 100a75e:	584d                	li	a6,-13
 100a760:	4d38                	lw	a4,88(a0)
 100a762:	4220                	lw	s0,64(a2)
 100a764:	20746f6f          	jal	t5,105116a <__spl_src_start+0x44082>
 100a768:	6d49                	lui	s10,0x12
 100a76a:	6761                	lui	a4,0x18
 100a76c:	0065                	c.nop	25
 100a76e:	0000                	unimp
 100a770:	6e69                	lui	t3,0x1a
 100a772:	6176                	ld	sp,344(sp)
 100a774:	696c                	ld	a1,208(a0)
 100a776:	0064                	addi	s1,sp,12
 100a778:	6e49                	lui	t3,0x12
 100a77a:	6176                	ld	sp,344(sp)
 100a77c:	696c                	ld	a1,208(a0)
 100a77e:	2064                	fld	fs1,192(s0)
 100a780:	6d49                	lui	s10,0x12
 100a782:	6761                	lui	a4,0x18
 100a784:	0065                	c.nop	25
 100a786:	0000                	unimp
 100a788:	756d                	lui	a0,0xffffb
 100a78a:	746c                	ld	a1,232(s0)
 100a78c:	0069                	c.nop	26
 100a78e:	0000                	unimp
 100a790:	754d                	lui	a0,0xffff3
 100a792:	746c                	ld	a1,232(s0)
 100a794:	2d69                	addiw	s10,s10,26
 100a796:	6946                	ld	s2,80(sp)
 100a798:	656c                	ld	a1,200(a0)
 100a79a:	4920                	lw	s0,80(a0)
 100a79c:	616d                	addi	sp,sp,240
 100a79e:	00006567          	0x6567
 100a7a2:	0000                	unimp
 100a7a4:	0000                	unimp
 100a7a6:	0000                	unimp
 100a7a8:	70616d6f          	jal	s10,1020eae <__spl_src_start+0x13dc6>
 100a7ac:	6d69                	lui	s10,0x1a
 100a7ae:	6761                	lui	a4,0x18
 100a7b0:	0065                	c.nop	25
 100a7b2:	0000                	unimp
 100a7b4:	0000                	unimp
 100a7b6:	0000                	unimp
 100a7b8:	4954                	lw	a3,20(a0)
 100a7ba:	4f20                	lw	s0,88(a4)
 100a7bc:	414d                	li	sp,19
 100a7be:	2050                	fld	fa2,128(s0)
 100a7c0:	204c5053          	0x204c5053
 100a7c4:	68746957          	0x68746957
 100a7c8:	4720                	lw	s0,72(a4)
 100a7ca:	2050                	fld	fa2,128(s0)
 100a7cc:	00004843          	fmadd.s	fa6,ft0,ft0,ft0,rmm
 100a7d0:	6270                	ld	a2,192(a2)
 100a7d2:	696c                	ld	a1,208(a0)
 100a7d4:	616d                	addi	sp,sp,240
 100a7d6:	00006567          	0x6567
 100a7da:	0000                	unimp
 100a7dc:	0000                	unimp
 100a7de:	0000                	unimp
 100a7e0:	7246                	ld	tp,112(sp)
 100a7e2:	6565                	lui	a0,0x19
 100a7e4:	6c616373          	csrrsi	t1,0x6c6,2
 100a7e8:	2065                	0x2065
 100a7ea:	4250                	lw	a2,4(a2)
 100a7ec:	204c                	fld	fa1,128(s0)
 100a7ee:	6f42                	ld	t5,16(sp)
 100a7f0:	4920746f          	jal	s0,1011c82 <__spl_src_start+0x4b9a>
 100a7f4:	616d                	addi	sp,sp,240
 100a7f6:	00006567          	0x6567
 100a7fa:	0000                	unimp
 100a7fc:	0000                	unimp
 100a7fe:	0000                	unimp
 100a800:	4152                	lw	sp,20(sp)
 100a802:	444d                	li	s0,19
 100a804:	7369                	lui	t1,0xffffa
 100a806:	6d49206b          	0x6d49206b
 100a80a:	6761                	lui	a4,0x18
 100a80c:	0065                	c.nop	25
 100a80e:	0000                	unimp
 100a810:	69726373          	csrrsi	t1,0x697,4
 100a814:	7470                	ld	a2,232(s0)
 100a816:	0000                	unimp
 100a818:	69726353          	0x69726353
 100a81c:	7470                	ld	a2,232(s0)
 100a81e:	0000                	unimp
 100a820:	66636f73          	csrrsi	t5,0x666,6
 100a824:	6770                	ld	a2,200(a4)
 100a826:	6961                	lui	s2,0x18
 100a828:	616d                	addi	sp,sp,240
 100a82a:	00006567          	0x6567
 100a82e:	0000                	unimp
 100a830:	6c41                	lui	s8,0x10
 100a832:	6574                	ld	a3,200(a0)
 100a834:	6172                	ld	sp,280(sp)
 100a836:	5320                	lw	s0,96(a4)
 100a838:	5046436f          	jal	t1,106ed3c <__spl_src_start+0x61c54>
 100a83c:	43204147          	fmsub.d	ft2,ft0,fs2,fs0,rmm
 100a840:	2f56                	fld	ft10,336(sp)
 100a842:	5641                	li	a2,-16
 100a844:	7020                	ld	s0,96(s0)
 100a846:	6572                	ld	a0,280(sp)
 100a848:	6f6c                	ld	a1,216(a4)
 100a84a:	6461                	lui	s0,0x18
 100a84c:	7265                	lui	tp,0xffff9
 100a84e:	0000                	unimp
 100a850:	66636f73          	csrrsi	t5,0x666,6
 100a854:	6770                	ld	a2,200(a4)
 100a856:	6961                	lui	s2,0x18
 100a858:	616d                	addi	sp,sp,240
 100a85a:	765f6567          	0x765f6567
 100a85e:	0031                	c.nop	12
 100a860:	6c41                	lui	s8,0x10
 100a862:	6574                	ld	a3,200(a0)
 100a864:	6172                	ld	sp,280(sp)
 100a866:	5320                	lw	s0,96(a4)
 100a868:	5046436f          	jal	t1,106ed6c <__spl_src_start+0x61c84>
 100a86c:	41204147          	fmsub.s	ft2,ft0,fs2,fs0,rmm
 100a870:	3031                	0x3031
 100a872:	7020                	ld	s0,96(s0)
 100a874:	6572                	ld	a0,280(sp)
 100a876:	6f6c                	ld	a1,216(a4)
 100a878:	6461                	lui	s0,0x18
 100a87a:	7265                	lui	tp,0xffff9
 100a87c:	0000                	unimp
 100a87e:	0000                	unimp
 100a880:	6e617473          	csrrci	s0,0x6e6,2
 100a884:	6164                	ld	s1,192(a0)
 100a886:	6f6c                	ld	a1,216(a4)
 100a888:	656e                	ld	a0,216(sp)
 100a88a:	0000                	unimp
 100a88c:	0000                	unimp
 100a88e:	0000                	unimp
 100a890:	6e617453          	0x6e617453
 100a894:	6164                	ld	s1,192(a0)
 100a896:	6f6c                	ld	a1,216(a4)
 100a898:	656e                	ld	a0,216(sp)
 100a89a:	5020                	lw	s0,96(s0)
 100a89c:	6f72                	ld	t5,280(sp)
 100a89e:	6d617267          	0x6d617267
 100a8a2:	0000                	unimp
 100a8a4:	0000                	unimp
 100a8a6:	0000                	unimp
 100a8a8:	6275                	lui	tp,0x1d
 100a8aa:	696c                	ld	a1,208(a0)
 100a8ac:	616d                	addi	sp,sp,240
 100a8ae:	00006567          	0x6567
 100a8b2:	0000                	unimp
 100a8b4:	0000                	unimp
 100a8b6:	0000                	unimp
 100a8b8:	6144                	ld	s1,128(a0)
 100a8ba:	6976                	ld	s2,344(sp)
 100a8bc:	636e                	ld	t1,216(sp)
 100a8be:	2069                	0x2069
 100a8c0:	4255                	li	tp,21
 100a8c2:	204c                	fld	fa1,128(s0)
 100a8c4:	6d69                	lui	s10,0x1a
 100a8c6:	6761                	lui	a4,0x18
 100a8c8:	0065                	c.nop	25
 100a8ca:	0000                	unimp
 100a8cc:	0000                	unimp
 100a8ce:	0000                	unimp
 100a8d0:	786d                	lui	a6,0xffffb
 100a8d2:	616d6973          	csrrsi	s2,0x616,26
 100a8d6:	00006567          	0x6567
 100a8da:	0000                	unimp
 100a8dc:	0000                	unimp
 100a8de:	0000                	unimp
 100a8e0:	7246                	ld	tp,112(sp)
 100a8e2:	6565                	lui	a0,0x19
 100a8e4:	6c616373          	csrrsi	t1,0x6c6,2
 100a8e8:	2065                	0x2065
 100a8ea:	584d                	li	a6,-13
 100a8ec:	6f422053          	0x6f422053
 100a8f0:	4920746f          	jal	s0,1011d82 <__spl_src_start+0x4c9a>
 100a8f4:	616d                	addi	sp,sp,240
 100a8f6:	00006567          	0x6567
 100a8fa:	0000                	unimp
 100a8fc:	0000                	unimp
 100a8fe:	0000                	unimp
 100a900:	7461                	lui	s0,0xffff8
 100a902:	656d                	lui	a0,0x1b
 100a904:	696c                	ld	a1,208(a0)
 100a906:	616d                	addi	sp,sp,240
 100a908:	00006567          	0x6567
 100a90c:	0000                	unimp
 100a90e:	0000                	unimp
 100a910:	5441                	li	s0,-16
 100a912:	454d                	li	a0,19
 100a914:	204c                	fld	fa1,128(s0)
 100a916:	4f52                	lw	t5,20(sp)
 100a918:	2d4d                	addiw	s10,s10,19
 100a91a:	6f42                	ld	t5,16(sp)
 100a91c:	4920746f          	jal	s0,1011dae <__spl_src_start+0x4cc6>
 100a920:	616d                	addi	sp,sp,240
 100a922:	00006567          	0x6567
 100a926:	0000                	unimp
 100a928:	3878                	fld	fa4,240(s0)
 100a92a:	5f36                	lw	t5,108(sp)
 100a92c:	75746573          	csrrsi	a0,0x757,8
 100a930:	0070                	addi	a2,sp,12
 100a932:	0000                	unimp
 100a934:	0000                	unimp
 100a936:	0000                	unimp
 100a938:	3878                	fld	fa4,240(s0)
 100a93a:	2036                	fld	ft0,328(sp)
 100a93c:	75746573          	csrrsi	a0,0x757,8
 100a940:	2e70                	fld	fa2,216(a2)
 100a942:	6962                	ld	s2,24(sp)
 100a944:	006e                	c.slli	zero,0x1b
 100a946:	0000                	unimp
 100a948:	706c                	ld	a1,224(s0)
 100a94a:	78323363          	0x78323363
 100a94e:	6978                	ld	a4,208(a0)
 100a950:	616d                	addi	sp,sp,240
 100a952:	00006567          	0x6567
 100a956:	0000                	unimp
 100a958:	504c                	lw	a1,36(s0)
 100a95a:	58323343          	fmadd.s	ft6,ft4,ft3,fa1,rup
 100a95e:	2058                	fld	fa4,128(s0)
 100a960:	6f42                	ld	t5,16(sp)
 100a962:	4920746f          	jal	s0,1011df4 <__spl_src_start+0x4d0c>
 100a966:	616d                	addi	sp,sp,240
 100a968:	00006567          	0x6567
 100a96c:	0000                	unimp
 100a96e:	0000                	unimp
 100a970:	6b72                	ld	s6,280(sp)
 100a972:	6d69                	lui	s10,0x1a
 100a974:	6761                	lui	a4,0x18
 100a976:	0065                	c.nop	25
 100a978:	6f52                	ld	t5,272(sp)
 100a97a:	68636b63          	bltu	t1,t1,100b010 <__spl_start+0x9b20>
 100a97e:	7069                	c.lui	zero,0xffffa
 100a980:	4220                	lw	s0,64(a2)
 100a982:	20746f6f          	jal	t5,1051388 <__spl_src_start+0x442a0>
 100a986:	6d49                	lui	s10,0x12
 100a988:	6761                	lui	a4,0x18
 100a98a:	0065                	c.nop	25
 100a98c:	0000                	unimp
 100a98e:	0000                	unimp
 100a990:	6b72                	ld	s6,280(sp)
 100a992:	00006473          	csrrsi	s0,ustatus,0
 100a996:	0000                	unimp
 100a998:	6f52                	ld	t5,272(sp)
 100a99a:	68636b63          	bltu	t1,t1,100b030 <__spl_start+0x9b40>
 100a99e:	7069                	c.lui	zero,0xffffa
 100a9a0:	5320                	lw	s0,96(a4)
 100a9a2:	2044                	fld	fs1,128(s0)
 100a9a4:	6f42                	ld	t5,16(sp)
 100a9a6:	4920746f          	jal	s0,1011e38 <__spl_src_start+0x4d50>
 100a9aa:	616d                	addi	sp,sp,240
 100a9ac:	00006567          	0x6567
 100a9b0:	6b72                	ld	s6,280(sp)
 100a9b2:	00697073          	csrci	0x6,18
 100a9b6:	0000                	unimp
 100a9b8:	6f52                	ld	t5,272(sp)
 100a9ba:	68636b63          	bltu	t1,t1,100b050 <__spl_start+0x9b60>
 100a9be:	7069                	c.lui	zero,0xffffa
 100a9c0:	5320                	lw	s0,96(a4)
 100a9c2:	4950                	lw	a2,20(a0)
 100a9c4:	4220                	lw	s0,64(a2)
 100a9c6:	20746f6f          	jal	t5,10513cc <__spl_src_start+0x442e4>
 100a9ca:	6d49                	lui	s10,0x12
 100a9cc:	6761                	lui	a4,0x18
 100a9ce:	0065                	c.nop	25
 100a9d0:	7976                	ld	s2,376(sp)
 100a9d2:	7262                	ld	tp,56(sp)
 100a9d4:	6469                	lui	s0,0x1a
 100a9d6:	6d69                	lui	s10,0x1a
 100a9d8:	6761                	lui	a4,0x18
 100a9da:	0065                	c.nop	25
 100a9dc:	0000                	unimp
 100a9de:	0000                	unimp
 100a9e0:	7956                	ld	s2,368(sp)
 100a9e2:	7262                	ld	tp,56(sp)
 100a9e4:	6469                	lui	s0,0x1a
 100a9e6:	4220                	lw	s0,64(a2)
 100a9e8:	20746f6f          	jal	t5,10513ee <__spl_src_start+0x44306>
 100a9ec:	6d49                	lui	s10,0x12
 100a9ee:	6761                	lui	a4,0x18
 100a9f0:	0065                	c.nop	25
 100a9f2:	0000                	unimp
 100a9f4:	0000                	unimp
 100a9f6:	0000                	unimp
 100a9f8:	797a                	ld	s2,440(sp)
 100a9fa:	716e                	ld	sp,248(sp)
 100a9fc:	6d69                	lui	s10,0x1a
 100a9fe:	6761                	lui	a4,0x18
 100aa00:	0065                	c.nop	25
 100aa02:	0000                	unimp
 100aa04:	0000                	unimp
 100aa06:	0000                	unimp
 100aa08:	6958                	ld	a4,144(a0)
 100aa0a:	696c                	ld	a1,208(a0)
 100aa0c:	786e                	ld	a6,248(sp)
 100aa0e:	5a20                	lw	s0,112(a2)
 100aa10:	6e79                	lui	t3,0x1e
 100aa12:	2071                	0x2071
 100aa14:	6f42                	ld	t5,16(sp)
 100aa16:	4920746f          	jal	s0,1011ea8 <__spl_src_start+0x4dc0>
 100aa1a:	616d                	addi	sp,sp,240
 100aa1c:	00006567          	0x6567
 100aa20:	797a                	ld	s2,440(sp)
 100aa22:	716e                	ld	sp,248(sp)
 100aa24:	706d                	c.lui	zero,0xffffb
 100aa26:	6d69                	lui	s10,0x1a
 100aa28:	6761                	lui	a4,0x18
 100aa2a:	0065                	c.nop	25
 100aa2c:	0000                	unimp
 100aa2e:	0000                	unimp
 100aa30:	6958                	ld	a4,144(a0)
 100aa32:	696c                	ld	a1,208(a0)
 100aa34:	786e                	ld	a6,248(sp)
 100aa36:	5a20                	lw	s0,112(a2)
 100aa38:	6e79                	lui	t3,0x1e
 100aa3a:	4d71                	li	s10,28
 100aa3c:	2050                	fld	fa2,128(s0)
 100aa3e:	6f42                	ld	t5,16(sp)
 100aa40:	4920746f          	jal	s0,1011ed2 <__spl_src_start+0x4dea>
 100aa44:	616d                	addi	sp,sp,240
 100aa46:	00006567          	0x6567
 100aa4a:	0000                	unimp
 100aa4c:	0000                	unimp
 100aa4e:	0000                	unimp
 100aa50:	797a                	ld	s2,440(sp)
 100aa52:	716e                	ld	sp,248(sp)
 100aa54:	706d                	c.lui	zero,0xffffb
 100aa56:	6962                	ld	s2,24(sp)
 100aa58:	0066                	c.slli	zero,0x19
 100aa5a:	0000                	unimp
 100aa5c:	0000                	unimp
 100aa5e:	0000                	unimp
 100aa60:	6958                	ld	a4,144(a0)
 100aa62:	696c                	ld	a1,208(a0)
 100aa64:	786e                	ld	a6,248(sp)
 100aa66:	5a20                	lw	s0,112(a2)
 100aa68:	6e79                	lui	t3,0x1e
 100aa6a:	4d71                	li	s10,28
 100aa6c:	2050                	fld	fa2,128(s0)
 100aa6e:	6f42                	ld	t5,16(sp)
 100aa70:	4920746f          	jal	s0,1011f02 <__spl_src_start+0x4e1a>
 100aa74:	616d                	addi	sp,sp,240
 100aa76:	28206567          	0x28206567
 100aa7a:	6962                	ld	s2,24(sp)
 100aa7c:	2966                	fld	fs2,88(sp)
 100aa7e:	0000                	unimp
 100aa80:	7066                	0x7066
 100aa82:	00006167          	0x6167
 100aa86:	0000                	unimp
 100aa88:	5046                	0x5046
 100aa8a:	49204147          	fmsub.s	ft2,ft0,fs2,fs1,rmm
 100aa8e:	616d                	addi	sp,sp,240
 100aa90:	00006567          	0x6567
 100aa94:	0000                	unimp
 100aa96:	0000                	unimp
 100aa98:	6574                	ld	a3,200(a0)
 100aa9a:	0065                	c.nop	25
 100aa9c:	0000                	unimp
 100aa9e:	0000                	unimp
 100aaa0:	7254                	ld	a3,160(a2)
 100aaa2:	7375                	lui	t1,0xffffd
 100aaa4:	6574                	ld	a3,200(a0)
 100aaa6:	2064                	fld	fs1,192(s0)
 100aaa8:	7845                	lui	a6,0xffff1
 100aaaa:	6365                	lui	t1,0x19
 100aaac:	7475                	lui	s0,0xffffd
 100aaae:	6f69                	lui	t5,0x1a
 100aab0:	206e                	fld	ft0,216(sp)
 100aab2:	6e45                	lui	t3,0x11
 100aab4:	6976                	ld	s2,344(sp)
 100aab6:	6f72                	ld	t5,280(sp)
 100aab8:	6d6e                	ld	s10,216(sp)
 100aaba:	6e65                	lui	t3,0x19
 100aabc:	2074                	fld	fa3,192(s0)
 100aabe:	6d49                	lui	s10,0x12
 100aac0:	6761                	lui	a4,0x18
 100aac2:	0065                	c.nop	25
 100aac4:	0000                	unimp
 100aac6:	0000                	unimp
 100aac8:	6966                	ld	s2,88(sp)
 100aaca:	6d72                	ld	s10,280(sp)
 100aacc:	65726177          	0x65726177
 100aad0:	695f 7476 0000      	0x7476695f
 100aad6:	0000                	unimp
 100aad8:	6946                	ld	s2,80(sp)
 100aada:	6d72                	ld	s10,280(sp)
 100aadc:	65726177          	0x65726177
 100aae0:	7720                	ld	s0,104(a4)
 100aae2:	7469                	lui	s0,0xffffa
 100aae4:	2068                	fld	fa0,192(s0)
 100aae6:	4148                	lw	a0,4(a0)
 100aae8:	7642                	ld	a2,48(sp)
 100aaea:	2034                	fld	fa3,64(s0)
 100aaec:	5649                	li	a2,-14
 100aaee:	0054                	addi	a3,sp,4
 100aaf0:	6d70                	ld	a2,216(a0)
 100aaf2:	636d                	lui	t1,0x1b
 100aaf4:	0000                	unimp
 100aaf6:	0000                	unimp
 100aaf8:	4954                	lw	a3,20(a0)
 100aafa:	5020                	lw	s0,96(s0)
 100aafc:	7265776f          	jal	a4,1062222 <__spl_src_start+0x5513a>
 100ab00:	4d20                	lw	s0,88(a0)
 100ab02:	6e61                	lui	t3,0x18
 100ab04:	6761                	lui	a4,0x18
 100ab06:	6d65                	lui	s10,0x19
 100ab08:	6e65                	lui	t3,0x19
 100ab0a:	2074                	fld	fa3,192(s0)
 100ab0c:	694d                	lui	s2,0x13
 100ab0e:	2d6f7263          	bgeu	t5,s6,100add2 <__spl_start+0x98e2>
 100ab12:	746e6f43          	0x746e6f43
 100ab16:	6f72                	ld	t5,280(sp)
 100ab18:	6c6c                	ld	a1,216(s0)
 100ab1a:	7265                	lui	tp,0xffff9
 100ab1c:	4620                	lw	s0,72(a2)
 100ab1e:	7269                	lui	tp,0xffffa
 100ab20:	776d                	lui	a4,0xffffb
 100ab22:	7261                	lui	tp,0xffff8
 100ab24:	0065                	c.nop	25
 100ab26:	0000                	unimp
 100ab28:	336d7473          	csrrci	s0,mhpmevent22,26
 100ab2c:	6932                	ld	s2,264(sp)
 100ab2e:	616d                	addi	sp,sp,240
 100ab30:	00006567          	0x6567
 100ab34:	0000                	unimp
 100ab36:	0000                	unimp
 100ab38:	694d5453          	0x694d5453
 100ab3c:	656f7263          	bgeu	t5,s6,100b180 <__spl_start+0x9c90>
 100ab40:	656c                	ld	a1,200(a0)
 100ab42:	6f727463          	bgeu	tp,s7,100b22a <__spl_start+0x9d3a>
 100ab46:	696e                	ld	s2,216(sp)
 100ab48:	53207363          	bgeu	zero,s2,100b06e <__spl_start+0x9b7e>
 100ab4c:	4d54                	lw	a3,28(a0)
 100ab4e:	49203233          	0x49203233
 100ab52:	616d                	addi	sp,sp,240
 100ab54:	00006567          	0x6567
 100ab58:	746d                	lui	s0,0xffffb
 100ab5a:	6d695f6b          	0x6d695f6b
 100ab5e:	6761                	lui	a4,0x18
 100ab60:	0065                	c.nop	25
 100ab62:	0000                	unimp
 100ab64:	0000                	unimp
 100ab66:	0000                	unimp
 100ab68:	654d                	lui	a0,0x13
 100ab6a:	6964                	ld	s1,208(a0)
 100ab6c:	5461                	li	s0,-8
 100ab6e:	6b65                	lui	s6,0x19
 100ab70:	4220                	lw	s0,64(a2)
 100ab72:	52746f6f          	jal	t5,1051898 <__spl_src_start+0x447b0>
 100ab76:	6c204d4f          	0x6c204d4f
 100ab7a:	6164616f          	jal	sp,1051190 <__spl_src_start+0x440a8>
 100ab7e:	6c62                	ld	s8,24(sp)
 100ab80:	2065                	0x2065
 100ab82:	6d49                	lui	s10,0x12
 100ab84:	6761                	lui	a4,0x18
 100ab86:	0065                	c.nop	25
 100ab88:	72706f63          	bltu	zero,t2,100b2c6 <__spl_start+0x9dd6>
 100ab8c:	0000006f          	j	100ab8c <__spl_start+0x969c>
 100ab90:	72706f43          	fmadd.d	ft10,ft0,ft7,fa4,unknown
 100ab94:	7365636f          	jal	t1,10612ca <__spl_src_start+0x541e2>
 100ab98:	20726f73          	csrrsi	t5,0x207,4
 100ab9c:	6d49                	lui	s10,0x12
 100ab9e:	6761                	lui	a4,0x18
 100aba0:	0065                	c.nop	25
 100aba2:	0000                	unimp
 100aba4:	0000                	unimp
 100aba6:	0000                	unimp
 100aba8:	786e7573          	csrrci	a0,0x786,28
 100abac:	5f69                	li	t5,-6
 100abae:	6765                	lui	a4,0x19
 100abb0:	00006e6f          	jal	t3,1010bb0 <__spl_src_start+0x3ac8>
 100abb4:	0000                	unimp
 100abb6:	0000                	unimp
 100abb8:	6c41                	lui	s8,0x10
 100abba:	776c                	ld	a1,232(a4)
 100abbc:	6e69                	lui	t3,0x1a
 100abbe:	656e                	ld	a0,216(sp)
 100abc0:	2072                	fld	ft0,280(sp)
 100abc2:	4765                	li	a4,25
 100abc4:	42204e4f          	fnmadd.d	ft8,ft0,ft2,fs0,rmm
 100abc8:	20746f6f          	jal	t5,10515ce <__spl_src_start+0x444e6>
 100abcc:	6d49                	lui	s10,0x12
 100abce:	6761                	lui	a4,0x18
 100abd0:	0065                	c.nop	25
 100abd2:	0000                	unimp
 100abd4:	0000                	unimp
 100abd6:	0000                	unimp
 100abd8:	6e49                	lui	t3,0x12
 100abda:	6176                	ld	sp,344(sp)
 100abdc:	696c                	ld	a1,208(a0)
 100abde:	2064                	fld	fs1,192(s0)
 100abe0:	0000534f          	fnmadd.s	ft6,ft0,ft0,ft0,unknown
 100abe4:	0000                	unimp
 100abe6:	0000                	unimp
 100abe8:	7261                	lui	tp,0xffff8
 100abea:	2d6d                	addiw	s10,s10,27
 100abec:	7274                	ld	a3,224(a2)
 100abee:	7375                	lui	t1,0xffffd
 100abf0:	6574                	ld	a3,200(a0)
 100abf2:	2d64                	fld	fs1,216(a0)
 100abf4:	6966                	ld	s2,88(sp)
 100abf6:	6d72                	ld	s10,280(sp)
 100abf8:	65726177          	0x65726177
 100abfc:	0000                	unimp
 100abfe:	0000                	unimp
 100ac00:	5241                	li	tp,-16
 100ac02:	204d                	0x204d
 100ac04:	7254                	ld	a3,160(a2)
 100ac06:	7375                	lui	t1,0xffffd
 100ac08:	6574                	ld	a3,200(a0)
 100ac0a:	2064                	fld	fs1,192(s0)
 100ac0c:	6946                	ld	s2,80(sp)
 100ac0e:	6d72                	ld	s10,280(sp)
 100ac10:	65726177          	0x65726177
 100ac14:	0000                	unimp
 100ac16:	0000                	unimp
 100ac18:	696c                	ld	a1,208(a0)
 100ac1a:	756e                	ld	a0,248(sp)
 100ac1c:	0078                	addi	a4,sp,12
 100ac1e:	0000                	unimp
 100ac20:	694c                	ld	a1,144(a0)
 100ac22:	756e                	ld	a0,248(sp)
 100ac24:	0078                	addi	a4,sp,12
 100ac26:	0000                	unimp
 100ac28:	656e                	ld	a0,216(sp)
 100ac2a:	6274                	ld	a3,192(a2)
 100ac2c:	00006473          	csrrsi	s0,ustatus,0
 100ac30:	654e                	ld	a0,208(sp)
 100ac32:	4274                	lw	a3,68(a2)
 100ac34:	00004453          	fadd.s	fs0,ft0,ft0,rmm
 100ac38:	0065736f          	jal	t1,1061c3e <__spl_src_start+0x54b56>
 100ac3c:	0000                	unimp
 100ac3e:	0000                	unimp
 100ac40:	6e45                	lui	t3,0x11
 100ac42:	6165                	addi	sp,sp,112
 100ac44:	4f20                	lw	s0,88(a4)
 100ac46:	00004553          	fadd.s	fa0,ft0,ft0,rmm
 100ac4a:	0000                	unimp
 100ac4c:	0000                	unimp
 100ac4e:	0000                	unimp
 100ac50:	6c70                	ld	a2,216(s0)
 100ac52:	6e61                	lui	t3,0x18
 100ac54:	0039                	c.nop	14
 100ac56:	0000                	unimp
 100ac58:	6c50                	ld	a2,152(s0)
 100ac5a:	6e61                	lui	t3,0x18
 100ac5c:	3920                	fld	fs0,112(a0)
 100ac5e:	0000                	unimp
 100ac60:	7472                	ld	s0,312(sp)
 100ac62:	6d65                	lui	s10,0x19
 100ac64:	00000073          	ecall
 100ac68:	5452                	lw	s0,52(sp)
 100ac6a:	4d45                	li	s10,17
 100ac6c:	00000053          	fadd.s	ft0,ft0,ft0,rne
 100ac70:	7254                	ld	a3,160(a2)
 100ac72:	7375                	lui	t1,0xffffd
 100ac74:	6574                	ld	a3,200(a0)
 100ac76:	2064                	fld	fs1,192(s0)
 100ac78:	7845                	lui	a6,0xffff1
 100ac7a:	6365                	lui	t1,0x19
 100ac7c:	7475                	lui	s0,0xffffd
 100ac7e:	6f69                	lui	t5,0x1a
 100ac80:	206e                	fld	ft0,216(sp)
 100ac82:	6e45                	lui	t3,0x11
 100ac84:	6976                	ld	s2,344(sp)
 100ac86:	6f72                	ld	t5,280(sp)
 100ac88:	6d6e                	ld	s10,216(sp)
 100ac8a:	6e65                	lui	t3,0x19
 100ac8c:	0074                	addi	a3,sp,12
 100ac8e:	0000                	unimp
 100ac90:	2d75                	addiw	s10,s10,29
 100ac92:	6f62                	ld	t5,24(sp)
 100ac94:	0000746f          	jal	s0,1011c94 <__spl_src_start+0x4bac>
 100ac98:	7876                	ld	a6,376(sp)
 100ac9a:	6b726f77          	0x6b726f77
 100ac9e:	78560073          	0x78560073
 100aca2:	6b726f57          	0x6b726f57
 100aca6:	6e710073          	0x6e710073
 100acaa:	0078                	addi	a4,sp,12
 100acac:	0000                	unimp
 100acae:	0000                	unimp
 100acb0:	4e51                	li	t3,20
 100acb2:	0058                	addi	a4,sp,4
 100acb4:	0000                	unimp
 100acb6:	0000                	unimp
 100acb8:	6e65706f          	j	106239e <__spl_src_start+0x552b6>
 100acbc:	00696273          	csrrsi	tp,0x6,18
 100acc0:	4952                	lw	s2,20(sp)
 100acc2:	562d4353          	0x562d4353
 100acc6:	4f20                	lw	s0,88(a4)
 100acc8:	6570                	ld	a2,200(a0)
 100acca:	536e                	lw	t1,248(sp)
 100accc:	4942                	lw	s2,16(sp)
 100acce:	0000                	unimp
 100acd0:	6665                	lui	a2,0x19
 100acd2:	0069                	c.nop	26
 100acd4:	0000                	unimp
 100acd6:	0000                	unimp
 100acd8:	4645                	li	a2,17
 100acda:	2049                	0x2049
 100acdc:	6946                	ld	s2,80(sp)
 100acde:	6d72                	ld	s10,280(sp)
 100ace0:	65726177          	0x65726177
 100ace4:	0000                	unimp
 100ace6:	0000                	unimp
 100ace8:	6e49                	lui	t3,0x12
 100acea:	6176                	ld	sp,344(sp)
 100acec:	696c                	ld	a1,208(a0)
 100acee:	2064                	fld	fs1,192(s0)
 100acf0:	5241                	li	tp,-16
 100acf2:	00004843          	fmadd.s	fa6,ft0,ft0,ft0,rmm
 100acf6:	0000                	unimp
 100acf8:	6c61                	lui	s8,0x18
 100acfa:	6870                	ld	a2,208(s0)
 100acfc:	0061                	c.nop	24
 100acfe:	0000                	unimp
 100ad00:	6c41                	lui	s8,0x10
 100ad02:	6870                	ld	a2,208(s0)
 100ad04:	0061                	c.nop	24
 100ad06:	0000                	unimp
 100ad08:	7261                	lui	tp,0xffff8
 100ad0a:	006d                	c.nop	27
 100ad0c:	0000                	unimp
 100ad0e:	0000                	unimp
 100ad10:	5241                	li	tp,-16
 100ad12:	004d                	c.nop	19
 100ad14:	0000                	unimp
 100ad16:	0000                	unimp
 100ad18:	3878                	fld	fa4,240(s0)
 100ad1a:	0036                	c.slli	zero,0xd
 100ad1c:	0000                	unimp
 100ad1e:	0000                	unimp
 100ad20:	6e49                	lui	t3,0x12
 100ad22:	6574                	ld	a3,200(a0)
 100ad24:	206c                	fld	fa1,192(s0)
 100ad26:	3878                	fld	fa4,240(s0)
 100ad28:	0036                	c.slli	zero,0xd
 100ad2a:	0000                	unimp
 100ad2c:	0000                	unimp
 100ad2e:	0000                	unimp
 100ad30:	6169                	addi	sp,sp,208
 100ad32:	3436                	fld	fs0,360(sp)
 100ad34:	0000                	unimp
 100ad36:	0000                	unimp
 100ad38:	4149                	li	sp,18
 100ad3a:	3436                	fld	fs0,360(sp)
 100ad3c:	0000                	unimp
 100ad3e:	0000                	unimp
 100ad40:	366d                	addiw	a2,a2,-5
 100ad42:	6b38                	ld	a4,80(a4)
 100ad44:	0000                	unimp
 100ad46:	0000                	unimp
 100ad48:	364d                	addiw	a2,a2,-13
 100ad4a:	4b38                	lw	a4,80(a4)
 100ad4c:	0000                	unimp
 100ad4e:	0000                	unimp
 100ad50:	696d                	lui	s2,0x1b
 100ad52:	626f7263          	bgeu	t5,t1,100b376 <__spl_start+0x9e86>
 100ad56:	616c                	ld	a1,192(a0)
 100ad58:	657a                	ld	a0,408(sp)
 100ad5a:	0000                	unimp
 100ad5c:	0000                	unimp
 100ad5e:	0000                	unimp
 100ad60:	694d                	lui	s2,0x13
 100ad62:	426f7263          	bgeu	t5,t1,100b186 <__spl_start+0x9c96>
 100ad66:	616c                	ld	a1,192(a0)
 100ad68:	657a                	ld	a0,408(sp)
 100ad6a:	0000                	unimp
 100ad6c:	0000                	unimp
 100ad6e:	0000                	unimp
 100ad70:	696d                	lui	s2,0x1b
 100ad72:	7370                	ld	a2,224(a4)
 100ad74:	0000                	unimp
 100ad76:	0000                	unimp
 100ad78:	494d                	li	s2,19
 100ad7a:	5350                	lw	a2,36(a4)
 100ad7c:	0000                	unimp
 100ad7e:	0000                	unimp
 100ad80:	696d                	lui	s2,0x1b
 100ad82:	7370                	ld	a2,224(a4)
 100ad84:	3436                	fld	fs0,360(sp)
 100ad86:	0000                	unimp
 100ad88:	494d                	li	s2,19
 100ad8a:	5350                	lw	a2,36(a4)
 100ad8c:	3620                	fld	fs0,104(a2)
 100ad8e:	2034                	fld	fa3,64(s0)
 100ad90:	6942                	ld	s2,16(sp)
 100ad92:	0074                	addi	a3,sp,12
 100ad94:	0000                	unimp
 100ad96:	0000                	unimp
 100ad98:	696e                	ld	s2,216(sp)
 100ad9a:	0032736f          	jal	t1,103259c <__spl_src_start+0x254b4>
 100ad9e:	0000                	unimp
 100ada0:	494e                	lw	s2,208(sp)
 100ada2:	4920534f          	fnmadd.s	ft6,ft0,fs2,fs1,unknown
 100ada6:	0049                	c.nop	18
 100ada8:	6f70                	ld	a2,216(a4)
 100adaa:	70726577          	0x70726577
 100adae:	6f500063          	beq	zero,s5,100b48e <__spl_start+0x9f9e>
 100adb2:	50726577          	0x50726577
 100adb6:	70700043          	fmadd.s	ft0,ft0,ft7,fa4,rne
 100adba:	00000063          	beqz	zero,100adba <__spl_start+0x98ca>
 100adbe:	0000                	unimp
 100adc0:	30393373          	csrrc	t1,mideleg,s2
 100adc4:	0000                	unimp
 100adc6:	0000                	unimp
 100adc8:	4249                	li	tp,18
 100adca:	204d                	0x204d
 100adcc:	30393353          	0x30393353
	...
 100add8:	00006873          	csrrsi	a6,ustatus,0
 100addc:	0000                	unimp
 100adde:	0000                	unimp
 100ade0:	65707553          	0x65707553
 100ade4:	4872                	lw	a6,28(sp)
 100ade6:	0000                	unimp
 100ade8:	72617073          	csrci	0x726,2
 100adec:	00000063          	beqz	zero,100adec <__spl_start+0x98fc>
 100adf0:	52415053          	0x52415053
 100adf4:	00000043          	fmadd.s	ft0,ft0,ft0,ft0,rne
 100adf8:	72617073          	csrci	0x726,2
 100adfc:	00343663          	0x343663
 100ae00:	52415053          	0x52415053
 100ae04:	34362043          	0x34362043
 100ae08:	4220                	lw	s0,64(a2)
 100ae0a:	7469                	lui	s0,0xffffa
 100ae0c:	0000                	unimp
 100ae0e:	0000                	unimp
 100ae10:	6c62                	ld	s8,24(sp)
 100ae12:	6361                	lui	t1,0x18
 100ae14:	6e69666b          	0x6e69666b
	...
 100ae20:	6c42                	ld	s8,16(sp)
 100ae22:	6361                	lui	t1,0x18
 100ae24:	6e69666b          	0x6e69666b
	...
 100ae30:	7661                	lui	a2,0xffff8
 100ae32:	3372                	fld	ft6,312(sp)
 100ae34:	0032                	c.slli	zero,0xc
 100ae36:	0000                	unimp
 100ae38:	5641                	li	a2,-16
 100ae3a:	3352                	fld	ft6,304(sp)
 100ae3c:	0032                	c.slli	zero,0xc
 100ae3e:	0000                	unimp
 100ae40:	646e                	ld	s0,216(sp)
 100ae42:	00323373          	csrrc	t1,fcsr,tp
 100ae46:	0000                	unimp
 100ae48:	444e                	lw	s0,208(sp)
 100ae4a:	00323353          	fadd.s	ft6,ft4,ft3,rup
 100ae4e:	0000                	unimp
 100ae50:	6b31726f          	jal	tp,1022d02 <__spl_src_start+0x15c1a>
 100ae54:	0000                	unimp
 100ae56:	0000                	unimp
 100ae58:	6e65704f          	fnmadd.q	ft0,fa0,ft6,fa3
 100ae5c:	4952                	lw	s2,20(sp)
 100ae5e:	31204353          	0x31204353
 100ae62:	3030                	fld	fa2,96(s0)
 100ae64:	0030                	addi	a2,sp,8
 100ae66:	0000                	unimp
 100ae68:	646e6173          	csrrsi	sp,0x646,28
 100ae6c:	6f62                	ld	t5,24(sp)
 100ae6e:	0078                	addi	a4,sp,12
 100ae70:	646e6153          	0x646e6153
 100ae74:	6f62                	ld	t5,24(sp)
 100ae76:	0078                	addi	a4,sp,12
 100ae78:	7261                	lui	tp,0xffff8
 100ae7a:	366d                	addiw	a2,a2,-5
 100ae7c:	0034                	addi	a3,sp,8
 100ae7e:	0000                	unimp
 100ae80:	4141                	li	sp,16
 100ae82:	6372                	ld	t1,280(sp)
 100ae84:	3668                	fld	fa0,232(a2)
 100ae86:	0034                	addi	a3,sp,8
 100ae88:	7261                	lui	tp,0xffff8
 100ae8a:	00000063          	beqz	zero,100ae8a <__spl_start+0x999a>
 100ae8e:	0000                	unimp
 100ae90:	5241                	li	tp,-16
 100ae92:	00000043          	fmadd.s	ft0,ft0,ft0,ft0,rne
 100ae96:	0000                	unimp
 100ae98:	3878                	fld	fa4,240(s0)
 100ae9a:	5f36                	lw	t5,108(sp)
 100ae9c:	3436                	fld	fs0,360(sp)
 100ae9e:	0000                	unimp
 100aea0:	4d41                	li	s10,16
 100aea2:	2044                	fld	fs1,128(s0)
 100aea4:	3878                	fld	fa4,240(s0)
 100aea6:	5f36                	lw	t5,108(sp)
 100aea8:	3436                	fld	fs0,360(sp)
 100aeaa:	0000                	unimp
 100aeac:	0000                	unimp
 100aeae:	0000                	unimp
 100aeb0:	7478                	ld	a4,232(s0)
 100aeb2:	6e65                	lui	t3,0x19
 100aeb4:	00006173          	csrrsi	sp,ustatus,0
 100aeb8:	7458                	ld	a4,168(s0)
 100aeba:	6e65                	lui	t3,0x19
 100aebc:	00006173          	csrrsi	sp,ustatus,0
 100aec0:	6972                	ld	s2,280(sp)
 100aec2:	00766373          	csrrsi	t1,0x7,12
 100aec6:	0000                	unimp
 100aec8:	4952                	lw	s2,20(sp)
 100aeca:	562d4353          	0x562d4353
 100aece:	0000                	unimp
 100aed0:	4446                	lw	s0,80(sp)
 100aed2:	5f54                	lw	a3,60(a4)
 100aed4:	5245                	li	tp,-15
 100aed6:	5f52                	lw	t5,52(sp)
 100aed8:	4f4e                	lw	t5,208(sp)
 100aeda:	4654                	lw	a3,12(a2)
 100aedc:	444e554f          	0x444e554f
	...
 100aee8:	4446                	lw	s0,80(sp)
 100aeea:	5f54                	lw	a3,60(a4)
 100aeec:	5245                	li	tp,-15
 100aeee:	5f52                	lw	t5,52(sp)
 100aef0:	5845                	li	a6,-15
 100aef2:	5349                	li	t1,-14
 100aef4:	5354                	lw	a3,36(a4)
 100aef6:	0000                	unimp
 100aef8:	4446                	lw	s0,80(sp)
 100aefa:	5f54                	lw	a3,60(a4)
 100aefc:	5245                	li	tp,-15
 100aefe:	5f52                	lw	t5,52(sp)
 100af00:	4f4e                	lw	t5,208(sp)
 100af02:	43415053          	0x43415053
 100af06:	0045                	c.nop	17
 100af08:	4446                	lw	s0,80(sp)
 100af0a:	5f54                	lw	a3,60(a4)
 100af0c:	5245                	li	tp,-15
 100af0e:	5f52                	lw	t5,52(sp)
 100af10:	4142                	lw	sp,16(sp)
 100af12:	4f44                	lw	s1,28(a4)
 100af14:	4646                	lw	a2,80(sp)
 100af16:	00544553          	fadd.s	fa0,fs0,ft5,rmm
 100af1a:	0000                	unimp
 100af1c:	0000                	unimp
 100af1e:	0000                	unimp
 100af20:	4446                	lw	s0,80(sp)
 100af22:	5f54                	lw	a3,60(a4)
 100af24:	5245                	li	tp,-15
 100af26:	5f52                	lw	t5,52(sp)
 100af28:	4142                	lw	sp,16(sp)
 100af2a:	5044                	lw	s1,36(s0)
 100af2c:	5441                	li	s0,-16
 100af2e:	0048                	addi	a0,sp,4
 100af30:	4446                	lw	s0,80(sp)
 100af32:	5f54                	lw	a3,60(a4)
 100af34:	5245                	li	tp,-15
 100af36:	5f52                	lw	t5,52(sp)
 100af38:	4142                	lw	sp,16(sp)
 100af3a:	5044                	lw	s1,36(s0)
 100af3c:	4148                	lw	a0,4(a0)
 100af3e:	444e                	lw	s0,208(sp)
 100af40:	454c                	lw	a1,12(a0)
 100af42:	0000                	unimp
 100af44:	0000                	unimp
 100af46:	0000                	unimp
 100af48:	4446                	lw	s0,80(sp)
 100af4a:	5f54                	lw	a3,60(a4)
 100af4c:	5245                	li	tp,-15
 100af4e:	5f52                	lw	t5,52(sp)
 100af50:	4142                	lw	sp,16(sp)
 100af52:	5344                	lw	s1,36(a4)
 100af54:	4154                	lw	a3,4(a0)
 100af56:	4554                	lw	a3,12(a0)
	...
 100af60:	4446                	lw	s0,80(sp)
 100af62:	5f54                	lw	a3,60(a4)
 100af64:	5245                	li	tp,-15
 100af66:	5f52                	lw	t5,52(sp)
 100af68:	5254                	lw	a3,36(a2)
 100af6a:	4e55                	li	t3,21
 100af6c:	45544143          	0x45544143
 100af70:	0044                	addi	s1,sp,4
 100af72:	0000                	unimp
 100af74:	0000                	unimp
 100af76:	0000                	unimp
 100af78:	4446                	lw	s0,80(sp)
 100af7a:	5f54                	lw	a3,60(a4)
 100af7c:	5245                	li	tp,-15
 100af7e:	5f52                	lw	t5,52(sp)
 100af80:	4142                	lw	sp,16(sp)
 100af82:	4d44                	lw	s1,28(a0)
 100af84:	4741                	li	a4,16
 100af86:	4349                	li	t1,18
	...
 100af90:	4446                	lw	s0,80(sp)
 100af92:	5f54                	lw	a3,60(a4)
 100af94:	5245                	li	tp,-15
 100af96:	5f52                	lw	t5,52(sp)
 100af98:	4142                	lw	sp,16(sp)
 100af9a:	5644                	lw	s1,44(a2)
 100af9c:	5245                	li	tp,-15
 100af9e:	4e4f4953          	0x4e4f4953
 100afa2:	0000                	unimp
 100afa4:	0000                	unimp
 100afa6:	0000                	unimp
 100afa8:	4446                	lw	s0,80(sp)
 100afaa:	5f54                	lw	a3,60(a4)
 100afac:	5245                	li	tp,-15
 100afae:	5f52                	lw	t5,52(sp)
 100afb0:	4142                	lw	sp,16(sp)
 100afb2:	5344                	lw	s1,36(a4)
 100afb4:	5254                	lw	a3,36(a2)
 100afb6:	4355                	li	t1,21
 100afb8:	5554                	lw	a3,44(a0)
 100afba:	4552                	lw	a0,20(sp)
 100afbc:	0000                	unimp
 100afbe:	0000                	unimp
 100afc0:	4446                	lw	s0,80(sp)
 100afc2:	5f54                	lw	a3,60(a4)
 100afc4:	5245                	li	tp,-15
 100afc6:	5f52                	lw	t5,52(sp)
 100afc8:	4142                	lw	sp,16(sp)
 100afca:	4c44                	lw	s1,28(s0)
 100afcc:	5941                	li	s2,-16
 100afce:	0054554f          	fnmadd.s	fa0,fs0,ft5,ft0,unknown
 100afd2:	0000                	unimp
 100afd4:	0000                	unimp
 100afd6:	0000                	unimp
 100afd8:	4446                	lw	s0,80(sp)
 100afda:	5f54                	lw	a3,60(a4)
 100afdc:	5245                	li	tp,-15
 100afde:	5f52                	lw	t5,52(sp)
 100afe0:	4e49                	li	t3,18
 100afe2:	4554                	lw	a3,12(a0)
 100afe4:	4e52                	lw	t3,20(sp)
 100afe6:	4c41                	li	s8,16
	...
 100aff0:	4446                	lw	s0,80(sp)
 100aff2:	5f54                	lw	a3,60(a4)
 100aff4:	5245                	li	tp,-15
 100aff6:	5f52                	lw	t5,52(sp)
 100aff8:	4142                	lw	sp,16(sp)
 100affa:	4e44                	lw	s1,28(a2)
 100affc:	4c4c4543          	0x4c4c4543
 100b000:	00000053          	fadd.s	ft0,ft0,ft0,rne
 100b004:	0000                	unimp
 100b006:	0000                	unimp
 100b008:	4446                	lw	s0,80(sp)
 100b00a:	5f54                	lw	a3,60(a4)
 100b00c:	5245                	li	tp,-15
 100b00e:	5f52                	lw	t5,52(sp)
 100b010:	4142                	lw	sp,16(sp)
 100b012:	5644                	lw	s1,44(a2)
 100b014:	4c41                	li	s8,16
 100b016:	4555                	li	a0,21
	...
 100b020:	4446                	lw	s0,80(sp)
 100b022:	5f54                	lw	a3,60(a4)
 100b024:	5245                	li	tp,-15
 100b026:	5f52                	lw	t5,52(sp)
 100b028:	4142                	lw	sp,16(sp)
 100b02a:	4f44                	lw	s1,28(a4)
 100b02c:	4556                	lw	a0,84(sp)
 100b02e:	4c52                	lw	s8,20(sp)
 100b030:	5941                	li	s2,-16
 100b032:	0000                	unimp
 100b034:	0000                	unimp
 100b036:	0000                	unimp
 100b038:	4446                	lw	s0,80(sp)
 100b03a:	5f54                	lw	a3,60(a4)
 100b03c:	5245                	li	tp,-15
 100b03e:	5f52                	lw	t5,52(sp)
 100b040:	4f4e                	lw	t5,208(sp)
 100b042:	4850                	lw	a2,20(s0)
 100b044:	4e41                	li	t3,16
 100b046:	4c44                	lw	s1,28(s0)
 100b048:	5345                	li	t1,-15
 100b04a:	0000                	unimp
 100b04c:	0000                	unimp
 100b04e:	0000                	unimp
 100b050:	4446                	lw	s0,80(sp)
 100b052:	5f54                	lw	a3,60(a4)
 100b054:	5245                	li	tp,-15
 100b056:	5f52                	lw	t5,52(sp)
 100b058:	4142                	lw	sp,16(sp)
 100b05a:	4644                	lw	s1,12(a2)
 100b05c:	414c                	lw	a1,4(a0)
 100b05e:	00005347          	fmsub.s	ft6,ft0,ft0,ft0,unknown
 100b062:	0000                	unimp
 100b064:	0000                	unimp
 100b066:	0000                	unimp
 100b068:	6f72                	ld	t5,280(sp)
 100b06a:	0000746f          	jal	s0,101206a <__spl_src_start+0x4f82>
 100b06e:	0000                	unimp
 100b070:	6f72                	ld	t5,280(sp)
 100b072:	645f746f          	jal	s0,1102eb6 <__spl_src_start+0xf5dce>
 100b076:	6972                	ld	s2,280(sp)
 100b078:	6576                	ld	a0,344(sp)
 100b07a:	0072                	c.slli	zero,0x1c
 100b07c:	0000                	unimp
 100b07e:	0000                	unimp
 100b080:	6f6e                	ld	t5,216(sp)
 100b082:	0070                	addi	a2,sp,12
 100b084:	0000                	unimp
 100b086:	0000                	unimp
 100b088:	706d6973          	csrrsi	s2,0x706,26
 100b08c:	656c                	ld	a1,200(a0)
 100b08e:	625f 7375 0000      	0x7375625f
 100b094:	0000                	unimp
 100b096:	0000                	unimp
 100b098:	706d6973          	csrrsi	s2,0x706,26
 100b09c:	656c                	ld	a1,200(a0)
 100b09e:	622d                	lui	tp,0xb
 100b0a0:	7375                	lui	t1,0xffffd
 100b0a2:	0000                	unimp
 100b0a4:	0000                	unimp
 100b0a6:	0000                	unimp
 100b0a8:	706d6973          	csrrsi	s2,0x706,26
 100b0ac:	656c                	ld	a1,200(a0)
 100b0ae:	6d2d                	lui	s10,0xb
 100b0b0:	6466                	ld	s0,88(sp)
 100b0b2:	0000                	unimp
 100b0b4:	0000                	unimp
 100b0b6:	0000                	unimp
 100b0b8:	746d                	lui	s0,0xffffb
 100b0ba:	0064                	addi	s1,sp,12
 100b0bc:	0000                	unimp
 100b0be:	0000                	unimp
 100b0c0:	656a                	ld	a0,152(sp)
 100b0c2:	6564                	ld	s1,200(a0)
 100b0c4:	70732c63          	0x70732c63
 100b0c8:	2d69                	addiw	s10,s10,26
 100b0ca:	6f6e                	ld	t5,216(sp)
 100b0cc:	0072                	c.slli	zero,0x1c
 100b0ce:	0000                	unimp
 100b0d0:	736e                	ld	t1,248(sp)
 100b0d2:	3631                	addiw	a2,a2,-20
 100b0d4:	3535                	addiw	a0,a0,-19
 100b0d6:	5f30                	lw	a2,120(a4)
 100b0d8:	69726573          	csrrsi	a0,0x697,4
 100b0dc:	6c61                	lui	s8,0x18
 100b0de:	0000                	unimp
 100b0e0:	736e                	ld	t1,248(sp)
 100b0e2:	3631                	addiw	a2,a2,-20
 100b0e4:	3535                	addiw	a0,a0,-19
 100b0e6:	0030                	addi	a2,sp,8
 100b0e8:	736e                	ld	t1,248(sp)
 100b0ea:	3631                	addiw	a2,a2,-20
 100b0ec:	3535                	addiw	a0,a0,-19
 100b0ee:	6130                	ld	a2,64(a0)
	...
 100b0f8:	6e69                	lui	t3,0x1a
 100b0fa:	696e6567          	0x696e6567
 100b0fe:	7a6a2c63          	0x7a6a2c63
 100b102:	3734                	fld	fa3,104(a4)
 100b104:	3038                	fld	fa4,96(s0)
 100b106:	752d                	lui	a0,0xfffeb
 100b108:	7261                	lui	tp,0xffff8
 100b10a:	0074                	addi	a3,sp,12
 100b10c:	0000                	unimp
 100b10e:	0000                	unimp
 100b110:	766e                	ld	a2,248(sp)
 100b112:	6469                	lui	s0,0x1a
 100b114:	6169                	addi	sp,sp,208
 100b116:	742c                	ld	a1,104(s0)
 100b118:	6765                	lui	a4,0x19
 100b11a:	6172                	ld	sp,280(sp)
 100b11c:	3032                	fld	ft0,296(sp)
 100b11e:	752d                	lui	a0,0xfffeb
 100b120:	7261                	lui	tp,0xffff8
 100b122:	0074                	addi	a3,sp,12
 100b124:	0000                	unimp
 100b126:	0000                	unimp
 100b128:	73706e73          	csrrsi	t3,0x737,0
 100b12c:	642c                	ld	a1,72(s0)
 100b12e:	70612d77          	0x70612d77
 100b132:	2d62                	fld	fs10,24(sp)
 100b134:	6175                	addi	sp,sp,368
 100b136:	7472                	ld	s0,312(sp)
	...
 100b140:	5f697073          	csrci	0x5f6,18
 100b144:	656e6567          	0x656e6567
 100b148:	6972                	ld	s2,280(sp)
 100b14a:	72645f63          	bge	s0,t1,100b888 <__spl_start+0xa398>
 100b14e:	0076                	c.slli	zero,0x1d
 100b150:	5f697073          	csrci	0x5f6,18
 100b154:	656e6567          	0x656e6567
 100b158:	6972                	ld	s2,280(sp)
 100b15a:	00000063          	beqz	zero,100b15a <__spl_start+0x9c6a>
 100b15e:	0000                	unimp
 100b160:	00697073          	csrci	0x6,18
 100b164:	0000                	unimp
 100b166:	0000                	unimp
 100b168:	6978                	ld	a4,208(a0)
 100b16a:	696c                	ld	a1,208(a0)
 100b16c:	786e                	ld	a6,248(sp)
 100b16e:	735f 6970 0000      	0x6970735f
 100b174:	0000                	unimp
 100b176:	0000                	unimp
 100b178:	6c78                	ld	a4,216(s0)
 100b17a:	786e                	ld	a6,248(sp)
 100b17c:	782c                	ld	a1,112(s0)
 100b17e:	7370                	ld	a2,224(a4)
 100b180:	732d                	lui	t1,0xfffeb
 100b182:	6970                	ld	a2,208(a0)
 100b184:	322d                	addiw	tp,tp,-21
 100b186:	302e                	fld	ft0,232(sp)
 100b188:	2e30                	fld	fa2,88(a2)
 100b18a:	0061                	c.nop	24
 100b18c:	0000                	unimp
 100b18e:	0000                	unimp
 100b190:	6c78                	ld	a4,216(s0)
 100b192:	786e                	ld	a6,248(sp)
 100b194:	782c                	ld	a1,112(s0)
 100b196:	7370                	ld	a2,224(a4)
 100b198:	732d                	lui	t1,0xfffeb
 100b19a:	6970                	ld	a2,208(a0)
 100b19c:	322d                	addiw	tp,tp,-21
 100b19e:	302e                	fld	ft0,232(sp)
 100b1a0:	2e30                	fld	fa2,88(a2)
 100b1a2:	0062                	c.slli	zero,0x18
 100b1a4:	0000                	unimp
 100b1a6:	0000                	unimp
 100b1a8:	6974                	ld	a3,208(a0)
 100b1aa:	656d                	lui	a0,0x1b
 100b1ac:	0072                	c.slli	zero,0x1c
 100b1ae:	0000                	unimp
 100b1b0:	6972                	ld	s2,280(sp)
 100b1b2:	5f766373          	csrrsi	t1,0x5f7,12
 100b1b6:	6974                	ld	a3,208(a0)
 100b1b8:	656d                	lui	a0,0x1b
 100b1ba:	0072                	c.slli	zero,0x1c
 100b1bc:	0000                	unimp
 100b1be:	0000                	unimp
 100b1c0:	69666973          	csrrsi	s2,0x696,12
 100b1c4:	6576                	ld	a0,344(sp)
 100b1c6:	635f 696c 746e      	0x746e696c635f
 100b1cc:	0000                	unimp
 100b1ce:	0000                	unimp
 100b1d0:	6972                	ld	s2,280(sp)
 100b1d2:	2c766373          	csrrsi	t1,0x2c7,12
 100b1d6:	6e696c63          	bltu	s2,t1,100b8ce <__spl_start+0xa3de>
 100b1da:	3074                	fld	fa3,224(s0)
 100b1dc:	0000                	unimp
 100b1de:	0000                	unimp
 100b1e0:	69666973          	csrrsi	s2,0x696,12
 100b1e4:	6576                	ld	a0,344(sp)
 100b1e6:	632c                	ld	a1,64(a4)
 100b1e8:	696c                	ld	a1,208(a0)
 100b1ea:	746e                	ld	s0,248(sp)
 100b1ec:	0030                	addi	a2,sp,8
 100b1ee:	0000                	unimp
 100b1f0:	00757063          	bgeu	a0,t2,100b1f0 <__spl_start+0x9d00>
 100b1f4:	0000                	unimp
 100b1f6:	0000                	unimp
 100b1f8:	6972                	ld	s2,280(sp)
 100b1fa:	5f766373          	csrrsi	t1,0x5f7,12
 100b1fe:	00757063          	bgeu	a0,t2,100b1fe <__spl_start+0x9d0e>
 100b202:	0000                	unimp
 100b204:	0000                	unimp
 100b206:	0000                	unimp
 100b208:	6c62                	ld	s8,24(sp)
 100b20a:	0000006b          	0x6b
 100b20e:	0000                	unimp
 100b210:	6469                	lui	s0,0x1a
 100b212:	0065                	c.nop	25
 100b214:	0000                	unimp
 100b216:	0000                	unimp
 100b218:	69736373          	csrrsi	t1,0x697,6
 100b21c:	0000                	unimp
 100b21e:	0000                	unimp
 100b220:	7461                	lui	s0,0xffff8
 100b222:	7061                	c.lui	zero,0xffff8
 100b224:	0069                	c.nop	26
 100b226:	0000                	unimp
 100b228:	7375                	lui	t1,0xffffd
 100b22a:	0062                	c.slli	zero,0x18
 100b22c:	0000                	unimp
 100b22e:	0000                	unimp
 100b230:	6f64                	ld	s1,216(a4)
 100b232:	00000063          	beqz	zero,100b232 <__spl_start+0x9d42>
 100b236:	0000                	unimp
 100b238:	6d6d                	lui	s10,0x1b
 100b23a:	00000063          	beqz	zero,100b23a <__spl_start+0x9d4a>
 100b23e:	0000                	unimp
 100b240:	00006473          	csrrsi	s0,ustatus,0
 100b244:	0000                	unimp
 100b246:	0000                	unimp
 100b248:	61746173          	csrrsi	sp,0x617,8
 100b24c:	0000                	unimp
 100b24e:	0000                	unimp
 100b250:	6f68                	ld	a0,216(a4)
 100b252:	00007473          	csrrci	s0,ustatus,0
 100b256:	0000                	unimp
 100b258:	766e                	ld	a2,248(sp)
 100b25a:	656d                	lui	a0,0x1b
 100b25c:	0000                	unimp
 100b25e:	0000                	unimp
 100b260:	7670                	ld	a2,232(a2)
 100b262:	6c62                	ld	s8,24(sp)
 100b264:	006b636f          	jal	t1,10c126a <__spl_src_start+0xb4182>
 100b268:	6976                	ld	s2,344(sp)
 100b26a:	7472                	ld	s0,312(sp)
 100b26c:	6f69                	lui	t5,0x1a
 100b26e:	0000                	unimp
 100b270:	73757063          	bgeu	a0,s7,100b990 <__spl_start+0xa4a0>
 100b274:	0000                	unimp
 100b276:	0000                	unimp
 100b278:	5f757063          	bgeu	a0,s7,100b858 <__spl_start+0xa368>
 100b27c:	7562                	ld	a0,56(sp)
 100b27e:	69660073          	0x69660073
 100b282:	6f66                	ld	t5,88(sp)
 100b284:	732d                	lui	t1,0xfffeb
 100b286:	7a69                	lui	s4,0xffffa
 100b288:	0065                	c.nop	25
 100b28a:	0000                	unimp
 100b28c:	0000                	unimp
 100b28e:	0000                	unimp
 100b290:	4958                	lw	a4,20(a0)
 100b292:	534c                	lw	a1,36(a4)
 100b294:	4950                	lw	a2,20(a0)
 100b296:	7720                	ld	s0,104(a4)
 100b298:	7261                	lui	tp,0xffff8
 100b29a:	696e                	ld	s2,216(sp)
 100b29c:	676e                	ld	a4,216(sp)
 100b29e:	203a                	fld	ft0,392(sp)
 100b2a0:	6f4e                	ld	t5,208(sp)
 100b2a2:	2074                	fld	fa3,192(s0)
 100b2a4:	2061                	0x2061
 100b2a6:	756d                	lui	a0,0xffffb
 100b2a8:	746c                	ld	a1,232(s0)
 100b2aa:	7069                	c.lui	zero,0xffffa
 100b2ac:	656c                	ld	a1,200(a0)
 100b2ae:	6f20                	ld	s0,88(a4)
 100b2b0:	2066                	fld	ft0,88(sp)
 100b2b2:	6425                	lui	s0,0x9
 100b2b4:	6220                	ld	s0,64(a2)
 100b2b6:	7469                	lui	s0,0xffffa
 100b2b8:	00000a73          	0xa73
 100b2bc:	0000                	unimp
 100b2be:	0000                	unimp
 100b2c0:	4958                	lw	a4,20(a0)
 100b2c2:	534c                	lw	a1,36(a4)
 100b2c4:	4950                	lw	a2,20(a0)
 100b2c6:	6520                	ld	s0,72(a0)
 100b2c8:	7272                	ld	tp,312(sp)
 100b2ca:	203a726f          	jal	tp,10b2ccc <__spl_src_start+0xa5be4>
 100b2ce:	6658                	ld	a4,136(a2)
 100b2d0:	7265                	lui	tp,0xffff9
 100b2d2:	7420                	ld	s0,104(s0)
 100b2d4:	6d69                	lui	s10,0x1a
 100b2d6:	6f65                	lui	t5,0x19
 100b2d8:	7475                	lui	s0,0xffffd
 100b2da:	000a                	c.slli	zero,0x2
 100b2dc:	8a76                	mv	s4,t4
 100b2de:	ffff                	0xffff
 100b2e0:	8a8a                	mv	s5,sp
 100b2e2:	ffff                	0xffff
 100b2e4:	8aa2                	mv	s5,s0
 100b2e6:	ffff                	0xffff
 100b2e8:	8a8a                	mv	s5,sp
 100b2ea:	ffff                	0xffff
 100b2ec:	8ada                	mv	s5,s6
 100b2ee:	ffff                	0xffff
 100b2f0:	8ada                	mv	s5,s6
 100b2f2:	ffff                	0xffff
 100b2f4:	8ada                	mv	s5,s6
 100b2f6:	ffff                	0xffff
 100b2f8:	8ada                	mv	s5,s6
 100b2fa:	ffff                	0xffff
 100b2fc:	8a8a                	mv	s5,sp
 100b2fe:	ffff                	0xffff
 100b300:	6552                	ld	a0,272(sp)
 100b302:	6f6c                	ld	a1,216(a4)
 100b304:	69746163          	bltu	s0,s7,100b986 <__spl_start+0xa496>
 100b308:	6f206e6f          	jal	t3,10119fa <__spl_src_start+0x4912>
 100b30c:	2066                	fld	ft0,88(sp)
 100b30e:	6f636573          	csrrsi	a0,0x6f6,6
 100b312:	646e                	ld	s0,216(sp)
 100b314:	7261                	lui	tp,0xffff8
 100b316:	2079                	0x2079
 100b318:	6168                	ld	a0,192(a0)
 100b31a:	7472                	ld	s0,312(sp)
 100b31c:	61682073          	csrs	0x616,a6
 100b320:	61662073          	csrs	0x616,a2
 100b324:	6c69                	lui	s8,0x1a
 100b326:	6465                	lui	s0,0x19
 100b328:	202c                	fld	fa1,64(s0)
 100b32a:	7265                	lui	tp,0xffff9
 100b32c:	6f72                	ld	t5,280(sp)
 100b32e:	2072                	fld	ft0,280(sp)
 100b330:	6425                	lui	s0,0x9
 100b332:	000a                	c.slli	zero,0x2
	...
 100b348:	0001                	nop
 100b34a:	0000                	unimp
 100b34c:	0000                	unimp
 100b34e:	0000                	unimp
 100b350:	8e68                	0x8e68
 100b352:	7000                	ld	s0,32(s0)
 100b354:	0000                	unimp
 100b356:	0000                	unimp
 100b358:	8e88                	0x8e88
 100b35a:	7000                	ld	s0,32(s0)
 100b35c:	0000                	unimp
 100b35e:	0000                	unimp
 100b360:	8ea8                	0x8ea8
 100b362:	7000                	ld	s0,32(s0)
 100b364:	0000                	unimp
 100b366:	0000                	unimp
 100b368:	8ec0                	0x8ec0
 100b36a:	7000                	ld	s0,32(s0)
 100b36c:	0000                	unimp
 100b36e:	0000                	unimp
 100b370:	8ed0                	0x8ed0
 100b372:	7000                	ld	s0,32(s0)
 100b374:	0000                	unimp
 100b376:	0000                	unimp
 100b378:	8ee8                	0x8ee8
 100b37a:	7000                	ld	s0,32(s0)
 100b37c:	0000                	unimp
 100b37e:	0000                	unimp
 100b380:	8f00                	0x8f00
 100b382:	7000                	ld	s0,32(s0)
 100b384:	0000                	unimp
 100b386:	0000                	unimp
 100b388:	8f20                	0x8f20
 100b38a:	7000                	ld	s0,32(s0)
 100b38c:	0000                	unimp
 100b38e:	0000                	unimp
 100b390:	8f38                	0x8f38
 100b392:	7000                	ld	s0,32(s0)
 100b394:	0000                	unimp
 100b396:	0000                	unimp
 100b398:	8f58                	0x8f58
 100b39a:	7000                	ld	s0,32(s0)
 100b39c:	0000                	unimp
 100b39e:	0000                	unimp
 100b3a0:	8f78                	0x8f78
 100b3a2:	7000                	ld	s0,32(s0)
 100b3a4:	0000                	unimp
 100b3a6:	0000                	unimp
 100b3a8:	8f88                	0x8f88
 100b3aa:	7000                	ld	s0,32(s0)
 100b3ac:	0000                	unimp
 100b3ae:	0000                	unimp
 100b3b0:	8fa8                	0x8fa8
 100b3b2:	7000                	ld	s0,32(s0)
 100b3b4:	0000                	unimp
 100b3b6:	0000                	unimp
 100b3b8:	8fc0                	0x8fc0
 100b3ba:	7000                	ld	s0,32(s0)
 100b3bc:	0000                	unimp
 100b3be:	0000                	unimp
 100b3c0:	8f78                	0x8f78
 100b3c2:	7000                	ld	s0,32(s0)
 100b3c4:	0000                	unimp
 100b3c6:	0000                	unimp
 100b3c8:	8fd0                	0x8fd0
 100b3ca:	7000                	ld	s0,32(s0)
	...
 100b480:	9f80                	0x9f80
 100b482:	7000                	ld	s0,32(s0)
 100b484:	0000                	unimp
 100b486:	0000                	unimp
 100b488:	9f80                	0x9f80
 100b48a:	7000                	ld	s0,32(s0)
 100b48c:	0000                	unimp
 100b48e:	0000                	unimp
 100b490:	9f90                	0x9f90
 100b492:	7000                	ld	s0,32(s0)
 100b494:	0000                	unimp
 100b496:	0000                	unimp
 100b498:	9f90                	0x9f90
 100b49a:	7000                	ld	s0,32(s0)
 100b49c:	0000                	unimp
 100b49e:	0000                	unimp
 100b4a0:	9fa0                	0x9fa0
 100b4a2:	7000                	ld	s0,32(s0)
 100b4a4:	0000                	unimp
 100b4a6:	0000                	unimp
 100b4a8:	9fa0                	0x9fa0
 100b4aa:	7000                	ld	s0,32(s0)
 100b4ac:	0000                	unimp
 100b4ae:	0000                	unimp
 100b4b0:	9fb0                	0x9fb0
 100b4b2:	7000                	ld	s0,32(s0)
 100b4b4:	0000                	unimp
 100b4b6:	0000                	unimp
 100b4b8:	9fb0                	0x9fb0
 100b4ba:	7000                	ld	s0,32(s0)
 100b4bc:	0000                	unimp
 100b4be:	0000                	unimp
 100b4c0:	9fc0                	0x9fc0
 100b4c2:	7000                	ld	s0,32(s0)
 100b4c4:	0000                	unimp
 100b4c6:	0000                	unimp
 100b4c8:	9fc0                	0x9fc0
 100b4ca:	7000                	ld	s0,32(s0)
 100b4cc:	0000                	unimp
 100b4ce:	0000                	unimp
 100b4d0:	9fd0                	0x9fd0
 100b4d2:	7000                	ld	s0,32(s0)
 100b4d4:	0000                	unimp
 100b4d6:	0000                	unimp
 100b4d8:	9fd0                	0x9fd0
 100b4da:	7000                	ld	s0,32(s0)
 100b4dc:	0000                	unimp
 100b4de:	0000                	unimp
 100b4e0:	9fe0                	0x9fe0
 100b4e2:	7000                	ld	s0,32(s0)
 100b4e4:	0000                	unimp
 100b4e6:	0000                	unimp
 100b4e8:	9fe0                	0x9fe0
 100b4ea:	7000                	ld	s0,32(s0)
 100b4ec:	0000                	unimp
 100b4ee:	0000                	unimp
 100b4f0:	9ff0                	0x9ff0
 100b4f2:	7000                	ld	s0,32(s0)
 100b4f4:	0000                	unimp
 100b4f6:	0000                	unimp
 100b4f8:	9ff0                	0x9ff0
 100b4fa:	7000                	ld	s0,32(s0)
 100b4fc:	0000                	unimp
 100b4fe:	0000                	unimp
 100b500:	a000                	fsd	fs0,0(s0)
 100b502:	7000                	ld	s0,32(s0)
 100b504:	0000                	unimp
 100b506:	0000                	unimp
 100b508:	a000                	fsd	fs0,0(s0)
 100b50a:	7000                	ld	s0,32(s0)
 100b50c:	0000                	unimp
 100b50e:	0000                	unimp
 100b510:	a010                	fsd	fa2,0(s0)
 100b512:	7000                	ld	s0,32(s0)
 100b514:	0000                	unimp
 100b516:	0000                	unimp
 100b518:	a010                	fsd	fa2,0(s0)
 100b51a:	7000                	ld	s0,32(s0)
 100b51c:	0000                	unimp
 100b51e:	0000                	unimp
 100b520:	a020                	fsd	fs0,64(s0)
 100b522:	7000                	ld	s0,32(s0)
 100b524:	0000                	unimp
 100b526:	0000                	unimp
 100b528:	a020                	fsd	fs0,64(s0)
 100b52a:	7000                	ld	s0,32(s0)
 100b52c:	0000                	unimp
 100b52e:	0000                	unimp
 100b530:	a030                	fsd	fa2,64(s0)
 100b532:	7000                	ld	s0,32(s0)
 100b534:	0000                	unimp
 100b536:	0000                	unimp
 100b538:	a030                	fsd	fa2,64(s0)
 100b53a:	7000                	ld	s0,32(s0)
 100b53c:	0000                	unimp
 100b53e:	0000                	unimp
 100b540:	a040                	fsd	fs0,128(s0)
 100b542:	7000                	ld	s0,32(s0)
 100b544:	0000                	unimp
 100b546:	0000                	unimp
 100b548:	a040                	fsd	fs0,128(s0)
 100b54a:	7000                	ld	s0,32(s0)
 100b54c:	0000                	unimp
 100b54e:	0000                	unimp
 100b550:	a050                	fsd	fa2,128(s0)
 100b552:	7000                	ld	s0,32(s0)
 100b554:	0000                	unimp
 100b556:	0000                	unimp
 100b558:	a050                	fsd	fa2,128(s0)
 100b55a:	7000                	ld	s0,32(s0)
 100b55c:	0000                	unimp
 100b55e:	0000                	unimp
 100b560:	a060                	fsd	fs0,192(s0)
 100b562:	7000                	ld	s0,32(s0)
 100b564:	0000                	unimp
 100b566:	0000                	unimp
 100b568:	a060                	fsd	fs0,192(s0)
 100b56a:	7000                	ld	s0,32(s0)
 100b56c:	0000                	unimp
 100b56e:	0000                	unimp
 100b570:	a070                	fsd	fa2,192(s0)
 100b572:	7000                	ld	s0,32(s0)
 100b574:	0000                	unimp
 100b576:	0000                	unimp
 100b578:	a070                	fsd	fa2,192(s0)
 100b57a:	7000                	ld	s0,32(s0)
 100b57c:	0000                	unimp
 100b57e:	0000                	unimp
 100b580:	a080                	fsd	fs0,0(s1)
 100b582:	7000                	ld	s0,32(s0)
 100b584:	0000                	unimp
 100b586:	0000                	unimp
 100b588:	a080                	fsd	fs0,0(s1)
 100b58a:	7000                	ld	s0,32(s0)
 100b58c:	0000                	unimp
 100b58e:	0000                	unimp
 100b590:	a090                	fsd	fa2,0(s1)
 100b592:	7000                	ld	s0,32(s0)
 100b594:	0000                	unimp
 100b596:	0000                	unimp
 100b598:	a090                	fsd	fa2,0(s1)
 100b59a:	7000                	ld	s0,32(s0)
 100b59c:	0000                	unimp
 100b59e:	0000                	unimp
 100b5a0:	a0a0                	fsd	fs0,64(s1)
 100b5a2:	7000                	ld	s0,32(s0)
 100b5a4:	0000                	unimp
 100b5a6:	0000                	unimp
 100b5a8:	a0a0                	fsd	fs0,64(s1)
 100b5aa:	7000                	ld	s0,32(s0)
 100b5ac:	0000                	unimp
 100b5ae:	0000                	unimp
 100b5b0:	a0b0                	fsd	fa2,64(s1)
 100b5b2:	7000                	ld	s0,32(s0)
 100b5b4:	0000                	unimp
 100b5b6:	0000                	unimp
 100b5b8:	a0b0                	fsd	fa2,64(s1)
 100b5ba:	7000                	ld	s0,32(s0)
 100b5bc:	0000                	unimp
 100b5be:	0000                	unimp
 100b5c0:	a0c0                	fsd	fs0,128(s1)
 100b5c2:	7000                	ld	s0,32(s0)
 100b5c4:	0000                	unimp
 100b5c6:	0000                	unimp
 100b5c8:	a0c0                	fsd	fs0,128(s1)
 100b5ca:	7000                	ld	s0,32(s0)
 100b5cc:	0000                	unimp
 100b5ce:	0000                	unimp
 100b5d0:	a0d0                	fsd	fa2,128(s1)
 100b5d2:	7000                	ld	s0,32(s0)
 100b5d4:	0000                	unimp
 100b5d6:	0000                	unimp
 100b5d8:	a0d0                	fsd	fa2,128(s1)
 100b5da:	7000                	ld	s0,32(s0)
 100b5dc:	0000                	unimp
 100b5de:	0000                	unimp
 100b5e0:	a0e0                	fsd	fs0,192(s1)
 100b5e2:	7000                	ld	s0,32(s0)
 100b5e4:	0000                	unimp
 100b5e6:	0000                	unimp
 100b5e8:	a0e0                	fsd	fs0,192(s1)
 100b5ea:	7000                	ld	s0,32(s0)
 100b5ec:	0000                	unimp
 100b5ee:	0000                	unimp
 100b5f0:	a0f0                	fsd	fa2,192(s1)
 100b5f2:	7000                	ld	s0,32(s0)
 100b5f4:	0000                	unimp
 100b5f6:	0000                	unimp
 100b5f8:	a0f0                	fsd	fa2,192(s1)
 100b5fa:	7000                	ld	s0,32(s0)
 100b5fc:	0000                	unimp
 100b5fe:	0000                	unimp
 100b600:	a100                	fsd	fs0,0(a0)
 100b602:	7000                	ld	s0,32(s0)
 100b604:	0000                	unimp
 100b606:	0000                	unimp
 100b608:	a100                	fsd	fs0,0(a0)
 100b60a:	7000                	ld	s0,32(s0)
 100b60c:	0000                	unimp
 100b60e:	0000                	unimp
 100b610:	a110                	fsd	fa2,0(a0)
 100b612:	7000                	ld	s0,32(s0)
 100b614:	0000                	unimp
 100b616:	0000                	unimp
 100b618:	a110                	fsd	fa2,0(a0)
 100b61a:	7000                	ld	s0,32(s0)
 100b61c:	0000                	unimp
 100b61e:	0000                	unimp
 100b620:	a120                	fsd	fs0,64(a0)
 100b622:	7000                	ld	s0,32(s0)
 100b624:	0000                	unimp
 100b626:	0000                	unimp
 100b628:	a120                	fsd	fs0,64(a0)
 100b62a:	7000                	ld	s0,32(s0)
 100b62c:	0000                	unimp
 100b62e:	0000                	unimp
 100b630:	a130                	fsd	fa2,64(a0)
 100b632:	7000                	ld	s0,32(s0)
 100b634:	0000                	unimp
 100b636:	0000                	unimp
 100b638:	a130                	fsd	fa2,64(a0)
 100b63a:	7000                	ld	s0,32(s0)
 100b63c:	0000                	unimp
 100b63e:	0000                	unimp
 100b640:	a140                	fsd	fs0,128(a0)
 100b642:	7000                	ld	s0,32(s0)
 100b644:	0000                	unimp
 100b646:	0000                	unimp
 100b648:	a140                	fsd	fs0,128(a0)
 100b64a:	7000                	ld	s0,32(s0)
 100b64c:	0000                	unimp
 100b64e:	0000                	unimp
 100b650:	a150                	fsd	fa2,128(a0)
 100b652:	7000                	ld	s0,32(s0)
 100b654:	0000                	unimp
 100b656:	0000                	unimp
 100b658:	a150                	fsd	fa2,128(a0)
 100b65a:	7000                	ld	s0,32(s0)
 100b65c:	0000                	unimp
 100b65e:	0000                	unimp
 100b660:	a160                	fsd	fs0,192(a0)
 100b662:	7000                	ld	s0,32(s0)
 100b664:	0000                	unimp
 100b666:	0000                	unimp
 100b668:	a160                	fsd	fs0,192(a0)
 100b66a:	7000                	ld	s0,32(s0)
 100b66c:	0000                	unimp
 100b66e:	0000                	unimp
 100b670:	a170                	fsd	fa2,192(a0)
 100b672:	7000                	ld	s0,32(s0)
 100b674:	0000                	unimp
 100b676:	0000                	unimp
 100b678:	a170                	fsd	fa2,192(a0)
 100b67a:	7000                	ld	s0,32(s0)
 100b67c:	0000                	unimp
 100b67e:	0000                	unimp
 100b680:	a180                	fsd	fs0,0(a1)
 100b682:	7000                	ld	s0,32(s0)
 100b684:	0000                	unimp
 100b686:	0000                	unimp
 100b688:	a180                	fsd	fs0,0(a1)
 100b68a:	7000                	ld	s0,32(s0)
 100b68c:	0000                	unimp
 100b68e:	0000                	unimp
 100b690:	a190                	fsd	fa2,0(a1)
 100b692:	7000                	ld	s0,32(s0)
 100b694:	0000                	unimp
 100b696:	0000                	unimp
 100b698:	a190                	fsd	fa2,0(a1)
 100b69a:	7000                	ld	s0,32(s0)
 100b69c:	0000                	unimp
 100b69e:	0000                	unimp
 100b6a0:	a1a0                	fsd	fs0,64(a1)
 100b6a2:	7000                	ld	s0,32(s0)
 100b6a4:	0000                	unimp
 100b6a6:	0000                	unimp
 100b6a8:	a1a0                	fsd	fs0,64(a1)
 100b6aa:	7000                	ld	s0,32(s0)
 100b6ac:	0000                	unimp
 100b6ae:	0000                	unimp
 100b6b0:	a1b0                	fsd	fa2,64(a1)
 100b6b2:	7000                	ld	s0,32(s0)
 100b6b4:	0000                	unimp
 100b6b6:	0000                	unimp
 100b6b8:	a1b0                	fsd	fa2,64(a1)
 100b6ba:	7000                	ld	s0,32(s0)
 100b6bc:	0000                	unimp
 100b6be:	0000                	unimp
 100b6c0:	a1c0                	fsd	fs0,128(a1)
 100b6c2:	7000                	ld	s0,32(s0)
 100b6c4:	0000                	unimp
 100b6c6:	0000                	unimp
 100b6c8:	a1c0                	fsd	fs0,128(a1)
 100b6ca:	7000                	ld	s0,32(s0)
 100b6cc:	0000                	unimp
 100b6ce:	0000                	unimp
 100b6d0:	a1d0                	fsd	fa2,128(a1)
 100b6d2:	7000                	ld	s0,32(s0)
 100b6d4:	0000                	unimp
 100b6d6:	0000                	unimp
 100b6d8:	a1d0                	fsd	fa2,128(a1)
 100b6da:	7000                	ld	s0,32(s0)
 100b6dc:	0000                	unimp
 100b6de:	0000                	unimp
 100b6e0:	a1e0                	fsd	fs0,192(a1)
 100b6e2:	7000                	ld	s0,32(s0)
 100b6e4:	0000                	unimp
 100b6e6:	0000                	unimp
 100b6e8:	a1e0                	fsd	fs0,192(a1)
 100b6ea:	7000                	ld	s0,32(s0)
 100b6ec:	0000                	unimp
 100b6ee:	0000                	unimp
 100b6f0:	a1f0                	fsd	fa2,192(a1)
 100b6f2:	7000                	ld	s0,32(s0)
 100b6f4:	0000                	unimp
 100b6f6:	0000                	unimp
 100b6f8:	a1f0                	fsd	fa2,192(a1)
 100b6fa:	7000                	ld	s0,32(s0)
 100b6fc:	0000                	unimp
 100b6fe:	0000                	unimp
 100b700:	a200                	fsd	fs0,0(a2)
 100b702:	7000                	ld	s0,32(s0)
 100b704:	0000                	unimp
 100b706:	0000                	unimp
 100b708:	a200                	fsd	fs0,0(a2)
 100b70a:	7000                	ld	s0,32(s0)
 100b70c:	0000                	unimp
 100b70e:	0000                	unimp
 100b710:	a210                	fsd	fa2,0(a2)
 100b712:	7000                	ld	s0,32(s0)
 100b714:	0000                	unimp
 100b716:	0000                	unimp
 100b718:	a210                	fsd	fa2,0(a2)
 100b71a:	7000                	ld	s0,32(s0)
 100b71c:	0000                	unimp
 100b71e:	0000                	unimp
 100b720:	a220                	fsd	fs0,64(a2)
 100b722:	7000                	ld	s0,32(s0)
 100b724:	0000                	unimp
 100b726:	0000                	unimp
 100b728:	a220                	fsd	fs0,64(a2)
 100b72a:	7000                	ld	s0,32(s0)
 100b72c:	0000                	unimp
 100b72e:	0000                	unimp
 100b730:	a230                	fsd	fa2,64(a2)
 100b732:	7000                	ld	s0,32(s0)
 100b734:	0000                	unimp
 100b736:	0000                	unimp
 100b738:	a230                	fsd	fa2,64(a2)
 100b73a:	7000                	ld	s0,32(s0)
 100b73c:	0000                	unimp
 100b73e:	0000                	unimp
 100b740:	a240                	fsd	fs0,128(a2)
 100b742:	7000                	ld	s0,32(s0)
 100b744:	0000                	unimp
 100b746:	0000                	unimp
 100b748:	a240                	fsd	fs0,128(a2)
 100b74a:	7000                	ld	s0,32(s0)
 100b74c:	0000                	unimp
 100b74e:	0000                	unimp
 100b750:	a250                	fsd	fa2,128(a2)
 100b752:	7000                	ld	s0,32(s0)
 100b754:	0000                	unimp
 100b756:	0000                	unimp
 100b758:	a250                	fsd	fa2,128(a2)
 100b75a:	7000                	ld	s0,32(s0)
 100b75c:	0000                	unimp
 100b75e:	0000                	unimp
 100b760:	a260                	fsd	fs0,192(a2)
 100b762:	7000                	ld	s0,32(s0)
 100b764:	0000                	unimp
 100b766:	0000                	unimp
 100b768:	a260                	fsd	fs0,192(a2)
 100b76a:	7000                	ld	s0,32(s0)
 100b76c:	0000                	unimp
 100b76e:	0000                	unimp
 100b770:	a270                	fsd	fa2,192(a2)
 100b772:	7000                	ld	s0,32(s0)
 100b774:	0000                	unimp
 100b776:	0000                	unimp
 100b778:	a270                	fsd	fa2,192(a2)
 100b77a:	7000                	ld	s0,32(s0)
 100b77c:	0000                	unimp
 100b77e:	0000                	unimp
 100b780:	a280                	fsd	fs0,0(a3)
 100b782:	7000                	ld	s0,32(s0)
 100b784:	0000                	unimp
 100b786:	0000                	unimp
 100b788:	a280                	fsd	fs0,0(a3)
 100b78a:	7000                	ld	s0,32(s0)
 100b78c:	0000                	unimp
 100b78e:	0000                	unimp
 100b790:	a290                	fsd	fa2,0(a3)
 100b792:	7000                	ld	s0,32(s0)
 100b794:	0000                	unimp
 100b796:	0000                	unimp
 100b798:	a290                	fsd	fa2,0(a3)
 100b79a:	7000                	ld	s0,32(s0)
 100b79c:	0000                	unimp
 100b79e:	0000                	unimp
 100b7a0:	a2a0                	fsd	fs0,64(a3)
 100b7a2:	7000                	ld	s0,32(s0)
 100b7a4:	0000                	unimp
 100b7a6:	0000                	unimp
 100b7a8:	a2a0                	fsd	fs0,64(a3)
 100b7aa:	7000                	ld	s0,32(s0)
 100b7ac:	0000                	unimp
 100b7ae:	0000                	unimp
 100b7b0:	a2b0                	fsd	fa2,64(a3)
 100b7b2:	7000                	ld	s0,32(s0)
 100b7b4:	0000                	unimp
 100b7b6:	0000                	unimp
 100b7b8:	a2b0                	fsd	fa2,64(a3)
 100b7ba:	7000                	ld	s0,32(s0)
 100b7bc:	0000                	unimp
 100b7be:	0000                	unimp
 100b7c0:	a2c0                	fsd	fs0,128(a3)
 100b7c2:	7000                	ld	s0,32(s0)
 100b7c4:	0000                	unimp
 100b7c6:	0000                	unimp
 100b7c8:	a2c0                	fsd	fs0,128(a3)
 100b7ca:	7000                	ld	s0,32(s0)
 100b7cc:	0000                	unimp
 100b7ce:	0000                	unimp
 100b7d0:	a2d0                	fsd	fa2,128(a3)
 100b7d2:	7000                	ld	s0,32(s0)
 100b7d4:	0000                	unimp
 100b7d6:	0000                	unimp
 100b7d8:	a2d0                	fsd	fa2,128(a3)
 100b7da:	7000                	ld	s0,32(s0)
 100b7dc:	0000                	unimp
 100b7de:	0000                	unimp
 100b7e0:	a2e0                	fsd	fs0,192(a3)
 100b7e2:	7000                	ld	s0,32(s0)
 100b7e4:	0000                	unimp
 100b7e6:	0000                	unimp
 100b7e8:	a2e0                	fsd	fs0,192(a3)
 100b7ea:	7000                	ld	s0,32(s0)
 100b7ec:	0000                	unimp
 100b7ee:	0000                	unimp
 100b7f0:	a2f0                	fsd	fa2,192(a3)
 100b7f2:	7000                	ld	s0,32(s0)
 100b7f4:	0000                	unimp
 100b7f6:	0000                	unimp
 100b7f8:	a2f0                	fsd	fa2,192(a3)
 100b7fa:	7000                	ld	s0,32(s0)
 100b7fc:	0000                	unimp
 100b7fe:	0000                	unimp
 100b800:	a300                	fsd	fs0,0(a4)
 100b802:	7000                	ld	s0,32(s0)
 100b804:	0000                	unimp
 100b806:	0000                	unimp
 100b808:	a300                	fsd	fs0,0(a4)
 100b80a:	7000                	ld	s0,32(s0)
 100b80c:	0000                	unimp
 100b80e:	0000                	unimp
 100b810:	a310                	fsd	fa2,0(a4)
 100b812:	7000                	ld	s0,32(s0)
 100b814:	0000                	unimp
 100b816:	0000                	unimp
 100b818:	a310                	fsd	fa2,0(a4)
 100b81a:	7000                	ld	s0,32(s0)
 100b81c:	0000                	unimp
 100b81e:	0000                	unimp
 100b820:	a320                	fsd	fs0,64(a4)
 100b822:	7000                	ld	s0,32(s0)
 100b824:	0000                	unimp
 100b826:	0000                	unimp
 100b828:	a320                	fsd	fs0,64(a4)
 100b82a:	7000                	ld	s0,32(s0)
 100b82c:	0000                	unimp
 100b82e:	0000                	unimp
 100b830:	a330                	fsd	fa2,64(a4)
 100b832:	7000                	ld	s0,32(s0)
 100b834:	0000                	unimp
 100b836:	0000                	unimp
 100b838:	a330                	fsd	fa2,64(a4)
 100b83a:	7000                	ld	s0,32(s0)
 100b83c:	0000                	unimp
 100b83e:	0000                	unimp
 100b840:	a340                	fsd	fs0,128(a4)
 100b842:	7000                	ld	s0,32(s0)
 100b844:	0000                	unimp
 100b846:	0000                	unimp
 100b848:	a340                	fsd	fs0,128(a4)
 100b84a:	7000                	ld	s0,32(s0)
 100b84c:	0000                	unimp
 100b84e:	0000                	unimp
 100b850:	a350                	fsd	fa2,128(a4)
 100b852:	7000                	ld	s0,32(s0)
 100b854:	0000                	unimp
 100b856:	0000                	unimp
 100b858:	a350                	fsd	fa2,128(a4)
 100b85a:	7000                	ld	s0,32(s0)
 100b85c:	0000                	unimp
 100b85e:	0000                	unimp
 100b860:	a360                	fsd	fs0,192(a4)
 100b862:	7000                	ld	s0,32(s0)
 100b864:	0000                	unimp
 100b866:	0000                	unimp
 100b868:	a360                	fsd	fs0,192(a4)
 100b86a:	7000                	ld	s0,32(s0)
 100b86c:	0000                	unimp
 100b86e:	0000                	unimp
 100b870:	a370                	fsd	fa2,192(a4)
 100b872:	7000                	ld	s0,32(s0)
 100b874:	0000                	unimp
 100b876:	0000                	unimp
 100b878:	a370                	fsd	fa2,192(a4)
 100b87a:	7000                	ld	s0,32(s0)
 100b87c:	0000                	unimp
 100b87e:	0000                	unimp
 100b880:	a380                	fsd	fs0,0(a5)
 100b882:	7000                	ld	s0,32(s0)
 100b884:	0000                	unimp
 100b886:	0000                	unimp
 100b888:	a380                	fsd	fs0,0(a5)
 100b88a:	7000                	ld	s0,32(s0)
 100b88c:	0000                	unimp
 100b88e:	0000                	unimp
 100b890:	a390                	fsd	fa2,0(a5)
 100b892:	7000                	ld	s0,32(s0)
 100b894:	0000                	unimp
 100b896:	0000                	unimp
 100b898:	a390                	fsd	fa2,0(a5)
 100b89a:	7000                	ld	s0,32(s0)
 100b89c:	0000                	unimp
 100b89e:	0000                	unimp
 100b8a0:	a3a0                	fsd	fs0,64(a5)
 100b8a2:	7000                	ld	s0,32(s0)
 100b8a4:	0000                	unimp
 100b8a6:	0000                	unimp
 100b8a8:	a3a0                	fsd	fs0,64(a5)
 100b8aa:	7000                	ld	s0,32(s0)
 100b8ac:	0000                	unimp
 100b8ae:	0000                	unimp
 100b8b0:	a3b0                	fsd	fa2,64(a5)
 100b8b2:	7000                	ld	s0,32(s0)
 100b8b4:	0000                	unimp
 100b8b6:	0000                	unimp
 100b8b8:	a3b0                	fsd	fa2,64(a5)
 100b8ba:	7000                	ld	s0,32(s0)
 100b8bc:	0000                	unimp
 100b8be:	0000                	unimp
 100b8c0:	a3c0                	fsd	fs0,128(a5)
 100b8c2:	7000                	ld	s0,32(s0)
 100b8c4:	0000                	unimp
 100b8c6:	0000                	unimp
 100b8c8:	a3c0                	fsd	fs0,128(a5)
 100b8ca:	7000                	ld	s0,32(s0)
 100b8cc:	0000                	unimp
 100b8ce:	0000                	unimp
 100b8d0:	a3d0                	fsd	fa2,128(a5)
 100b8d2:	7000                	ld	s0,32(s0)
 100b8d4:	0000                	unimp
 100b8d6:	0000                	unimp
 100b8d8:	a3d0                	fsd	fa2,128(a5)
 100b8da:	7000                	ld	s0,32(s0)
 100b8dc:	0000                	unimp
 100b8de:	0000                	unimp
 100b8e0:	a3e0                	fsd	fs0,192(a5)
 100b8e2:	7000                	ld	s0,32(s0)
 100b8e4:	0000                	unimp
 100b8e6:	0000                	unimp
 100b8e8:	a3e0                	fsd	fs0,192(a5)
 100b8ea:	7000                	ld	s0,32(s0)
 100b8ec:	0000                	unimp
 100b8ee:	0000                	unimp
 100b8f0:	a3f0                	fsd	fa2,192(a5)
 100b8f2:	7000                	ld	s0,32(s0)
 100b8f4:	0000                	unimp
 100b8f6:	0000                	unimp
 100b8f8:	a3f0                	fsd	fa2,192(a5)
 100b8fa:	7000                	ld	s0,32(s0)
 100b8fc:	0000                	unimp
 100b8fe:	0000                	unimp
 100b900:	a400                	fsd	fs0,8(s0)
 100b902:	7000                	ld	s0,32(s0)
 100b904:	0000                	unimp
 100b906:	0000                	unimp
 100b908:	a400                	fsd	fs0,8(s0)
 100b90a:	7000                	ld	s0,32(s0)
 100b90c:	0000                	unimp
 100b90e:	0000                	unimp
 100b910:	a410                	fsd	fa2,8(s0)
 100b912:	7000                	ld	s0,32(s0)
 100b914:	0000                	unimp
 100b916:	0000                	unimp
 100b918:	a410                	fsd	fa2,8(s0)
 100b91a:	7000                	ld	s0,32(s0)
 100b91c:	0000                	unimp
 100b91e:	0000                	unimp
 100b920:	a420                	fsd	fs0,72(s0)
 100b922:	7000                	ld	s0,32(s0)
 100b924:	0000                	unimp
 100b926:	0000                	unimp
 100b928:	a420                	fsd	fs0,72(s0)
 100b92a:	7000                	ld	s0,32(s0)
 100b92c:	0000                	unimp
 100b92e:	0000                	unimp
 100b930:	a430                	fsd	fa2,72(s0)
 100b932:	7000                	ld	s0,32(s0)
 100b934:	0000                	unimp
 100b936:	0000                	unimp
 100b938:	a430                	fsd	fa2,72(s0)
 100b93a:	7000                	ld	s0,32(s0)
 100b93c:	0000                	unimp
 100b93e:	0000                	unimp
 100b940:	a440                	fsd	fs0,136(s0)
 100b942:	7000                	ld	s0,32(s0)
 100b944:	0000                	unimp
 100b946:	0000                	unimp
 100b948:	a440                	fsd	fs0,136(s0)
 100b94a:	7000                	ld	s0,32(s0)
 100b94c:	0000                	unimp
 100b94e:	0000                	unimp
 100b950:	a450                	fsd	fa2,136(s0)
 100b952:	7000                	ld	s0,32(s0)
 100b954:	0000                	unimp
 100b956:	0000                	unimp
 100b958:	a450                	fsd	fa2,136(s0)
 100b95a:	7000                	ld	s0,32(s0)
 100b95c:	0000                	unimp
 100b95e:	0000                	unimp
 100b960:	a460                	fsd	fs0,200(s0)
 100b962:	7000                	ld	s0,32(s0)
 100b964:	0000                	unimp
 100b966:	0000                	unimp
 100b968:	a460                	fsd	fs0,200(s0)
 100b96a:	7000                	ld	s0,32(s0)
 100b96c:	0000                	unimp
 100b96e:	0000                	unimp
 100b970:	a470                	fsd	fa2,200(s0)
 100b972:	7000                	ld	s0,32(s0)
 100b974:	0000                	unimp
 100b976:	0000                	unimp
 100b978:	a470                	fsd	fa2,200(s0)
 100b97a:	7000                	ld	s0,32(s0)
 100b97c:	0000                	unimp
 100b97e:	0000                	unimp
 100b980:	a480                	fsd	fs0,8(s1)
 100b982:	7000                	ld	s0,32(s0)
 100b984:	0000                	unimp
 100b986:	0000                	unimp
 100b988:	a480                	fsd	fs0,8(s1)
 100b98a:	7000                	ld	s0,32(s0)
 100b98c:	0000                	unimp
 100b98e:	0000                	unimp
 100b990:	a490                	fsd	fa2,8(s1)
 100b992:	7000                	ld	s0,32(s0)
 100b994:	0000                	unimp
 100b996:	0000                	unimp
 100b998:	a490                	fsd	fa2,8(s1)
 100b99a:	7000                	ld	s0,32(s0)
 100b99c:	0000                	unimp
 100b99e:	0000                	unimp
 100b9a0:	a4a0                	fsd	fs0,72(s1)
 100b9a2:	7000                	ld	s0,32(s0)
 100b9a4:	0000                	unimp
 100b9a6:	0000                	unimp
 100b9a8:	a4a0                	fsd	fs0,72(s1)
 100b9aa:	7000                	ld	s0,32(s0)
 100b9ac:	0000                	unimp
 100b9ae:	0000                	unimp
 100b9b0:	a4b0                	fsd	fa2,72(s1)
 100b9b2:	7000                	ld	s0,32(s0)
 100b9b4:	0000                	unimp
 100b9b6:	0000                	unimp
 100b9b8:	a4b0                	fsd	fa2,72(s1)
 100b9ba:	7000                	ld	s0,32(s0)
 100b9bc:	0000                	unimp
 100b9be:	0000                	unimp
 100b9c0:	a4c0                	fsd	fs0,136(s1)
 100b9c2:	7000                	ld	s0,32(s0)
 100b9c4:	0000                	unimp
 100b9c6:	0000                	unimp
 100b9c8:	a4c0                	fsd	fs0,136(s1)
 100b9ca:	7000                	ld	s0,32(s0)
 100b9cc:	0000                	unimp
 100b9ce:	0000                	unimp
 100b9d0:	a4d0                	fsd	fa2,136(s1)
 100b9d2:	7000                	ld	s0,32(s0)
 100b9d4:	0000                	unimp
 100b9d6:	0000                	unimp
 100b9d8:	a4d0                	fsd	fa2,136(s1)
 100b9da:	7000                	ld	s0,32(s0)
 100b9dc:	0000                	unimp
 100b9de:	0000                	unimp
 100b9e0:	a4e0                	fsd	fs0,200(s1)
 100b9e2:	7000                	ld	s0,32(s0)
 100b9e4:	0000                	unimp
 100b9e6:	0000                	unimp
 100b9e8:	a4e0                	fsd	fs0,200(s1)
 100b9ea:	7000                	ld	s0,32(s0)
 100b9ec:	0000                	unimp
 100b9ee:	0000                	unimp
 100b9f0:	a4f0                	fsd	fa2,200(s1)
 100b9f2:	7000                	ld	s0,32(s0)
 100b9f4:	0000                	unimp
 100b9f6:	0000                	unimp
 100b9f8:	a4f0                	fsd	fa2,200(s1)
 100b9fa:	7000                	ld	s0,32(s0)
 100b9fc:	0000                	unimp
 100b9fe:	0000                	unimp
 100ba00:	a500                	fsd	fs0,8(a0)
 100ba02:	7000                	ld	s0,32(s0)
 100ba04:	0000                	unimp
 100ba06:	0000                	unimp
 100ba08:	a500                	fsd	fs0,8(a0)
 100ba0a:	7000                	ld	s0,32(s0)
 100ba0c:	0000                	unimp
 100ba0e:	0000                	unimp
 100ba10:	a510                	fsd	fa2,8(a0)
 100ba12:	7000                	ld	s0,32(s0)
 100ba14:	0000                	unimp
 100ba16:	0000                	unimp
 100ba18:	a510                	fsd	fa2,8(a0)
 100ba1a:	7000                	ld	s0,32(s0)
 100ba1c:	0000                	unimp
 100ba1e:	0000                	unimp
 100ba20:	a520                	fsd	fs0,72(a0)
 100ba22:	7000                	ld	s0,32(s0)
 100ba24:	0000                	unimp
 100ba26:	0000                	unimp
 100ba28:	a520                	fsd	fs0,72(a0)
 100ba2a:	7000                	ld	s0,32(s0)
 100ba2c:	0000                	unimp
 100ba2e:	0000                	unimp
 100ba30:	a530                	fsd	fa2,72(a0)
 100ba32:	7000                	ld	s0,32(s0)
 100ba34:	0000                	unimp
 100ba36:	0000                	unimp
 100ba38:	a530                	fsd	fa2,72(a0)
 100ba3a:	7000                	ld	s0,32(s0)
 100ba3c:	0000                	unimp
 100ba3e:	0000                	unimp
 100ba40:	a540                	fsd	fs0,136(a0)
 100ba42:	7000                	ld	s0,32(s0)
 100ba44:	0000                	unimp
 100ba46:	0000                	unimp
 100ba48:	a540                	fsd	fs0,136(a0)
 100ba4a:	7000                	ld	s0,32(s0)
 100ba4c:	0000                	unimp
 100ba4e:	0000                	unimp
 100ba50:	a550                	fsd	fa2,136(a0)
 100ba52:	7000                	ld	s0,32(s0)
 100ba54:	0000                	unimp
 100ba56:	0000                	unimp
 100ba58:	a550                	fsd	fa2,136(a0)
 100ba5a:	7000                	ld	s0,32(s0)
 100ba5c:	0000                	unimp
 100ba5e:	0000                	unimp
 100ba60:	a560                	fsd	fs0,200(a0)
 100ba62:	7000                	ld	s0,32(s0)
 100ba64:	0000                	unimp
 100ba66:	0000                	unimp
 100ba68:	a560                	fsd	fs0,200(a0)
 100ba6a:	7000                	ld	s0,32(s0)
 100ba6c:	0000                	unimp
 100ba6e:	0000                	unimp
 100ba70:	a570                	fsd	fa2,200(a0)
 100ba72:	7000                	ld	s0,32(s0)
 100ba74:	0000                	unimp
 100ba76:	0000                	unimp
 100ba78:	a570                	fsd	fa2,200(a0)
 100ba7a:	7000                	ld	s0,32(s0)
 100ba7c:	0000                	unimp
 100ba7e:	0000                	unimp
 100ba80:	a580                	fsd	fs0,8(a1)
 100ba82:	7000                	ld	s0,32(s0)
 100ba84:	0000                	unimp
 100ba86:	0000                	unimp
 100ba88:	a580                	fsd	fs0,8(a1)
 100ba8a:	7000                	ld	s0,32(s0)
 100ba8c:	0000                	unimp
 100ba8e:	0000                	unimp
 100ba90:	a590                	fsd	fa2,8(a1)
 100ba92:	7000                	ld	s0,32(s0)
 100ba94:	0000                	unimp
 100ba96:	0000                	unimp
 100ba98:	a590                	fsd	fa2,8(a1)
 100ba9a:	7000                	ld	s0,32(s0)
 100ba9c:	0000                	unimp
 100ba9e:	0000                	unimp
 100baa0:	a5a0                	fsd	fs0,72(a1)
 100baa2:	7000                	ld	s0,32(s0)
 100baa4:	0000                	unimp
 100baa6:	0000                	unimp
 100baa8:	a5a0                	fsd	fs0,72(a1)
 100baaa:	7000                	ld	s0,32(s0)
 100baac:	0000                	unimp
 100baae:	0000                	unimp
 100bab0:	a5b0                	fsd	fa2,72(a1)
 100bab2:	7000                	ld	s0,32(s0)
 100bab4:	0000                	unimp
 100bab6:	0000                	unimp
 100bab8:	a5b0                	fsd	fa2,72(a1)
 100baba:	7000                	ld	s0,32(s0)
 100babc:	0000                	unimp
 100babe:	0000                	unimp
 100bac0:	a5c0                	fsd	fs0,136(a1)
 100bac2:	7000                	ld	s0,32(s0)
 100bac4:	0000                	unimp
 100bac6:	0000                	unimp
 100bac8:	a5c0                	fsd	fs0,136(a1)
 100baca:	7000                	ld	s0,32(s0)
 100bacc:	0000                	unimp
 100bace:	0000                	unimp
 100bad0:	a5d0                	fsd	fa2,136(a1)
 100bad2:	7000                	ld	s0,32(s0)
 100bad4:	0000                	unimp
 100bad6:	0000                	unimp
 100bad8:	a5d0                	fsd	fa2,136(a1)
 100bada:	7000                	ld	s0,32(s0)
 100badc:	0000                	unimp
 100bade:	0000                	unimp
 100bae0:	a5e0                	fsd	fs0,200(a1)
 100bae2:	7000                	ld	s0,32(s0)
 100bae4:	0000                	unimp
 100bae6:	0000                	unimp
 100bae8:	a5e0                	fsd	fs0,200(a1)
 100baea:	7000                	ld	s0,32(s0)
 100baec:	0000                	unimp
 100baee:	0000                	unimp
 100baf0:	a5f0                	fsd	fa2,200(a1)
 100baf2:	7000                	ld	s0,32(s0)
 100baf4:	0000                	unimp
 100baf6:	0000                	unimp
 100baf8:	a5f0                	fsd	fa2,200(a1)
 100bafa:	7000                	ld	s0,32(s0)
 100bafc:	0000                	unimp
 100bafe:	0000                	unimp
 100bb00:	a600                	fsd	fs0,8(a2)
 100bb02:	7000                	ld	s0,32(s0)
 100bb04:	0000                	unimp
 100bb06:	0000                	unimp
 100bb08:	a600                	fsd	fs0,8(a2)
 100bb0a:	7000                	ld	s0,32(s0)
 100bb0c:	0000                	unimp
 100bb0e:	0000                	unimp
 100bb10:	a610                	fsd	fa2,8(a2)
 100bb12:	7000                	ld	s0,32(s0)
 100bb14:	0000                	unimp
 100bb16:	0000                	unimp
 100bb18:	a610                	fsd	fa2,8(a2)
 100bb1a:	7000                	ld	s0,32(s0)
 100bb1c:	0000                	unimp
 100bb1e:	0000                	unimp
 100bb20:	a620                	fsd	fs0,72(a2)
 100bb22:	7000                	ld	s0,32(s0)
 100bb24:	0000                	unimp
 100bb26:	0000                	unimp
 100bb28:	a620                	fsd	fs0,72(a2)
 100bb2a:	7000                	ld	s0,32(s0)
 100bb2c:	0000                	unimp
 100bb2e:	0000                	unimp
 100bb30:	a630                	fsd	fa2,72(a2)
 100bb32:	7000                	ld	s0,32(s0)
 100bb34:	0000                	unimp
 100bb36:	0000                	unimp
 100bb38:	a630                	fsd	fa2,72(a2)
 100bb3a:	7000                	ld	s0,32(s0)
 100bb3c:	0000                	unimp
 100bb3e:	0000                	unimp
 100bb40:	a640                	fsd	fs0,136(a2)
 100bb42:	7000                	ld	s0,32(s0)
 100bb44:	0000                	unimp
 100bb46:	0000                	unimp
 100bb48:	a640                	fsd	fs0,136(a2)
 100bb4a:	7000                	ld	s0,32(s0)
 100bb4c:	0000                	unimp
 100bb4e:	0000                	unimp
 100bb50:	a650                	fsd	fa2,136(a2)
 100bb52:	7000                	ld	s0,32(s0)
 100bb54:	0000                	unimp
 100bb56:	0000                	unimp
 100bb58:	a650                	fsd	fa2,136(a2)
 100bb5a:	7000                	ld	s0,32(s0)
 100bb5c:	0000                	unimp
 100bb5e:	0000                	unimp
 100bb60:	a660                	fsd	fs0,200(a2)
 100bb62:	7000                	ld	s0,32(s0)
 100bb64:	0000                	unimp
 100bb66:	0000                	unimp
 100bb68:	a660                	fsd	fs0,200(a2)
 100bb6a:	7000                	ld	s0,32(s0)
 100bb6c:	0000                	unimp
 100bb6e:	0000                	unimp
 100bb70:	a670                	fsd	fa2,200(a2)
 100bb72:	7000                	ld	s0,32(s0)
 100bb74:	0000                	unimp
 100bb76:	0000                	unimp
 100bb78:	a670                	fsd	fa2,200(a2)
 100bb7a:	7000                	ld	s0,32(s0)
 100bb7c:	0000                	unimp
 100bb7e:	0000                	unimp
 100bb80:	a680                	fsd	fs0,8(a3)
 100bb82:	7000                	ld	s0,32(s0)
 100bb84:	0000                	unimp
 100bb86:	0000                	unimp
 100bb88:	a680                	fsd	fs0,8(a3)
 100bb8a:	7000                	ld	s0,32(s0)
 100bb8c:	0000                	unimp
 100bb8e:	0000                	unimp
 100bb90:	a690                	fsd	fa2,8(a3)
 100bb92:	7000                	ld	s0,32(s0)
 100bb94:	0000                	unimp
 100bb96:	0000                	unimp
 100bb98:	a690                	fsd	fa2,8(a3)
 100bb9a:	7000                	ld	s0,32(s0)
 100bb9c:	0000                	unimp
 100bb9e:	0000                	unimp
 100bba0:	a6a0                	fsd	fs0,72(a3)
 100bba2:	7000                	ld	s0,32(s0)
 100bba4:	0000                	unimp
 100bba6:	0000                	unimp
 100bba8:	a6a0                	fsd	fs0,72(a3)
 100bbaa:	7000                	ld	s0,32(s0)
 100bbac:	0000                	unimp
 100bbae:	0000                	unimp
 100bbb0:	a6b0                	fsd	fa2,72(a3)
 100bbb2:	7000                	ld	s0,32(s0)
 100bbb4:	0000                	unimp
 100bbb6:	0000                	unimp
 100bbb8:	a6b0                	fsd	fa2,72(a3)
 100bbba:	7000                	ld	s0,32(s0)
 100bbbc:	0000                	unimp
 100bbbe:	0000                	unimp
 100bbc0:	a6c0                	fsd	fs0,136(a3)
 100bbc2:	7000                	ld	s0,32(s0)
 100bbc4:	0000                	unimp
 100bbc6:	0000                	unimp
 100bbc8:	a6c0                	fsd	fs0,136(a3)
 100bbca:	7000                	ld	s0,32(s0)
 100bbcc:	0000                	unimp
 100bbce:	0000                	unimp
 100bbd0:	a6d0                	fsd	fa2,136(a3)
 100bbd2:	7000                	ld	s0,32(s0)
 100bbd4:	0000                	unimp
 100bbd6:	0000                	unimp
 100bbd8:	a6d0                	fsd	fa2,136(a3)
 100bbda:	7000                	ld	s0,32(s0)
 100bbdc:	0000                	unimp
 100bbde:	0000                	unimp
 100bbe0:	a6e0                	fsd	fs0,200(a3)
 100bbe2:	7000                	ld	s0,32(s0)
 100bbe4:	0000                	unimp
 100bbe6:	0000                	unimp
 100bbe8:	a6e0                	fsd	fs0,200(a3)
 100bbea:	7000                	ld	s0,32(s0)
 100bbec:	0000                	unimp
 100bbee:	0000                	unimp
 100bbf0:	a6f0                	fsd	fa2,200(a3)
 100bbf2:	7000                	ld	s0,32(s0)
 100bbf4:	0000                	unimp
 100bbf6:	0000                	unimp
 100bbf8:	a6f0                	fsd	fa2,200(a3)
 100bbfa:	7000                	ld	s0,32(s0)
 100bbfc:	0000                	unimp
 100bbfe:	0000                	unimp
 100bc00:	a700                	fsd	fs0,8(a4)
 100bc02:	7000                	ld	s0,32(s0)
 100bc04:	0000                	unimp
 100bc06:	0000                	unimp
 100bc08:	a700                	fsd	fs0,8(a4)
 100bc0a:	7000                	ld	s0,32(s0)
 100bc0c:	0000                	unimp
 100bc0e:	0000                	unimp
 100bc10:	a710                	fsd	fa2,8(a4)
 100bc12:	7000                	ld	s0,32(s0)
 100bc14:	0000                	unimp
 100bc16:	0000                	unimp
 100bc18:	a710                	fsd	fa2,8(a4)
 100bc1a:	7000                	ld	s0,32(s0)
 100bc1c:	0000                	unimp
 100bc1e:	0000                	unimp
 100bc20:	a720                	fsd	fs0,72(a4)
 100bc22:	7000                	ld	s0,32(s0)
 100bc24:	0000                	unimp
 100bc26:	0000                	unimp
 100bc28:	a720                	fsd	fs0,72(a4)
 100bc2a:	7000                	ld	s0,32(s0)
 100bc2c:	0000                	unimp
 100bc2e:	0000                	unimp
 100bc30:	a730                	fsd	fa2,72(a4)
 100bc32:	7000                	ld	s0,32(s0)
 100bc34:	0000                	unimp
 100bc36:	0000                	unimp
 100bc38:	a730                	fsd	fa2,72(a4)
 100bc3a:	7000                	ld	s0,32(s0)
 100bc3c:	0000                	unimp
 100bc3e:	0000                	unimp
 100bc40:	a740                	fsd	fs0,136(a4)
 100bc42:	7000                	ld	s0,32(s0)
 100bc44:	0000                	unimp
 100bc46:	0000                	unimp
 100bc48:	a740                	fsd	fs0,136(a4)
 100bc4a:	7000                	ld	s0,32(s0)
 100bc4c:	0000                	unimp
 100bc4e:	0000                	unimp
 100bc50:	a750                	fsd	fa2,136(a4)
 100bc52:	7000                	ld	s0,32(s0)
 100bc54:	0000                	unimp
 100bc56:	0000                	unimp
 100bc58:	a750                	fsd	fa2,136(a4)
 100bc5a:	7000                	ld	s0,32(s0)
 100bc5c:	0000                	unimp
 100bc5e:	0000                	unimp
 100bc60:	a760                	fsd	fs0,200(a4)
 100bc62:	7000                	ld	s0,32(s0)
 100bc64:	0000                	unimp
 100bc66:	0000                	unimp
 100bc68:	a760                	fsd	fs0,200(a4)
 100bc6a:	7000                	ld	s0,32(s0)
 100bc6c:	0000                	unimp
 100bc6e:	0000                	unimp
 100bc70:	a770                	fsd	fa2,200(a4)
 100bc72:	7000                	ld	s0,32(s0)
 100bc74:	0000                	unimp
 100bc76:	0000                	unimp
 100bc78:	a770                	fsd	fa2,200(a4)
 100bc7a:	7000                	ld	s0,32(s0)
 100bc7c:	0000                	unimp
 100bc7e:	0000                	unimp
 100bc80:	ffff                	0xffff
 100bc82:	ffff                	0xffff
 100bc84:	ffff                	0xffff
 100bc86:	ffff                	0xffff
 100bc88:	0000                	unimp
 100bc8a:	0002                	c.slli64	zero
	...
 100bc98:	9280                	0x9280
 100bc9a:	7000                	ld	s0,32(s0)
 100bc9c:	0000                	unimp
 100bc9e:	0000                	unimp
 100bca0:	96e8                	0x96e8
 100bca2:	7000                	ld	s0,32(s0)
 100bca4:	0000                	unimp
 100bca6:	0000                	unimp
 100bca8:	0019                	c.nop	6
 100bcaa:	0000                	unimp
 100bcac:	0000                	unimp
 100bcae:	0000                	unimp
 100bcb0:	96f8                	0x96f8
 100bcb2:	7000                	ld	s0,32(s0)
 100bcb4:	0000                	unimp
 100bcb6:	0000                	unimp
 100bcb8:	9710                	0x9710
 100bcba:	7000                	ld	s0,32(s0)
 100bcbc:	0000                	unimp
 100bcbe:	0000                	unimp
 100bcc0:	0005                	c.nop	1
 100bcc2:	0000                	unimp
 100bcc4:	0000                	unimp
 100bcc6:	0000                	unimp
 100bcc8:	9728                	0x9728
 100bcca:	7000                	ld	s0,32(s0)
 100bccc:	0000                	unimp
 100bcce:	0000                	unimp
 100bcd0:	9730                	0x9730
 100bcd2:	7000                	ld	s0,32(s0)
 100bcd4:	0000                	unimp
 100bcd6:	0000                	unimp
 100bcd8:	0002                	c.slli64	zero
 100bcda:	0000                	unimp
 100bcdc:	0000                	unimp
 100bcde:	0000                	unimp
 100bce0:	9738                	0x9738
 100bce2:	7000                	ld	s0,32(s0)
 100bce4:	0000                	unimp
 100bce6:	0000                	unimp
 100bce8:	9740                	0x9740
 100bcea:	7000                	ld	s0,32(s0)
 100bcec:	0000                	unimp
 100bcee:	0000                	unimp
 100bcf0:	0016                	c.slli	zero,0x5
 100bcf2:	0000                	unimp
 100bcf4:	0000                	unimp
 100bcf6:	0000                	unimp
 100bcf8:	9748                	0x9748
 100bcfa:	7000                	ld	s0,32(s0)
 100bcfc:	0000                	unimp
 100bcfe:	0000                	unimp
 100bd00:	9750                	0x9750
 100bd02:	7000                	ld	s0,32(s0)
 100bd04:	0000                	unimp
 100bd06:	0000                	unimp
 100bd08:	00000017          	auipc	zero,0x0
 100bd0c:	0000                	unimp
 100bd0e:	0000                	unimp
 100bd10:	9760                	0x9760
 100bd12:	7000                	ld	s0,32(s0)
 100bd14:	0000                	unimp
 100bd16:	0000                	unimp
 100bd18:	9768                	0x9768
 100bd1a:	7000                	ld	s0,32(s0)
 100bd1c:	0000                	unimp
 100bd1e:	0000                	unimp
 100bd20:	0012                	c.slli	zero,0x4
 100bd22:	0000                	unimp
 100bd24:	0000                	unimp
 100bd26:	0000                	unimp
 100bd28:	9770                	0x9770
 100bd2a:	7000                	ld	s0,32(s0)
 100bd2c:	0000                	unimp
 100bd2e:	0000                	unimp
 100bd30:	9778                	0x9778
 100bd32:	7000                	ld	s0,32(s0)
 100bd34:	0000                	unimp
 100bd36:	0000                	unimp
 100bd38:	001a                	c.slli	zero,0x6
 100bd3a:	0000                	unimp
 100bd3c:	0000                	unimp
 100bd3e:	0000                	unimp
 100bd40:	95a8                	0x95a8
 100bd42:	7000                	ld	s0,32(s0)
 100bd44:	0000                	unimp
 100bd46:	0000                	unimp
 100bd48:	9780                	0x9780
 100bd4a:	7000                	ld	s0,32(s0)
 100bd4c:	0000                	unimp
 100bd4e:	0000                	unimp
 100bd50:	0011                	c.nop	4
 100bd52:	0000                	unimp
 100bd54:	0000                	unimp
 100bd56:	0000                	unimp
 100bd58:	97a0                	0x97a0
 100bd5a:	7000                	ld	s0,32(s0)
 100bd5c:	0000                	unimp
 100bd5e:	0000                	unimp
 100bd60:	8e28                	0x8e28
 100bd62:	7000                	ld	s0,32(s0)
 100bd64:	0000                	unimp
 100bd66:	0000                	unimp
 100bd68:	000e                	c.slli	zero,0x3
 100bd6a:	0000                	unimp
 100bd6c:	0000                	unimp
 100bd6e:	0000                	unimp
 100bd70:	97a8                	0x97a8
 100bd72:	7000                	ld	s0,32(s0)
 100bd74:	0000                	unimp
 100bd76:	0000                	unimp
 100bd78:	97b0                	0x97b0
 100bd7a:	7000                	ld	s0,32(s0)
 100bd7c:	0000                	unimp
 100bd7e:	0000                	unimp
 100bd80:	0010                	0x10
 100bd82:	0000                	unimp
 100bd84:	0000                	unimp
 100bd86:	0000                	unimp
 100bd88:	97b8                	0x97b8
 100bd8a:	7000                	ld	s0,32(s0)
 100bd8c:	0000                	unimp
 100bd8e:	0000                	unimp
 100bd90:	97c0                	0x97c0
 100bd92:	7000                	ld	s0,32(s0)
 100bd94:	0000                	unimp
 100bd96:	0000                	unimp
 100bd98:	0000001b          	sext.w	zero,zero
 100bd9c:	0000                	unimp
 100bd9e:	0000                	unimp
 100bda0:	97c8                	0x97c8
 100bda2:	7000                	ld	s0,32(s0)
 100bda4:	0000                	unimp
 100bda6:	0000                	unimp
 100bda8:	97d0                	0x97d0
 100bdaa:	7000                	ld	s0,32(s0)
 100bdac:	0000                	unimp
 100bdae:	0000                	unimp
 100bdb0:	001c                	0x1c
 100bdb2:	0000                	unimp
 100bdb4:	0000                	unimp
 100bdb6:	0000                	unimp
 100bdb8:	97e0                	0x97e0
 100bdba:	7000                	ld	s0,32(s0)
 100bdbc:	0000                	unimp
 100bdbe:	0000                	unimp
 100bdc0:	97e8                	0x97e8
 100bdc2:	7000                	ld	s0,32(s0)
 100bdc4:	0000                	unimp
 100bdc6:	0000                	unimp
 100bdc8:	ffff                	0xffff
 100bdca:	ffff                	0xffff
 100bdcc:	0000                	unimp
 100bdce:	0000                	unimp
 100bdd0:	7940                	ld	s0,176(a0)
 100bdd2:	7000                	ld	s0,32(s0)
 100bdd4:	0000                	unimp
 100bdd6:	0000                	unimp
 100bdd8:	7940                	ld	s0,176(a0)
 100bdda:	7000                	ld	s0,32(s0)
	...
 100bde8:	99e0                	0x99e0
 100bdea:	7000                	ld	s0,32(s0)
 100bdec:	0000                	unimp
 100bdee:	0000                	unimp
 100bdf0:	99f8                	0x99f8
 100bdf2:	7000                	ld	s0,32(s0)
 100bdf4:	0000                	unimp
 100bdf6:	0000                	unimp
 100bdf8:	9a08                	0x9a08
 100bdfa:	7000                	ld	s0,32(s0)
 100bdfc:	0000                	unimp
 100bdfe:	0000                	unimp
 100be00:	9a18                	0x9a18
 100be02:	7000                	ld	s0,32(s0)
 100be04:	0000                	unimp
 100be06:	0000                	unimp
 100be08:	9a30                	0x9a30
 100be0a:	7000                	ld	s0,32(s0)
 100be0c:	0000                	unimp
 100be0e:	0000                	unimp
 100be10:	9a40                	0x9a40
 100be12:	7000                	ld	s0,32(s0)
 100be14:	0000                	unimp
 100be16:	0000                	unimp
 100be18:	9a58                	0x9a58
 100be1a:	7000                	ld	s0,32(s0)
 100be1c:	0000                	unimp
 100be1e:	0000                	unimp
 100be20:	9a70                	0x9a70
 100be22:	7000                	ld	s0,32(s0)
 100be24:	0000                	unimp
 100be26:	0000                	unimp
 100be28:	9a88                	0x9a88
 100be2a:	7000                	ld	s0,32(s0)
 100be2c:	0000                	unimp
 100be2e:	0000                	unimp
 100be30:	9aa0                	0x9aa0
 100be32:	7000                	ld	s0,32(s0)
 100be34:	0000                	unimp
 100be36:	0000                	unimp
 100be38:	9ab8                	0x9ab8
 100be3a:	7000                	ld	s0,32(s0)
 100be3c:	0000                	unimp
 100be3e:	0000                	unimp
 100be40:	9ad0                	0x9ad0
 100be42:	7000                	ld	s0,32(s0)
 100be44:	0000                	unimp
 100be46:	0000                	unimp
 100be48:	9ae8                	0x9ae8
 100be4a:	7000                	ld	s0,32(s0)
 100be4c:	0000                	unimp
 100be4e:	0000                	unimp
 100be50:	9b00                	0x9b00
 100be52:	7000                	ld	s0,32(s0)
 100be54:	0000                	unimp
 100be56:	0000                	unimp
 100be58:	9b18                	0x9b18
 100be5a:	7000                	ld	s0,32(s0)
 100be5c:	0000                	unimp
 100be5e:	0000                	unimp
 100be60:	9b30                	0x9b30
 100be62:	7000                	ld	s0,32(s0)
 100be64:	0000                	unimp
 100be66:	0000                	unimp
 100be68:	9b48                	0x9b48
 100be6a:	7000                	ld	s0,32(s0)
 100be6c:	0000                	unimp
 100be6e:	0000                	unimp
 100be70:	9b60                	0x9b60
 100be72:	7000                	ld	s0,32(s0)
 100be74:	0000                	unimp
 100be76:	0000                	unimp
 100be78:	9b80                	0x9b80
 100be7a:	7000                	ld	s0,32(s0)
	...
 100be88:	9ba8                	0x9ba8
 100be8a:	7000                	ld	s0,32(s0)
	...
 100be98:	9bb8                	0x9bb8
 100be9a:	7000                	ld	s0,32(s0)
	...
 100beb8:	9bd0                	0x9bd0
 100beba:	7000                	ld	s0,32(s0)
	...
 100bed8:	5558                	lw	a4,44(a0)
 100beda:	7000                	ld	s0,32(s0)
 100bedc:	0000                	unimp
 100bede:	0000                	unimp
 100bee0:	5530                	lw	a2,104(a0)
 100bee2:	7000                	ld	s0,32(s0)
 100bee4:	0000                	unimp
 100bee6:	0000                	unimp
 100bee8:	55f2                	lw	a1,60(sp)
 100beea:	7000                	ld	s0,32(s0)
 100beec:	0000                	unimp
 100beee:	0000                	unimp
 100bef0:	55e4                	lw	s1,108(a1)
 100bef2:	7000                	ld	s0,32(s0)
 100bef4:	0000                	unimp
 100bef6:	0000                	unimp
 100bef8:	9bf0                	0x9bf0
 100befa:	7000                	ld	s0,32(s0)
	...
 100bf08:	9bf8                	0x9bf8
 100bf0a:	7000                	ld	s0,32(s0)
	...
 100bf18:	9c08                	0x9c08
 100bf1a:	7000                	ld	s0,32(s0)
 100bf1c:	0000                	unimp
 100bf1e:	0000                	unimp
 100bf20:	0001                	nop
 100bf22:	0000                	unimp
 100bf24:	0000                	unimp
 100bf26:	0000                	unimp
 100bf28:	9c20                	0x9c20
 100bf2a:	7000                	ld	s0,32(s0)
	...
 100bf38:	9c38                	0x9c38
 100bf3a:	7000                	ld	s0,32(s0)
	...
 100bf58:	6290                	ld	a2,0(a3)
 100bf5a:	7000                	ld	s0,32(s0)
 100bf5c:	0000                	unimp
 100bf5e:	0000                	unimp
 100bf60:	6126                	ld	sp,72(sp)
 100bf62:	7000                	ld	s0,32(s0)
 100bf64:	0000                	unimp
 100bf66:	0000                	unimp
 100bf68:	619c                	ld	a5,0(a1)
 100bf6a:	7000                	ld	s0,32(s0)
 100bf6c:	0000                	unimp
 100bf6e:	0000                	unimp
 100bf70:	6156                	ld	sp,336(sp)
 100bf72:	7000                	ld	s0,32(s0)
	...
 100bf88:	61d0                	ld	a2,128(a1)
 100bf8a:	7000                	ld	s0,32(s0)
 100bf8c:	0000                	unimp
 100bf8e:	0000                	unimp
 100bf90:	602a                	0x602a
 100bf92:	7000                	ld	s0,32(s0)
 100bf94:	0000                	unimp
 100bf96:	0000                	unimp
 100bf98:	9c88                	0x9c88
 100bf9a:	7000                	ld	s0,32(s0)
	...
 100bfa8:	9ca0                	0x9ca0
 100bfaa:	7000                	ld	s0,32(s0)
	...
 100bfc8:	6c70                	ld	a2,216(s0)
 100bfca:	7000                	ld	s0,32(s0)
 100bfcc:	0000                	unimp
 100bfce:	0000                	unimp
 100bfd0:	6c48                	ld	a0,152(s0)
 100bfd2:	7000                	ld	s0,32(s0)
	...
 100bfe0:	6c98                	ld	a4,24(s1)
 100bfe2:	7000                	ld	s0,32(s0)
	...
 100bff0:	6b62                	ld	s6,24(sp)
 100bff2:	7000                	ld	s0,32(s0)
 100bff4:	0000                	unimp
 100bff6:	0000                	unimp
 100bff8:	6b14                	ld	a3,16(a4)
 100bffa:	7000                	ld	s0,32(s0)
	...
 100c010:	6fa4                	ld	s1,88(a5)
 100c012:	7000                	ld	s0,32(s0)
 100c014:	0000                	unimp
 100c016:	0000                	unimp
 100c018:	9ce0                	0x9ce0
 100c01a:	7000                	ld	s0,32(s0)
	...
 100c028:	9cf0                	0x9cf0
 100c02a:	7000                	ld	s0,32(s0)
	...
 100c048:	6fc4                	ld	s1,152(a5)
 100c04a:	7000                	ld	s0,32(s0)
 100c04c:	0000                	unimp
 100c04e:	0000                	unimp
 100c050:	99d0                	0x99d0
 100c052:	7000                	ld	s0,32(s0)
	...
 100c070:	71ec                	ld	a1,224(a1)
 100c072:	7000                	ld	s0,32(s0)
 100c074:	0000                	unimp
 100c076:	0000                	unimp
 100c078:	717a                	ld	sp,440(sp)
 100c07a:	7000                	ld	s0,32(s0)
 100c07c:	0000                	unimp
 100c07e:	0000                	unimp
 100c080:	70f8                	ld	a4,224(s1)
 100c082:	7000                	ld	s0,32(s0)
	...
 100c098:	ffff                	0xffff
 100c09a:	ffff                	0xffff
 100c09c:	ffff                	0xffff
 100c09e:	ffff                	0xffff
	...
 100c0b0:	9e10                	0x9e10
 100c0b2:	7000                	ld	s0,32(s0)
 100c0b4:	0000                	unimp
 100c0b6:	0000                	unimp
 100c0b8:	025c                	addi	a5,sp,260
 100c0ba:	7000                	ld	s0,32(s0)
 100c0bc:	0000                	unimp
 100c0be:	0000                	unimp
 100c0c0:	0820                	addi	s0,sp,24
 100c0c2:	7000                	ld	s0,32(s0)
 100c0c4:	0000                	unimp
 100c0c6:	0000                	unimp
 100c0c8:	8000                	0x8000
 100c0ca:	7001                	c.lui	zero,0xfffe0
 100c0cc:	0000                	unimp
 100c0ce:	0000                	unimp
 100c0d0:	b7d0                	fsd	fa2,168(a5)
 100c0d2:	7000                	ld	s0,32(s0)
 100c0d4:	0000                	unimp
 100c0d6:	0000                	unimp
 100c0d8:	3dea                	fld	fs11,184(sp)
 100c0da:	7000                	ld	s0,32(s0)
 100c0dc:	0000                	unimp
 100c0de:	0000                	unimp
 100c0e0:	0ba2                	slli	s7,s7,0x8
 100c0e2:	7000                	ld	s0,32(s0)
 100c0e4:	0000                	unimp
 100c0e6:	0000                	unimp
 100c0e8:	9e58                	0x9e58
 100c0ea:	7000                	ld	s0,32(s0)
 100c0ec:	0000                	unimp
 100c0ee:	0000                	unimp
 100c0f0:	afd8                	fsd	fa4,152(a5)
 100c0f2:	7000                	ld	s0,32(s0)
 100c0f4:	0000                	unimp
 100c0f6:	0000                	unimp
 100c0f8:	0a64                	addi	s1,sp,284
 100c0fa:	7000                	ld	s0,32(s0)
 100c0fc:	0000                	unimp
 100c0fe:	0000                	unimp
 100c100:	04de                	slli	s1,s1,0x17
 100c102:	7000                	ld	s0,32(s0)
 100c104:	0000                	unimp
 100c106:	0000                	unimp
 100c108:	0784                	addi	s1,sp,960
 100c10a:	7000                	ld	s0,32(s0)
 100c10c:	0000                	unimp
 100c10e:	0000                	unimp
 100c110:	4b50                	lw	a2,20(a4)
 100c112:	7000                	ld	s0,32(s0)
 100c114:	0000                	unimp
 100c116:	0000                	unimp
 100c118:	8070                	0x8070
 100c11a:	7001                	c.lui	zero,0xfffe0
 100c11c:	0000                	unimp
 100c11e:	0000                	unimp
 100c120:	1478                	addi	a4,sp,556
 100c122:	7000                	ld	s0,32(s0)
 100c124:	0000                	unimp
 100c126:	0000                	unimp
 100c128:	0a70                	addi	a2,sp,284
 100c12a:	7000                	ld	s0,32(s0)
 100c12c:	0000                	unimp
 100c12e:	0000                	unimp
 100c130:	7c38                	ld	a4,120(s0)
 100c132:	7000                	ld	s0,32(s0)
 100c134:	0000                	unimp
 100c136:	0000                	unimp
 100c138:	0fba                	slli	t6,t6,0xe
 100c13a:	7000                	ld	s0,32(s0)
 100c13c:	0000                	unimp
 100c13e:	0000                	unimp
 100c140:	0ae8                	addi	a0,sp,348
 100c142:	7000                	ld	s0,32(s0)
 100c144:	0000                	unimp
 100c146:	0000                	unimp
 100c148:	8640                	0x8640
 100c14a:	7001                	c.lui	zero,0xfffe0
 100c14c:	0000                	unimp
 100c14e:	0000                	unimp
 100c150:	0bb8                	addi	a4,sp,472
 100c152:	7000                	ld	s0,32(s0)
 100c154:	0000                	unimp
 100c156:	0000                	unimp
 100c158:	0fb8                	addi	a4,sp,984
 100c15a:	7000                	ld	s0,32(s0)
 100c15c:	0000                	unimp
 100c15e:	0000                	unimp
 100c160:	0000                	unimp
 100c162:	7000                	ld	s0,32(s0)
 100c164:	0000                	unimp
 100c166:	0000                	unimp
 100c168:	1628                	addi	a0,sp,808
 100c16a:	7000                	ld	s0,32(s0)
 100c16c:	0000                	unimp
 100c16e:	0000                	unimp
 100c170:	8078                	0x8078
 100c172:	7001                	c.lui	zero,0xfffe0
 100c174:	0000                	unimp
 100c176:	0000                	unimp
 100c178:	7388                	ld	a0,32(a5)
 100c17a:	7000                	ld	s0,32(s0)
 100c17c:	0000                	unimp
 100c17e:	0000                	unimp
 100c180:	8000                	0x8000
 100c182:	7001                	c.lui	zero,0xfffe0
 100c184:	0000                	unimp
 100c186:	0000                	unimp
 100c188:	0338                	addi	a4,sp,392
 100c18a:	7000                	ld	s0,32(s0)
 100c18c:	0000                	unimp
 100c18e:	0000                	unimp
 100c190:	b7c8                	fsd	fa0,168(a5)
 100c192:	7000                	ld	s0,32(s0)
 100c194:	0000                	unimp
 100c196:	0000                	unimp
 100c198:	8088                	0x8088
 100c19a:	7001                	c.lui	zero,0xfffe0
 100c19c:	0000                	unimp
 100c19e:	0000                	unimp
 100c1a0:	0746                	slli	a4,a4,0x11
 100c1a2:	7000                	ld	s0,32(s0)
 100c1a4:	0000                	unimp
 100c1a6:	0000                	unimp
 100c1a8:	0aa4                	addi	s1,sp,344
 100c1aa:	7000                	ld	s0,32(s0)
 100c1ac:	0000                	unimp
 100c1ae:	0000                	unimp
 100c1b0:	04e0                	addi	s0,sp,588
 100c1b2:	7000                	ld	s0,32(s0)
 100c1b4:	0000                	unimp
 100c1b6:	0000                	unimp
 100c1b8:	8068                	0x8068
 100c1ba:	7001                	c.lui	zero,0xfffe0
 100c1bc:	0000                	unimp
 100c1be:	0000                	unimp
 100c1c0:	9e50                	0x9e50
 100c1c2:	7000                	ld	s0,32(s0)
 100c1c4:	0000                	unimp
 100c1c6:	0000                	unimp
 100c1c8:	0a6c                	addi	a1,sp,284
 100c1ca:	7000                	ld	s0,32(s0)
 100c1cc:	0000                	unimp
 100c1ce:	0000                	unimp
 100c1d0:	0aa6                	slli	s5,s5,0x9
 100c1d2:	7000                	ld	s0,32(s0)
 100c1d4:	0000                	unimp
 100c1d6:	0000                	unimp
 100c1d8:	b7d0                	fsd	fa2,168(a5)
 100c1da:	7000                	ld	s0,32(s0)
 100c1dc:	0000                	unimp
 100c1de:	0000                	unimp
 100c1e0:	b7d0                	fsd	fa2,168(a5)
 100c1e2:	7000                	ld	s0,32(s0)
 100c1e4:	0000                	unimp
 100c1e6:	0000                	unimp
 100c1e8:	9e48                	0x9e48
 100c1ea:	7000                	ld	s0,32(s0)
 100c1ec:	0000                	unimp
 100c1ee:	0000                	unimp
 100c1f0:	3bb6                	fld	fs7,360(sp)
 100c1f2:	7000                	ld	s0,32(s0)
 100c1f4:	0000                	unimp
 100c1f6:	0000                	unimp
 100c1f8:	9d88                	0x9d88
 100c1fa:	7000                	ld	s0,32(s0)
 100c1fc:	0000                	unimp
 100c1fe:	0000                	unimp
 100c200:	0056                	c.slli	zero,0x15
	...
 100c25a:	0000                	unimp
 100c25c:	0020                	addi	s0,sp,8
	...
 100c26e:	0000                	unimp
 100c270:	7ba8                	ld	a0,112(a5)
 100c272:	7000                	ld	s0,32(s0)
 100c274:	0000                	unimp
 100c276:	0000                	unimp
 100c278:	0000005b          	0x5b
 100c27c:	0000                	unimp
 100c27e:	0000                	unimp
 100c280:	a9c8                	fsd	fa0,144(a1)
 100c282:	7000                	ld	s0,32(s0)
	...
 100c290:	5580                	lw	s0,40(a1)
 100c292:	7000                	ld	s0,32(s0)
 100c294:	0000                	unimp
 100c296:	0000                	unimp
 100c298:	564c                	lw	a1,44(a2)
 100c29a:	7000                	ld	s0,32(s0)
	...
 100c2c8:	0248                	addi	a0,sp,260
	...
 100c2d6:	0000                	unimp
 100c2d8:	a9e8                	fsd	fa0,208(a1)
 100c2da:	7000                	ld	s0,32(s0)
	...
 100c2e8:	9be0                	0x9be0
 100c2ea:	7000                	ld	s0,32(s0)
 100c2ec:	0000                	unimp
 100c2ee:	0000                	unimp
 100c2f0:	0055                	c.nop	21
 100c2f2:	0000                	unimp
 100c2f4:	0000                	unimp
 100c2f6:	0000                	unimp
 100c2f8:	aa08                	fsd	fa0,16(a2)
 100c2fa:	7000                	ld	s0,32(s0)
	...
 100c308:	631c                	ld	a5,0(a4)
 100c30a:	7000                	ld	s0,32(s0)
	...
 100c320:	6060                	ld	s0,192(s0)
 100c322:	7000                	ld	s0,32(s0)
	...
 100c340:	0020                	addi	s0,sp,8
 100c342:	0000                	unimp
 100c344:	0020                	addi	s0,sp,8
	...
 100c34e:	0000                	unimp
 100c350:	aa68                	fsd	fa0,208(a2)
 100c352:	7000                	ld	s0,32(s0)
	...
 100c360:	9d08                	0x9d08
 100c362:	7000                	ld	s0,32(s0)
 100c364:	0000                	unimp
 100c366:	0000                	unimp
 100c368:	0000001b          	sext.w	zero,zero
 100c36c:	0000                	unimp
 100c36e:	0000                	unimp
 100c370:	ab60                	fsd	fs0,208(a4)
 100c372:	7000                	ld	s0,32(s0)
 100c374:	0000                	unimp
 100c376:	0000                	unimp
 100c378:	722a                	ld	tp,168(sp)
 100c37a:	7000                	ld	s0,32(s0)
 100c37c:	0000                	unimp
 100c37e:	0000                	unimp
 100c380:	70f4                	ld	a3,224(s1)
 100c382:	7000                	ld	s0,32(s0)
	...
 100c3c8:	ab80                	fsd	fs0,16(a5)
 100c3ca:	7000                	ld	s0,32(s0)
 100c3cc:	0000                	unimp
 100c3ce:	0000                	unimp
 100c3d0:	0004                	0x4
 100c3d2:	0000                	unimp
 100c3d4:	0000                	unimp
 100c3d6:	0000                	unimp
 100c3d8:	9cc0                	0x9cc0
 100c3da:	7000                	ld	s0,32(s0)
 100c3dc:	0000                	unimp
 100c3de:	0000                	unimp
 100c3e0:	00000063          	beqz	zero,100c3e0 <__spl_start+0xaef0>
	...
 100c3f8:	6faa                	ld	t6,136(sp)
 100c3fa:	7000                	ld	s0,32(s0)
	...
 100c440:	ab20                	fsd	fs0,80(a4)
 100c442:	7000                	ld	s0,32(s0)
 100c444:	0000                	unimp
 100c446:	0000                	unimp
 100c448:	0004                	0x4
 100c44a:	0000                	unimp
 100c44c:	0000                	unimp
 100c44e:	0000                	unimp
 100c450:	9b80                	0x9b80
 100c452:	7000                	ld	s0,32(s0)
	...
 100c4c8:	9cd0                	0x9cd0
 100c4ca:	7000                	ld	s0,32(s0)
 100c4cc:	0000                	unimp
 100c4ce:	0000                	unimp
 100c4d0:	00000063          	beqz	zero,100c4d0 <__spl_start+0xafe0>
 100c4d4:	0000                	unimp
 100c4d6:	0000                	unimp
 100c4d8:	ab28                	fsd	fa0,80(a4)
 100c4da:	7000                	ld	s0,32(s0)
	...
 100c4e8:	6fde                	ld	t6,464(sp)
 100c4ea:	7000                	ld	s0,32(s0)
	...
 100c530:	ab58                	fsd	fa4,144(a4)
 100c532:	7000                	ld	s0,32(s0)
 100c534:	0000                	unimp
 100c536:	0000                	unimp
 100c538:	0004                	0x4
 100c53a:	0000                	unimp
 100c53c:	0000                	unimp
 100c53e:	0000                	unimp
 100c540:	9b98                	0x9b98
 100c542:	7000                	ld	s0,32(s0)
 100c544:	0000                	unimp
 100c546:	0000                	unimp
 100c548:	0056                	c.slli	zero,0x15
 100c54a:	0000                	unimp
 100c54c:	0000                	unimp
 100c54e:	0000                	unimp
 100c550:	a998                	fsd	fa4,16(a1)
 100c552:	7000                	ld	s0,32(s0)
	...
 100c5b0:	0004                	0x4
 100c5b2:	0000                	unimp
 100c5b4:	0000                	unimp
 100c5b6:	0000                	unimp
 100c5b8:	9c50                	0x9c50
 100c5ba:	7000                	ld	s0,32(s0)
 100c5bc:	0000                	unimp
 100c5be:	0000                	unimp
 100c5c0:	005c                	addi	a5,sp,4
	...
 100c62e:	0000                	unimp
 100c630:	9c78                	0x9c78
 100c632:	7000                	ld	s0,32(s0)
 100c634:	0000                	unimp
 100c636:	0000                	unimp
 100c638:	005a                	c.slli	zero,0x16
 100c63a:	0000                	unimp
 100c63c:	0000                	unimp
 100c63e:	0000                	unimp
 100c640:	aaa8                	fsd	fa0,80(a3)
 100c642:	7000                	ld	s0,32(s0)
	...
 100c650:	6e32                	ld	t3,264(sp)
 100c652:	7000                	ld	s0,32(s0)
	...
 100c688:	0018                	0x18
	...
 100c696:	0000                	unimp
 100c698:	aad8                	fsd	fa4,144(a3)
 100c69a:	7000                	ld	s0,32(s0)
	...
 100c6a8:	8ff0                	0x8ff0
 100c6aa:	7000                	ld	s0,32(s0)
	...
 100c6b8:	15a2                	slli	a1,a1,0x28
 100c6ba:	7000                	ld	s0,32(s0)
 100c6bc:	0000                	unimp
 100c6be:	0000                	unimp
 100c6c0:	8fe8                	0x8fe8
 100c6c2:	7000                	ld	s0,32(s0)
 100c6c4:	0000                	unimp
 100c6c6:	0000                	unimp
 100c6c8:	0008                	0x8
 100c6ca:	0000                	unimp
 100c6cc:	0000                	unimp
 100c6ce:	0000                	unimp
 100c6d0:	147c                	addi	a5,sp,556
 100c6d2:	7000                	ld	s0,32(s0)
 100c6d4:	0000                	unimp
 100c6d6:	0000                	unimp
 100c6d8:	9d18                	0x9d18
 100c6da:	7000                	ld	s0,32(s0)
 100c6dc:	0000                	unimp
 100c6de:	0000                	unimp
 100c6e0:	0016                	c.slli	zero,0x5
	...
 100c6fe:	0000                	unimp
 100c700:	72aa                	ld	t0,168(sp)
 100c702:	7000                	ld	s0,32(s0)
	...
 100c740:	0088                	addi	a0,sp,64
	...
 100c75e:	0000                	unimp
 100c760:	9d00                	0x9d00
 100c762:	7000                	ld	s0,32(s0)
 100c764:	0000                	unimp
 100c766:	0000                	unimp
 100c768:	0000001b          	sext.w	zero,zero
	...
 100c7b0:	7010                	ld	a2,32(s0)
 100c7b2:	7000                	ld	s0,32(s0)
	...
 100c7e0:	0001                	nop
 100c7e2:	0000                	unimp
 100c7e4:	0000                	unimp
 100c7e6:	0000                	unimp
 100c7e8:	9bc8                	0x9bc8
 100c7ea:	7000                	ld	s0,32(s0)
 100c7ec:	0000                	unimp
 100c7ee:	0000                	unimp
 100c7f0:	0039                	c.nop	14
	...
 100c84a:	0000                	unimp
 100c84c:	0188                	addi	a0,sp,192
	...
 100c86e:	0000                	unimp
 100c870:	9b90                	0x9b90
 100c872:	7000                	ld	s0,32(s0)
 100c874:	0000                	unimp
 100c876:	0000                	unimp
 100c878:	0000003b          	addw	zero,zero,zero
	...
 100c8f8:	9b78                	0x9b78
 100c8fa:	7000                	ld	s0,32(s0)
	...
 100c980:	9be8                	0x9be8
 100c982:	7000                	ld	s0,32(s0)
 100c984:	0000                	unimp
 100c986:	0000                	unimp
 100c988:	0055                	c.nop	21
	...
 100c9a6:	0000                	unimp
 100c9a8:	5ec2                	lw	t4,48(sp)
 100c9aa:	7000                	ld	s0,32(s0)
 100c9ac:	0000                	unimp
 100c9ae:	0000                	unimp
 100c9b0:	5ed4                	lw	a3,60(a3)
 100c9b2:	7000                	ld	s0,32(s0)
	...
 100c9e4:	0018                	0x18
	...
 100c9fe:	0000                	unimp
 100ca00:	0001                	nop
 100ca02:	0000                	unimp
 100ca04:	0000                	unimp
 100ca06:	0000                	unimp
 100ca08:	9b98                	0x9b98
 100ca0a:	7000                	ld	s0,32(s0)
 100ca0c:	0000                	unimp
 100ca0e:	0000                	unimp
 100ca10:	0056                	c.slli	zero,0x15
 100ca12:	0000                	unimp
 100ca14:	0000                	unimp
 100ca16:	0000                	unimp
 100ca18:	5090                	lw	a2,32(s1)
 100ca1a:	7000                	ld	s0,32(s0)
	...
 100ca70:	0018                	0x18
	...
 100ca8e:	0000                	unimp
 100ca90:	9c70                	0x9c70
 100ca92:	7000                	ld	s0,32(s0)
 100ca94:	0000                	unimp
 100ca96:	0000                	unimp
 100ca98:	005a                	c.slli	zero,0x16
 100ca9a:	0000                	unimp
 100ca9c:	0000                	unimp
 100ca9e:	0000                	unimp
 100caa0:	4ade                	lw	s5,212(sp)
 100caa2:	7000                	ld	s0,32(s0)
	...
 100cab8:	6446                	ld	s0,80(sp)
 100caba:	7000                	ld	s0,32(s0)
	...
 100cac8:	686e                	ld	a6,216(sp)
 100caca:	7000                	ld	s0,32(s0)
 100cacc:	0000                	unimp
 100cace:	0000                	unimp
 100cad0:	6416                	ld	s0,320(sp)
 100cad2:	7000                	ld	s0,32(s0)
	...
 100caf4:	000c                	0xc
 100caf6:	0000                	unimp
 100caf8:	0000                	unimp
 100cafa:	0000                	unimp
 100cafc:	0030                	addi	a2,sp,8
 100cafe:	0000                	unimp
 100cb00:	000c                	0xc
	...
 100cb0e:	0000                	unimp
 100cb10:	0001                	nop
 100cb12:	0000                	unimp
 100cb14:	0000                	unimp
 100cb16:	0000                	unimp
 100cb18:	9c60                	0x9c60
 100cb1a:	7000                	ld	s0,32(s0)
 100cb1c:	0000                	unimp
 100cb1e:	0000                	unimp
 100cb20:	005c                	addi	a5,sp,4
	...
 100cb9e:	0000                	unimp
 100cba0:	7b98                	ld	a4,48(a5)
 100cba2:	7000                	ld	s0,32(s0)
 100cba4:	0000                	unimp
 100cba6:	0000                	unimp
 100cba8:	0000005b          	0x5b
 100cbac:	0000                	unimp
 100cbae:	0000                	unimp
 100cbb0:	54c6                	lw	s1,112(sp)
 100cbb2:	7000                	ld	s0,32(s0)
	...
 100cc04:	0248                	addi	a0,sp,260
	...
 100cc26:	0000                	unimp
 100cc28:	9cb8                	0x9cb8
 100cc2a:	7000                	ld	s0,32(s0)
 100cc2c:	0000                	unimp
 100cc2e:	0000                	unimp
 100cc30:	00000063          	beqz	zero,100cc30 <__spl_start+0xb740>
	...
 100cc48:	6e90                	ld	a2,24(a3)
 100cc4a:	7000                	ld	s0,32(s0)
 100cc4c:	0000                	unimp
 100cc4e:	0000                	unimp
 100cc50:	6e7a                	ld	t3,408(sp)
 100cc52:	7000                	ld	s0,32(s0)
	...
 100cc8c:	0008                	0x8
	...
 100cca6:	0000                	unimp
 100cca8:	0001                	nop
	...

000000000100ccc0 <handle_trap>:
 100ccc0:	ff010113          	addi	sp,sp,-16
 100ccc4:	00813423          	sd	s0,8(sp)
 100ccc8:	01010413          	addi	s0,sp,16
 100cccc:	00813403          	ld	s0,8(sp)
 100ccd0:	01010113          	addi	sp,sp,16
 100ccd4:	00008067          	ret

000000000100ccd8 <write_reg_u8>:
 100ccd8:	ff010113          	addi	sp,sp,-16
 100ccdc:	00813423          	sd	s0,8(sp)
 100cce0:	01010413          	addi	s0,sp,16
 100cce4:	00813403          	ld	s0,8(sp)
 100cce8:	00b50023          	sb	a1,0(a0) # ffffffffffffb000 <__soc_ctrl_scratch1+0xfffffffffdffafe8>
 100ccec:	01010113          	addi	sp,sp,16
 100ccf0:	00008067          	ret

000000000100ccf4 <read_reg_u8>:
 100ccf4:	ff010113          	addi	sp,sp,-16
 100ccf8:	00813423          	sd	s0,8(sp)
 100ccfc:	01010413          	addi	s0,sp,16
 100cd00:	00813403          	ld	s0,8(sp)
 100cd04:	00054503          	lbu	a0,0(a0)
 100cd08:	01010113          	addi	sp,sp,16
 100cd0c:	00008067          	ret

000000000100cd10 <is_transmit_empty>:
 100cd10:	ff010113          	addi	sp,sp,-16
 100cd14:	00813423          	sd	s0,8(sp)
 100cd18:	01010413          	addi	s0,sp,16
 100cd1c:	020027b7          	lui	a5,0x2002
 100cd20:	0147c503          	lbu	a0,20(a5) # 2002014 <__soc_ctrl_scratch1+0x1ffc>
 100cd24:	00813403          	ld	s0,8(sp)
 100cd28:	02057513          	andi	a0,a0,32
 100cd2c:	01010113          	addi	sp,sp,16
 100cd30:	00008067          	ret

000000000100cd34 <write_serial>:
 100cd34:	ff010113          	addi	sp,sp,-16
 100cd38:	00813423          	sd	s0,8(sp)
 100cd3c:	01010413          	addi	s0,sp,16
 100cd40:	02002737          	lui	a4,0x2002
 100cd44:	01474783          	lbu	a5,20(a4) # 2002014 <__soc_ctrl_scratch1+0x1ffc>
 100cd48:	0207f793          	andi	a5,a5,32
 100cd4c:	fe078ce3          	beqz	a5,100cd44 <write_serial+0x10>
 100cd50:	00a70023          	sb	a0,0(a4)
 100cd54:	00813403          	ld	s0,8(sp)
 100cd58:	01010113          	addi	sp,sp,16
 100cd5c:	00008067          	ret

000000000100cd60 <init_uart>:
 100cd60:	0045959b          	slliw	a1,a1,0x4
 100cd64:	02b5553b          	divuw	a0,a0,a1
 100cd68:	ff010113          	addi	sp,sp,-16
 100cd6c:	00813423          	sd	s0,8(sp)
 100cd70:	01010413          	addi	s0,sp,16
 100cd74:	020027b7          	lui	a5,0x2002
 100cd78:	00078223          	sb	zero,4(a5) # 2002004 <__soc_ctrl_scratch1+0x1fec>
 100cd7c:	f8000713          	li	a4,-128
 100cd80:	00e78623          	sb	a4,12(a5)
 100cd84:	0ff57713          	andi	a4,a0,255
 100cd88:	0085551b          	srliw	a0,a0,0x8
 100cd8c:	00e78023          	sb	a4,0(a5)
 100cd90:	0ff57513          	andi	a0,a0,255
 100cd94:	00a78223          	sb	a0,4(a5)
 100cd98:	00300713          	li	a4,3
 100cd9c:	00e78623          	sb	a4,12(a5)
 100cda0:	fc700713          	li	a4,-57
 100cda4:	00e78423          	sb	a4,8(a5)
 100cda8:	02000713          	li	a4,32
 100cdac:	00e78823          	sb	a4,16(a5)
 100cdb0:	00813403          	ld	s0,8(sp)
 100cdb4:	01010113          	addi	sp,sp,16
 100cdb8:	00008067          	ret

000000000100cdbc <print_uart>:
 100cdbc:	fe010113          	addi	sp,sp,-32
 100cdc0:	00813823          	sd	s0,16(sp)
 100cdc4:	00913423          	sd	s1,8(sp)
 100cdc8:	00113c23          	sd	ra,24(sp)
 100cdcc:	02010413          	addi	s0,sp,32
 100cdd0:	00050493          	mv	s1,a0
 100cdd4:	0004c503          	lbu	a0,0(s1)
 100cdd8:	00051c63          	bnez	a0,100cdf0 <print_uart+0x34>
 100cddc:	01813083          	ld	ra,24(sp)
 100cde0:	01013403          	ld	s0,16(sp)
 100cde4:	00813483          	ld	s1,8(sp)
 100cde8:	02010113          	addi	sp,sp,32
 100cdec:	00008067          	ret
 100cdf0:	f45ff0ef          	jal	ra,100cd34 <write_serial>
 100cdf4:	00148493          	addi	s1,s1,1
 100cdf8:	fddff06f          	j	100cdd4 <print_uart+0x18>

000000000100cdfc <bin_to_hex>:
 100cdfc:	ff010113          	addi	sp,sp,-16
 100ce00:	00813423          	sd	s0,8(sp)
 100ce04:	00000797          	auipc	a5,0x0
 100ce08:	2c478793          	addi	a5,a5,708 # 100d0c8 <bin_to_hex_table>
 100ce0c:	01010413          	addi	s0,sp,16
 100ce10:	00f57713          	andi	a4,a0,15
 100ce14:	00e78733          	add	a4,a5,a4
 100ce18:	00074703          	lbu	a4,0(a4)
 100ce1c:	00455513          	srli	a0,a0,0x4
 100ce20:	00a787b3          	add	a5,a5,a0
 100ce24:	00e580a3          	sb	a4,1(a1)
 100ce28:	0007c783          	lbu	a5,0(a5)
 100ce2c:	00813403          	ld	s0,8(sp)
 100ce30:	00f58023          	sb	a5,0(a1)
 100ce34:	01010113          	addi	sp,sp,16
 100ce38:	00008067          	ret

000000000100ce3c <print_uart_int>:
 100ce3c:	fc010113          	addi	sp,sp,-64
 100ce40:	02813823          	sd	s0,48(sp)
 100ce44:	02913423          	sd	s1,40(sp)
 100ce48:	03213023          	sd	s2,32(sp)
 100ce4c:	01313c23          	sd	s3,24(sp)
 100ce50:	02113c23          	sd	ra,56(sp)
 100ce54:	04010413          	addi	s0,sp,64
 100ce58:	00050993          	mv	s3,a0
 100ce5c:	01800493          	li	s1,24
 100ce60:	ff800913          	li	s2,-8
 100ce64:	0099d53b          	srlw	a0,s3,s1
 100ce68:	fc840593          	addi	a1,s0,-56 # 8fc8 <_start-0xff7038>
 100ce6c:	0ff57513          	andi	a0,a0,255
 100ce70:	f8dff0ef          	jal	ra,100cdfc <bin_to_hex>
 100ce74:	fc844503          	lbu	a0,-56(s0)
 100ce78:	ff84849b          	addiw	s1,s1,-8
 100ce7c:	eb9ff0ef          	jal	ra,100cd34 <write_serial>
 100ce80:	fc944503          	lbu	a0,-55(s0)
 100ce84:	eb1ff0ef          	jal	ra,100cd34 <write_serial>
 100ce88:	fd249ee3          	bne	s1,s2,100ce64 <print_uart_int+0x28>
 100ce8c:	03813083          	ld	ra,56(sp)
 100ce90:	03013403          	ld	s0,48(sp)
 100ce94:	02813483          	ld	s1,40(sp)
 100ce98:	02013903          	ld	s2,32(sp)
 100ce9c:	01813983          	ld	s3,24(sp)
 100cea0:	04010113          	addi	sp,sp,64
 100cea4:	00008067          	ret

000000000100cea8 <print_uart_addr>:
 100cea8:	fc010113          	addi	sp,sp,-64
 100ceac:	02813823          	sd	s0,48(sp)
 100ceb0:	02913423          	sd	s1,40(sp)
 100ceb4:	03213023          	sd	s2,32(sp)
 100ceb8:	01313c23          	sd	s3,24(sp)
 100cebc:	02113c23          	sd	ra,56(sp)
 100cec0:	04010413          	addi	s0,sp,64
 100cec4:	00050993          	mv	s3,a0
 100cec8:	03800493          	li	s1,56
 100cecc:	ff800913          	li	s2,-8
 100ced0:	0099d533          	srl	a0,s3,s1
 100ced4:	fc840593          	addi	a1,s0,-56
 100ced8:	0ff57513          	andi	a0,a0,255
 100cedc:	f21ff0ef          	jal	ra,100cdfc <bin_to_hex>
 100cee0:	fc844503          	lbu	a0,-56(s0)
 100cee4:	ff84849b          	addiw	s1,s1,-8
 100cee8:	e4dff0ef          	jal	ra,100cd34 <write_serial>
 100ceec:	fc944503          	lbu	a0,-55(s0)
 100cef0:	e45ff0ef          	jal	ra,100cd34 <write_serial>
 100cef4:	fd249ee3          	bne	s1,s2,100ced0 <print_uart_addr+0x28>
 100cef8:	03813083          	ld	ra,56(sp)
 100cefc:	03013403          	ld	s0,48(sp)
 100cf00:	02813483          	ld	s1,40(sp)
 100cf04:	02013903          	ld	s2,32(sp)
 100cf08:	01813983          	ld	s3,24(sp)
 100cf0c:	04010113          	addi	sp,sp,64
 100cf10:	00008067          	ret

000000000100cf14 <print_uart_byte>:
 100cf14:	fe010113          	addi	sp,sp,-32
 100cf18:	00113c23          	sd	ra,24(sp)
 100cf1c:	00813823          	sd	s0,16(sp)
 100cf20:	02010413          	addi	s0,sp,32
 100cf24:	fe840593          	addi	a1,s0,-24
 100cf28:	ed5ff0ef          	jal	ra,100cdfc <bin_to_hex>
 100cf2c:	fe844503          	lbu	a0,-24(s0)
 100cf30:	e05ff0ef          	jal	ra,100cd34 <write_serial>
 100cf34:	fe944503          	lbu	a0,-23(s0)
 100cf38:	dfdff0ef          	jal	ra,100cd34 <write_serial>
 100cf3c:	01813083          	ld	ra,24(sp)
 100cf40:	01013403          	ld	s0,16(sp)
 100cf44:	02010113          	addi	sp,sp,32
 100cf48:	00008067          	ret

Disassembly of section .text.startup:

000000000100cf4c <main>:
 100cf4c:	fe010113          	addi	sp,sp,-32
 100cf50:	00113c23          	sd	ra,24(sp)
 100cf54:	00813823          	sd	s0,16(sp)
 100cf58:	00913423          	sd	s1,8(sp)
 100cf5c:	02010413          	addi	s0,sp,32
 100cf60:	01213023          	sd	s2,0(sp)
 100cf64:	0001c5b7          	lui	a1,0x1c
 100cf68:	017d8537          	lui	a0,0x17d8
 100cf6c:	20058593          	addi	a1,a1,512 # 1c200 <_start-0xfe3e00>
 100cf70:	84050513          	addi	a0,a0,-1984 # 17d7840 <__spl_src_start+0x7ca758>
 100cf74:	dedff0ef          	jal	ra,100cd60 <init_uart>
 100cf78:	00000517          	auipc	a0,0x0
 100cf7c:	0c850513          	addi	a0,a0,200 # 100d040 <main+0xf4>
 100cf80:	e3dff0ef          	jal	ra,100cdbc <print_uart>
 100cf84:	00000517          	auipc	a0,0x0
 100cf88:	0dc50513          	addi	a0,a0,220 # 100d060 <main+0x114>
 100cf8c:	e31ff0ef          	jal	ra,100cdbc <print_uart>
 100cf90:	00000517          	auipc	a0,0x0
 100cf94:	0e850513          	addi	a0,a0,232 # 100d078 <main+0x12c>
 100cf98:	e25ff0ef          	jal	ra,100cdbc <print_uart>
 100cf9c:	00000517          	auipc	a0,0x0
 100cfa0:	0e450513          	addi	a0,a0,228 # 100d080 <main+0x134>
 100cfa4:	e19ff0ef          	jal	ra,100cdbc <print_uart>
 100cfa8:	00000497          	auipc	s1,0x0
 100cfac:	13848493          	addi	s1,s1,312 # 100d0e0 <__spl_src_end>
 100cfb0:	00000917          	auipc	s2,0x0
 100cfb4:	13890913          	addi	s2,s2,312 # 100d0e8 <__spl_src_start>
 100cfb8:	00093783          	ld	a5,0(s2)
 100cfbc:	0004b503          	ld	a0,0(s1)
 100cfc0:	40f50533          	sub	a0,a0,a5
 100cfc4:	ee5ff0ef          	jal	ra,100cea8 <print_uart_addr>
 100cfc8:	00000517          	auipc	a0,0x0
 100cfcc:	0e850513          	addi	a0,a0,232 # 100d0b0 <main+0x164>
 100cfd0:	dedff0ef          	jal	ra,100cdbc <print_uart>
 100cfd4:	00000613          	li	a2,0
 100cfd8:	700005b7          	lui	a1,0x70000
 100cfdc:	00093703          	ld	a4,0(s2)
 100cfe0:	0004b683          	ld	a3,0(s1)
 100cfe4:	02061793          	slli	a5,a2,0x20
 100cfe8:	0207d793          	srli	a5,a5,0x20
 100cfec:	40e686b3          	sub	a3,a3,a4
 100cff0:	02d7ec63          	bltu	a5,a3,100d028 <main+0xdc>
 100cff4:	00000517          	auipc	a0,0x0
 100cff8:	0c450513          	addi	a0,a0,196 # 100d0b8 <main+0x16c>
 100cffc:	dc1ff0ef          	jal	ra,100cdbc <print_uart>
 100d000:	700007b7          	lui	a5,0x70000
 100d004:	0000100f          	fence.i
 100d008:	f1402573          	csrr	a0,mhartid
 100d00c:	ffff3597          	auipc	a1,0xffff3
 100d010:	08458593          	addi	a1,a1,132 # 1000090 <device_tree>
 100d014:	00078067          	jr	a5 # 70000000 <__soc_ctrl_scratch1+0x6dffffe8>
 100d018:	00000517          	auipc	a0,0x0
 100d01c:	0a850513          	addi	a0,a0,168 # 100d0c0 <main+0x174>
 100d020:	d9dff0ef          	jal	ra,100cdbc <print_uart>
 100d024:	0000006f          	j	100d024 <main+0xd8>
 100d028:	00e78733          	add	a4,a5,a4
 100d02c:	00074703          	lbu	a4,0(a4)
 100d030:	00f587b3          	add	a5,a1,a5
 100d034:	0016061b          	addiw	a2,a2,1
 100d038:	00e78023          	sb	a4,0(a5)
 100d03c:	fa1ff06f          	j	100cfdc <main+0x90>
