
bootrom-spl.elf:     file format elf64-littleriscv


Disassembly of section .text:

0000000001000000 <_start>:
 1000000:	f14022f3          	csrr	t0,mhartid
 1000004:	02029a63          	bnez	t0,1000038 <_snitch_bl_start>
 1000008:	0040006f          	j	100000c <_cva6_bl_start>

000000000100000c <_cva6_bl_start>:
 100000c:	00000297          	auipc	t0,0x0
 1000010:	01828293          	addi	t0,t0,24 # 1000024 <_cva6_exception>
 1000014:	30529073          	csrw	mtvec,t0
 1000018:	0210011b          	addiw	sp,zero,33
 100001c:	01a11113          	slli	sp,sp,0x1a
 1000020:	72d0c0ef          	jal	ra,100cf4c <main>

0000000001000024 <_cva6_exception>:
 1000024:	00000013          	nop
 1000028:	00000013          	nop
 100002c:	00000013          	nop
 1000030:	00000013          	nop
 1000034:	ff1ff06f          	j	1000024 <_cva6_exception>

0000000001000038 <_snitch_bl_start>:
 1000038:	00000297          	auipc	t0,0x0
 100003c:	02028293          	addi	t0,t0,32 # 1000058 <_snitch_resume>
 1000040:	30529073          	csrw	mtvec,t0
 1000044:	30046073          	csrsi	mstatus,8
 1000048:	30446073          	csrsi	mie,8
 100004c:	000802b7          	lui	t0,0x80
 1000050:	3042a073          	csrs	mie,t0
 1000054:	10500073          	wfi

0000000001000058 <_snitch_resume>:
 1000058:	30047073          	csrci	mstatus,8
 100005c:	30447073          	csrci	mie,8
 1000060:	000802b7          	lui	t0,0x80
 1000064:	3042b073          	csrc	mie,t0
 1000068:	0000100f          	fence.i
 100006c:	01000297          	auipc	t0,0x1000
 1000070:	fa828293          	addi	t0,t0,-88 # 2000014 <__soc_ctrl_scratch0>
 1000074:	0002a283          	lw	t0,0(t0)
 1000078:	01000597          	auipc	a1,0x1000
 100007c:	fa058593          	addi	a1,a1,-96 # 2000018 <__soc_ctrl_scratch1>
 1000080:	0005a583          	lw	a1,0(a1)
 1000084:	f1402573          	csrr	a0,mhartid
 1000088:	000280e7          	jalr	t0
 100008c:	fadff06f          	j	1000038 <_snitch_bl_start>

0000000001000090 <device_tree>:
 1000090:	0dd0                	addi	a2,sp,724
 1000092:	edfe                	sd	t6,216(sp)
 1000094:	0000                	unimp
 1000096:	5a14                	lw	a3,48(a2)
 1000098:	0000                	unimp
 100009a:	3800                	fld	fs0,48(s0)
 100009c:	0000                	unimp
 100009e:	9810                	0x9810
 10000a0:	0000                	unimp
 10000a2:	2800                	fld	fs0,16(s0)
 10000a4:	0000                	unimp
 10000a6:	1100                	addi	s0,sp,160
 10000a8:	0000                	unimp
 10000aa:	1000                	addi	s0,sp,32
 10000ac:	0000                	unimp
 10000ae:	0000                	unimp
 10000b0:	0000                	unimp
 10000b2:	0000c203          	lbu	tp,0(ra)
 10000b6:	6010                	ld	a2,0(s0)
	...
 10000c8:	0000                	unimp
 10000ca:	0100                	addi	s0,sp,128
 10000cc:	0000                	unimp
 10000ce:	0000                	unimp
 10000d0:	0000                	unimp
 10000d2:	0300                	addi	s0,sp,384
 10000d4:	0000                	unimp
 10000d6:	0400                	addi	s0,sp,512
 10000d8:	0000                	unimp
 10000da:	0000                	unimp
 10000dc:	0000                	unimp
 10000de:	0200                	addi	s0,sp,256
 10000e0:	0000                	unimp
 10000e2:	0300                	addi	s0,sp,384
 10000e4:	0000                	unimp
 10000e6:	0400                	addi	s0,sp,512
 10000e8:	0000                	unimp
 10000ea:	0f00                	addi	s0,sp,912
 10000ec:	0000                	unimp
 10000ee:	0200                	addi	s0,sp,256
 10000f0:	0000                	unimp
 10000f2:	0300                	addi	s0,sp,384
 10000f4:	0000                	unimp
 10000f6:	0f00                	addi	s0,sp,912
 10000f8:	0000                	unimp
 10000fa:	1b00                	addi	s0,sp,432
 10000fc:	7465                	lui	s0,0xffff9
 10000fe:	2c68                	fld	fa0,216(s0)
 1000100:	6163636f          	jal	t1,1036716 <__spl_src_start+0x2962e>
 1000104:	796d                	lui	s2,0xffffb
 1000106:	642d                	lui	s0,0xb
 1000108:	7665                	lui	a2,0xffff9
 100010a:	0000                	unimp
 100010c:	0000                	unimp
 100010e:	0300                	addi	s0,sp,384
 1000110:	0000                	unimp
 1000112:	0b00                	addi	s0,sp,400
 1000114:	0000                	unimp
 1000116:	2600                	fld	fs0,8(a2)
 1000118:	7465                	lui	s0,0xffff9
 100011a:	2c68                	fld	fa0,216(s0)
 100011c:	6163636f          	jal	t1,1036732 <__spl_src_start+0x2964a>
 1000120:	796d                	lui	s2,0xffffb
 1000122:	0000                	unimp
 1000124:	0000                	unimp
 1000126:	0100                	addi	s0,sp,128
 1000128:	666e6f63          	bltu	t3,t1,10007a6 <device_tree+0x716>
 100012c:	6769                	lui	a4,0x1a
 100012e:	0000                	unimp
 1000130:	0000                	unimp
 1000132:	0300                	addi	s0,sp,384
 1000134:	0000                	unimp
 1000136:	0400                	addi	s0,sp,512
 1000138:	0000                	unimp
 100013a:	2c00                	fld	fs0,24(s0)
 100013c:	0006                	c.slli	zero,0x1
 100013e:	0000                	unimp
 1000140:	0000                	unimp
 1000142:	0200                	addi	s0,sp,256
 1000144:	0000                	unimp
 1000146:	0100                	addi	s0,sp,128
 1000148:	736f6863          	bltu	t5,s6,1000878 <device_tree+0x7e8>
 100014c:	6e65                	lui	t3,0x19
 100014e:	0000                	unimp
 1000150:	0000                	unimp
 1000152:	0300                	addi	s0,sp,384
 1000154:	0000                	unimp
 1000156:	1b00                	addi	s0,sp,432
 1000158:	0000                	unimp
 100015a:	4600                	lw	s0,8(a2)
 100015c:	636f732f          	0x636f732f
 1000160:	7265732f          	0x7265732f
 1000164:	6169                	addi	sp,sp,208
 1000166:	406c                	lw	a1,68(s0)
 1000168:	3032                	fld	ft0,296(sp)
 100016a:	3230                	fld	fa2,96(a2)
 100016c:	3030                	fld	fa2,96(s0)
 100016e:	3a30                	fld	fa2,112(a2)
 1000170:	3131                	addiw	sp,sp,-20
 1000172:	3235                	addiw	tp,tp,-19
 1000174:	3030                	fld	fa2,96(s0)
 1000176:	0000                	unimp
 1000178:	0000                	unimp
 100017a:	0200                	addi	s0,sp,256
 100017c:	0000                	unimp
 100017e:	0100                	addi	s0,sp,128
 1000180:	656d                	lui	a0,0x1b
 1000182:	6f6d                	lui	t5,0x1b
 1000184:	7972                	ld	s2,312(sp)
 1000186:	3840                	fld	fs0,176(s0)
 1000188:	3030                	fld	fa2,96(s0)
 100018a:	3030                	fld	fa2,96(s0)
 100018c:	3030                	fld	fa2,96(s0)
 100018e:	0030                	addi	a2,sp,8
 1000190:	0000                	unimp
 1000192:	0300                	addi	s0,sp,384
 1000194:	0000                	unimp
 1000196:	0700                	addi	s0,sp,896
 1000198:	0000                	unimp
 100019a:	5200                	lw	s0,32(a2)
 100019c:	656d                	lui	a0,0x1b
 100019e:	6f6d                	lui	t5,0x1b
 10001a0:	7972                	ld	s2,312(sp)
 10001a2:	0000                	unimp
 10001a4:	0000                	unimp
 10001a6:	0300                	addi	s0,sp,384
 10001a8:	0000                	unimp
 10001aa:	1000                	addi	s0,sp,32
 10001ac:	0000                	unimp
 10001ae:	5e00                	lw	s0,56(a2)
 10001b0:	0000                	unimp
 10001b2:	0000                	unimp
 10001b4:	0080                	addi	s0,sp,64
 10001b6:	0000                	unimp
 10001b8:	0000                	unimp
 10001ba:	0000                	unimp
 10001bc:	0080                	addi	s0,sp,64
 10001be:	0000                	unimp
 10001c0:	0000                	unimp
 10001c2:	0200                	addi	s0,sp,256
 10001c4:	0000                	unimp
 10001c6:	0100                	addi	s0,sp,128
 10001c8:	6572                	ld	a0,280(sp)
 10001ca:	76726573          	csrrsi	a0,0x767,4
 10001ce:	6465                	lui	s0,0x19
 10001d0:	6d2d                	lui	s10,0xb
 10001d2:	6d65                	lui	s10,0x19
 10001d4:	0079726f          	jal	tp,10979da <__spl_src_start+0x8a8f2>
 10001d8:	0000                	unimp
 10001da:	0300                	addi	s0,sp,384
 10001dc:	0000                	unimp
 10001de:	0400                	addi	s0,sp,512
 10001e0:	0000                	unimp
 10001e2:	0000                	unimp
 10001e4:	0000                	unimp
 10001e6:	0200                	addi	s0,sp,256
 10001e8:	0000                	unimp
 10001ea:	0300                	addi	s0,sp,384
 10001ec:	0000                	unimp
 10001ee:	0400                	addi	s0,sp,512
 10001f0:	0000                	unimp
 10001f2:	0f00                	addi	s0,sp,912
 10001f4:	0000                	unimp
 10001f6:	0200                	addi	s0,sp,256
 10001f8:	0000                	unimp
 10001fa:	0300                	addi	s0,sp,384
 10001fc:	0000                	unimp
 10001fe:	0000                	unimp
 1000200:	0000                	unimp
 1000202:	6200                	ld	s0,0(a2)
 1000204:	0000                	unimp
 1000206:	0100                	addi	s0,sp,128
 1000208:	7562                	ld	a0,56(sp)
 100020a:	6666                	ld	a2,88(sp)
 100020c:	7265                	lui	tp,0xffff9
 100020e:	6340                	ld	s0,128(a4)
 1000210:	3030                	fld	fa2,96(s0)
 1000212:	3030                	fld	fa2,96(s0)
 1000214:	3030                	fld	fa2,96(s0)
 1000216:	0030                	addi	a2,sp,8
 1000218:	0000                	unimp
 100021a:	0300                	addi	s0,sp,384
 100021c:	0000                	unimp
 100021e:	1000                	addi	s0,sp,32
 1000220:	0000                	unimp
 1000222:	5e00                	lw	s0,56(a2)
 1000224:	0000                	unimp
 1000226:	0000                	unimp
 1000228:	00c0                	addi	s0,sp,68
 100022a:	0000                	unimp
 100022c:	0000                	unimp
 100022e:	0000                	unimp
 1000230:	0010                	0x10
 1000232:	0000                	unimp
 1000234:	0000                	unimp
 1000236:	0300                	addi	s0,sp,384
 1000238:	0000                	unimp
 100023a:	0400                	addi	s0,sp,512
 100023c:	0000                	unimp
 100023e:	6900                	ld	s0,16(a0)
 1000240:	0000                	unimp
 1000242:	0600                	addi	s0,sp,768
 1000244:	0000                	unimp
 1000246:	0200                	addi	s0,sp,256
 1000248:	0000                	unimp
 100024a:	0200                	addi	s0,sp,256
 100024c:	0000                	unimp
 100024e:	0100                	addi	s0,sp,128
 1000250:	73757063          	bgeu	a0,s7,1000970 <device_tree+0x8e0>
 1000254:	0000                	unimp
 1000256:	0000                	unimp
 1000258:	0000                	unimp
 100025a:	0300                	addi	s0,sp,384
 100025c:	0000                	unimp
 100025e:	0400                	addi	s0,sp,512
 1000260:	0000                	unimp
 1000262:	0000                	unimp
 1000264:	0000                	unimp
 1000266:	0100                	addi	s0,sp,128
 1000268:	0000                	unimp
 100026a:	0300                	addi	s0,sp,384
 100026c:	0000                	unimp
 100026e:	0400                	addi	s0,sp,512
 1000270:	0000                	unimp
 1000272:	0f00                	addi	s0,sp,912
 1000274:	0000                	unimp
 1000276:	0000                	unimp
 1000278:	0000                	unimp
 100027a:	0300                	addi	s0,sp,384
 100027c:	0000                	unimp
 100027e:	0400                	addi	s0,sp,512
 1000280:	0000                	unimp
 1000282:	7100                	ld	s0,32(a0)
 1000284:	be00                	fsd	fs0,56(a2)
 1000286:	20bc                	fld	fa5,64(s1)
 1000288:	0000                	unimp
 100028a:	0100                	addi	s0,sp,128
 100028c:	40757063          	bgeu	a0,t2,100068c <device_tree+0x5fc>
 1000290:	0030                	addi	a2,sp,8
 1000292:	0000                	unimp
 1000294:	0000                	unimp
 1000296:	0300                	addi	s0,sp,384
 1000298:	0000                	unimp
 100029a:	0400                	addi	s0,sp,512
 100029c:	0000                	unimp
 100029e:	5200                	lw	s0,32(a2)
 10002a0:	00757063          	bgeu	a0,t2,10002a0 <device_tree+0x210>
 10002a4:	0000                	unimp
 10002a6:	0300                	addi	s0,sp,384
 10002a8:	0000                	unimp
 10002aa:	0500                	addi	s0,sp,640
 10002ac:	0000                	unimp
 10002ae:	8400                	0x8400
 10002b0:	79616b6f          	jal	s6,1016a46 <__spl_src_start+0x995e>
 10002b4:	0000                	unimp
 10002b6:	0000                	unimp
 10002b8:	0000                	unimp
 10002ba:	0300                	addi	s0,sp,384
 10002bc:	0000                	unimp
 10002be:	1100                	addi	s0,sp,160
 10002c0:	0000                	unimp
 10002c2:	1b00                	addi	s0,sp,432
 10002c4:	7465                	lui	s0,0xffff9
 10002c6:	2c68                	fld	fa0,216(s0)
 10002c8:	7261                	lui	tp,0xffff8
 10002ca:	6169                	addi	sp,sp,208
 10002cc:	656e                	ld	a0,216(sp)
 10002ce:	7200                	ld	s0,32(a2)
 10002d0:	7369                	lui	t1,0xffffa
 10002d2:	00007663          	bgeu	zero,zero,10002de <device_tree+0x24e>
 10002d6:	0000                	unimp
 10002d8:	0000                	unimp
 10002da:	0300                	addi	s0,sp,384
 10002dc:	0000                	unimp
 10002de:	0400                	addi	s0,sp,512
 10002e0:	0000                	unimp
 10002e2:	8b00                	0x8b00
 10002e4:	7d01                	lui	s10,0xfffe0
 10002e6:	4078                	lw	a4,68(s0)
 10002e8:	0000                	unimp
 10002ea:	0300                	addi	s0,sp,384
 10002ec:	0000                	unimp
 10002ee:	0b00                	addi	s0,sp,400
 10002f0:	0000                	unimp
 10002f2:	9b00                	0x9b00
 10002f4:	7672                	ld	a2,312(sp)
 10002f6:	3436                	fld	fs0,360(sp)
 10002f8:	6966                	ld	s2,88(sp)
 10002fa:	616d                	addi	sp,sp,240
 10002fc:	6466                	ld	s0,88(sp)
 10002fe:	0000                	unimp
 1000300:	0000                	unimp
 1000302:	0300                	addi	s0,sp,384
 1000304:	0000                	unimp
 1000306:	0b00                	addi	s0,sp,400
 1000308:	0000                	unimp
 100030a:	a500                	fsd	fs0,8(a0)
 100030c:	6972                	ld	s2,280(sp)
 100030e:	2c766373          	csrrsi	t1,0x2c7,12
 1000312:	39337673          	csrrci	a2,0x393,6
 1000316:	0000                	unimp
 1000318:	0000                	unimp
 100031a:	0300                	addi	s0,sp,384
 100031c:	0000                	unimp
 100031e:	0000                	unimp
 1000320:	0000                	unimp
 1000322:	ae00                	fsd	fs0,24(a2)
 1000324:	0000                	unimp
 1000326:	0300                	addi	s0,sp,384
 1000328:	0000                	unimp
 100032a:	0400                	addi	s0,sp,512
 100032c:	0000                	unimp
 100032e:	5e00                	lw	s0,56(a2)
 1000330:	0000                	unimp
 1000332:	0000                	unimp
 1000334:	0000                	unimp
 1000336:	0100                	addi	s0,sp,128
 1000338:	6e69                	lui	t3,0x1a
 100033a:	6574                	ld	a3,200(a0)
 100033c:	7272                	ld	tp,312(sp)
 100033e:	7075                	c.lui	zero,0xffffd
 1000340:	2d74                	fld	fa3,216(a0)
 1000342:	746e6f63          	bltu	t3,t1,1000aa0 <device_tree+0xa10>
 1000346:	6f72                	ld	t5,280(sp)
 1000348:	6c6c                	ld	a1,216(s0)
 100034a:	7265                	lui	tp,0xffff9
 100034c:	0000                	unimp
 100034e:	0000                	unimp
 1000350:	0000                	unimp
 1000352:	0300                	addi	s0,sp,384
 1000354:	0000                	unimp
 1000356:	0400                	addi	s0,sp,512
 1000358:	0000                	unimp
 100035a:	b800                	fsd	fs0,48(s0)
 100035c:	0000                	unimp
 100035e:	0100                	addi	s0,sp,128
 1000360:	0000                	unimp
 1000362:	0300                	addi	s0,sp,384
 1000364:	0000                	unimp
 1000366:	0400                	addi	s0,sp,512
 1000368:	0000                	unimp
 100036a:	0000                	unimp
 100036c:	0000                	unimp
 100036e:	0100                	addi	s0,sp,128
 1000370:	0000                	unimp
 1000372:	0300                	addi	s0,sp,384
 1000374:	0000                	unimp
 1000376:	0000                	unimp
 1000378:	0000                	unimp
 100037a:	c900                	sw	s0,16(a0)
 100037c:	0000                	unimp
 100037e:	0300                	addi	s0,sp,384
 1000380:	0000                	unimp
 1000382:	0f00                	addi	s0,sp,912
 1000384:	0000                	unimp
 1000386:	1b00                	addi	s0,sp,432
 1000388:	6972                	ld	s2,280(sp)
 100038a:	2c766373          	csrrsi	t1,0x2c7,12
 100038e:	2d757063          	bgeu	a0,s7,100064e <device_tree+0x5be>
 1000392:	6e69                	lui	t3,0x1a
 1000394:	6374                	ld	a3,192(a4)
 1000396:	0000                	unimp
 1000398:	0000                	unimp
 100039a:	0300                	addi	s0,sp,384
 100039c:	0000                	unimp
 100039e:	0400                	addi	s0,sp,512
 10003a0:	0000                	unimp
 10003a2:	6900                	ld	s0,16(a0)
 10003a4:	0000                	unimp
 10003a6:	0300                	addi	s0,sp,384
 10003a8:	0000                	unimp
 10003aa:	0200                	addi	s0,sp,256
 10003ac:	0000                	unimp
 10003ae:	0200                	addi	s0,sp,256
 10003b0:	0000                	unimp
 10003b2:	0200                	addi	s0,sp,256
 10003b4:	0000                	unimp
 10003b6:	0100                	addi	s0,sp,128
 10003b8:	6976                	ld	s2,344(sp)
 10003ba:	7472                	ld	s0,312(sp)
 10003bc:	325f 6d35 7a68      	0x7a686d35325f
 10003c2:	0000                	unimp
 10003c4:	0000                	unimp
 10003c6:	0300                	addi	s0,sp,384
 10003c8:	0000                	unimp
 10003ca:	0400                	addi	s0,sp,512
 10003cc:	0000                	unimp
 10003ce:	de00                	sw	s0,56(a2)
 10003d0:	0000                	unimp
 10003d2:	0000                	unimp
 10003d4:	0000                	unimp
 10003d6:	0300                	addi	s0,sp,384
 10003d8:	0000                	unimp
 10003da:	0c00                	addi	s0,sp,528
 10003dc:	0000                	unimp
 10003de:	1b00                	addi	s0,sp,432
 10003e0:	6966                	ld	s2,88(sp)
 10003e2:	6578                	ld	a4,200(a0)
 10003e4:	2d64                	fld	fs1,216(a0)
 10003e6:	636f6c63          	bltu	t5,s6,1000a1e <device_tree+0x98e>
 10003ea:	0000006b          	0x6b
 10003ee:	0300                	addi	s0,sp,384
 10003f0:	0000                	unimp
 10003f2:	0400                	addi	s0,sp,512
 10003f4:	0000                	unimp
 10003f6:	8b00                	0x8b00
 10003f8:	7d01                	lui	s10,0xfffe0
 10003fa:	4078                	lw	a4,68(s0)
 10003fc:	0000                	unimp
 10003fe:	0300                	addi	s0,sp,384
 1000400:	0000                	unimp
 1000402:	0400                	addi	s0,sp,512
 1000404:	0000                	unimp
 1000406:	6900                	ld	s0,16(a0)
 1000408:	0000                	unimp
 100040a:	0200                	addi	s0,sp,256
 100040c:	0000                	unimp
 100040e:	0200                	addi	s0,sp,256
 1000410:	0000                	unimp
 1000412:	0100                	addi	s0,sp,128
 1000414:	00636f73          	csrrsi	t5,0x6,6
 1000418:	0000                	unimp
 100041a:	0300                	addi	s0,sp,384
 100041c:	0000                	unimp
 100041e:	0400                	addi	s0,sp,512
 1000420:	0000                	unimp
 1000422:	0000                	unimp
 1000424:	0000                	unimp
 1000426:	0200                	addi	s0,sp,256
 1000428:	0000                	unimp
 100042a:	0300                	addi	s0,sp,384
 100042c:	0000                	unimp
 100042e:	0400                	addi	s0,sp,512
 1000430:	0000                	unimp
 1000432:	0f00                	addi	s0,sp,912
 1000434:	0000                	unimp
 1000436:	0200                	addi	s0,sp,256
 1000438:	0000                	unimp
 100043a:	0300                	addi	s0,sp,384
 100043c:	0000                	unimp
 100043e:	0b00                	addi	s0,sp,400
 1000440:	0000                	unimp
 1000442:	1b00                	addi	s0,sp,432
 1000444:	706d6973          	csrrsi	s2,0x706,26
 1000448:	656c                	ld	a1,200(a0)
 100044a:	622d                	lui	tp,0xb
 100044c:	7375                	lui	t1,0xffffd
 100044e:	0000                	unimp
 1000450:	0000                	unimp
 1000452:	0300                	addi	s0,sp,384
 1000454:	0000                	unimp
 1000456:	0000                	unimp
 1000458:	0000                	unimp
 100045a:	6200                	ld	s0,0(a2)
 100045c:	0000                	unimp
 100045e:	0100                	addi	s0,sp,128
 1000460:	6564                	ld	s1,200(a0)
 1000462:	7562                	ld	a0,56(sp)
 1000464:	00304067          	0x304067
 1000468:	0000                	unimp
 100046a:	0300                	addi	s0,sp,384
 100046c:	0000                	unimp
 100046e:	1000                	addi	s0,sp,32
 1000470:	0000                	unimp
 1000472:	1b00                	addi	s0,sp,432
 1000474:	6972                	ld	s2,280(sp)
 1000476:	2c766373          	csrrsi	t1,0x2c7,12
 100047a:	6564                	ld	s1,200(a0)
 100047c:	7562                	ld	a0,56(sp)
 100047e:	31302d67          	0x31302d67
 1000482:	00000033          	add	zero,zero,zero
 1000486:	0300                	addi	s0,sp,384
 1000488:	0000                	unimp
 100048a:	0800                	addi	s0,sp,16
 100048c:	0000                	unimp
 100048e:	eb00                	sd	s0,16(a4)
 1000490:	746e6f63          	bltu	t3,t1,1000bee <device_tree+0xb5e>
 1000494:	6f72                	ld	t5,280(sp)
 1000496:	006c                	addi	a1,sp,12
 1000498:	0000                	unimp
 100049a:	0300                	addi	s0,sp,384
 100049c:	0000                	unimp
 100049e:	1000                	addi	s0,sp,32
 10004a0:	0000                	unimp
 10004a2:	5e00                	lw	s0,56(a2)
	...
 10004b0:	0000                	unimp
 10004b2:	0010                	0x10
 10004b4:	0000                	unimp
 10004b6:	0200                	addi	s0,sp,256
 10004b8:	0000                	unimp
 10004ba:	0100                	addi	s0,sp,128
 10004bc:	69726573          	csrrsi	a0,0x697,4
 10004c0:	6c61                	lui	s8,0x18
 10004c2:	3240                	fld	fs0,160(a2)
 10004c4:	3030                	fld	fa2,96(s0)
 10004c6:	3032                	fld	ft0,296(sp)
 10004c8:	3030                	fld	fa2,96(s0)
 10004ca:	0000                	unimp
 10004cc:	0000                	unimp
 10004ce:	0300                	addi	s0,sp,384
 10004d0:	0000                	unimp
 10004d2:	0900                	addi	s0,sp,144
 10004d4:	0000                	unimp
 10004d6:	1b00                	addi	s0,sp,432
 10004d8:	736e                	ld	t1,248(sp)
 10004da:	3631                	addiw	a2,a2,-20
 10004dc:	3535                	addiw	a0,a0,-19
 10004de:	6130                	ld	a2,64(a0)
 10004e0:	0000                	unimp
 10004e2:	0000                	unimp
 10004e4:	0000                	unimp
 10004e6:	0300                	addi	s0,sp,384
 10004e8:	0000                	unimp
 10004ea:	1000                	addi	s0,sp,32
 10004ec:	0000                	unimp
 10004ee:	5e00                	lw	s0,56(a2)
 10004f0:	0000                	unimp
 10004f2:	0000                	unimp
 10004f4:	0002                	c.slli64	zero
 10004f6:	0020                	addi	s0,sp,8
 10004f8:	0000                	unimp
 10004fa:	0000                	unimp
 10004fc:	0000                	unimp
 10004fe:	0010                	0x10
 1000500:	0000                	unimp
 1000502:	0300                	addi	s0,sp,384
 1000504:	0000                	unimp
 1000506:	0400                	addi	s0,sp,512
 1000508:	0000                	unimp
 100050a:	8b00                	0x8b00
 100050c:	7d01                	lui	s10,0xfffe0
 100050e:	4078                	lw	a4,68(s0)
 1000510:	0000                	unimp
 1000512:	0300                	addi	s0,sp,384
 1000514:	0000                	unimp
 1000516:	0400                	addi	s0,sp,512
 1000518:	0000                	unimp
 100051a:	f500                	sd	s0,40(a0)
 100051c:	0100                	addi	s0,sp,128
 100051e:	00c2                	slli	ra,ra,0x10
 1000520:	0000                	unimp
 1000522:	0300                	addi	s0,sp,384
 1000524:	0000                	unimp
 1000526:	0400                	addi	s0,sp,512
 1000528:	0000                	unimp
 100052a:	0301                	addi	t1,t1,0
 100052c:	0000                	unimp
 100052e:	0100                	addi	s0,sp,128
 1000530:	0000                	unimp
 1000532:	0300                	addi	s0,sp,384
 1000534:	0000                	unimp
 1000536:	0400                	addi	s0,sp,512
 1000538:	0000                	unimp
 100053a:	1401                	addi	s0,s0,-32
 100053c:	0000                	unimp
 100053e:	2400                	fld	fs0,8(s0)
 1000540:	0000                	unimp
 1000542:	0300                	addi	s0,sp,384
 1000544:	0000                	unimp
 1000546:	0400                	addi	s0,sp,512
 1000548:	0000                	unimp
 100054a:	1f01                	addi	t5,t5,-32
 100054c:	0000                	unimp
 100054e:	0000                	unimp
 1000550:	0000                	unimp
 1000552:	0300                	addi	s0,sp,384
 1000554:	0000                	unimp
 1000556:	0400                	addi	s0,sp,512
 1000558:	0000                	unimp
 100055a:	2a01                	sext.w	s4,s4
 100055c:	0000                	unimp
 100055e:	0200                	addi	s0,sp,256
 1000560:	0000                	unimp
 1000562:	0300                	addi	s0,sp,384
 1000564:	0000                	unimp
 1000566:	0400                	addi	s0,sp,512
 1000568:	0000                	unimp
 100056a:	3401                	addiw	s0,s0,-32
 100056c:	0000                	unimp
 100056e:	0400                	addi	s0,sp,512
 1000570:	0000                	unimp
 1000572:	0200                	addi	s0,sp,256
 1000574:	0000                	unimp
 1000576:	0100                	addi	s0,sp,128
 1000578:	6974                	ld	a3,208(a0)
 100057a:	656d                	lui	a0,0x1b
 100057c:	4072                	0x4072
 100057e:	3032                	fld	ft0,296(sp)
 1000580:	3630                	fld	fa2,104(a2)
 1000582:	3030                	fld	fa2,96(s0)
 1000584:	0030                	addi	a2,sp,8
 1000586:	0000                	unimp
 1000588:	0000                	unimp
 100058a:	0300                	addi	s0,sp,384
 100058c:	0000                	unimp
 100058e:	0f00                	addi	s0,sp,912
 1000590:	0000                	unimp
 1000592:	1b00                	addi	s0,sp,432
 1000594:	7570                	ld	a2,232(a0)
 1000596:	706c                	ld	a1,224(s0)
 1000598:	612c                	ld	a1,64(a0)
 100059a:	6270                	ld	a2,192(a2)
 100059c:	745f 6d69 7265      	0x72656d69745f
 10005a2:	0000                	unimp
 10005a4:	0000                	unimp
 10005a6:	0300                	addi	s0,sp,384
 10005a8:	0000                	unimp
 10005aa:	0400                	addi	s0,sp,512
 10005ac:	0000                	unimp
 10005ae:	0301                	addi	t1,t1,0
 10005b0:	0000                	unimp
 10005b2:	0100                	addi	s0,sp,128
 10005b4:	0000                	unimp
 10005b6:	0300                	addi	s0,sp,384
 10005b8:	0000                	unimp
 10005ba:	1000                	addi	s0,sp,32
 10005bc:	0000                	unimp
 10005be:	1401                	addi	s0,s0,-32
 10005c0:	0000                	unimp
 10005c2:	6800                	ld	s0,16(s0)
 10005c4:	0000                	unimp
 10005c6:	6900                	ld	s0,16(a0)
 10005c8:	0000                	unimp
 10005ca:	7000                	ld	s0,32(s0)
 10005cc:	0000                	unimp
 10005ce:	7100                	ld	s0,32(a0)
 10005d0:	0000                	unimp
 10005d2:	0300                	addi	s0,sp,384
 10005d4:	0000                	unimp
 10005d6:	1000                	addi	s0,sp,32
 10005d8:	0000                	unimp
 10005da:	5e00                	lw	s0,56(a2)
 10005dc:	0000                	unimp
 10005de:	0000                	unimp
 10005e0:	0002                	c.slli64	zero
 10005e2:	0060                	addi	s0,sp,12
 10005e4:	0000                	unimp
 10005e6:	0000                	unimp
 10005e8:	0000                	unimp
 10005ea:	0010                	0x10
 10005ec:	0000                	unimp
 10005ee:	0300                	addi	s0,sp,384
 10005f0:	0000                	unimp
 10005f2:	0800                	addi	s0,sp,16
 10005f4:	0000                	unimp
 10005f6:	eb00                	sd	s0,16(a4)
 10005f8:	746e6f63          	bltu	t3,t1,1000d56 <device_tree+0xcc6>
 10005fc:	6f72                	ld	t5,280(sp)
 10005fe:	006c                	addi	a1,sp,12
 1000600:	0000                	unimp
 1000602:	0200                	addi	s0,sp,256
 1000604:	0000                	unimp
 1000606:	0100                	addi	s0,sp,128
 1000608:	40697073          	csrci	0x406,18
 100060c:	6334                	ld	a3,64(a4)
 100060e:	3030                	fld	fa2,96(s0)
 1000610:	3030                	fld	fa2,96(s0)
 1000612:	3030                	fld	fa2,96(s0)
 1000614:	0000                	unimp
 1000616:	0000                	unimp
 1000618:	0000                	unimp
 100061a:	0300                	addi	s0,sp,384
 100061c:	0000                	unimp
 100061e:	2a00                	fld	fs0,16(a2)
 1000620:	0000                	unimp
 1000622:	1b00                	addi	s0,sp,432
 1000624:	6c78                	ld	a4,216(s0)
 1000626:	786e                	ld	a6,248(sp)
 1000628:	612c                	ld	a1,64(a0)
 100062a:	6978                	ld	a4,208(a0)
 100062c:	712d                	addi	sp,sp,-288
 100062e:	6175                	addi	sp,sp,368
 1000630:	2d64                	fld	fs1,216(a0)
 1000632:	2d697073          	csrci	0x2d6,18
 1000636:	00322e33          	slt	t3,tp,gp
 100063a:	6c78                	ld	a4,216(s0)
 100063c:	786e                	ld	a6,248(sp)
 100063e:	782c                	ld	a1,112(s0)
 1000640:	7370                	ld	a2,224(a4)
 1000642:	732d                	lui	t1,0xfffeb
 1000644:	6970                	ld	a2,208(a0)
 1000646:	322d                	addiw	tp,tp,-21
 1000648:	302e                	fld	ft0,232(sp)
 100064a:	2e30                	fld	fa2,88(a2)
 100064c:	0061                	c.nop	24
 100064e:	0000                	unimp
 1000650:	0000                	unimp
 1000652:	0300                	addi	s0,sp,384
 1000654:	0000                	unimp
 1000656:	0800                	addi	s0,sp,16
 1000658:	0000                	unimp
 100065a:	4101                	li	sp,0
 100065c:	0000                	unimp
 100065e:	0100                	addi	s0,sp,128
 1000660:	0000                	unimp
 1000662:	0200                	addi	s0,sp,256
 1000664:	0000                	unimp
 1000666:	0300                	addi	s0,sp,384
 1000668:	0000                	unimp
 100066a:	0400                	addi	s0,sp,512
 100066c:	0000                	unimp
 100066e:	5501                	li	a0,-32
 1000670:	0000                	unimp
 1000672:	0200                	addi	s0,sp,256
 1000674:	0000                	unimp
 1000676:	0300                	addi	s0,sp,384
 1000678:	0000                	unimp
 100067a:	1000                	addi	s0,sp,32
 100067c:	0000                	unimp
 100067e:	5e00                	lw	s0,56(a2)
 1000680:	0000                	unimp
 1000682:	0000                	unimp
 1000684:	004c                	addi	a1,sp,4
 1000686:	0000                	unimp
 1000688:	0000                	unimp
 100068a:	0000                	unimp
 100068c:	0100                	addi	s0,sp,128
 100068e:	0000                	unimp
 1000690:	0000                	unimp
 1000692:	0300                	addi	s0,sp,384
 1000694:	0000                	unimp
 1000696:	0400                	addi	s0,sp,512
 1000698:	0000                	unimp
 100069a:	5c01                	li	s8,-32
 100069c:	0000                	unimp
 100069e:	0100                	addi	s0,sp,128
 10006a0:	0000                	unimp
 10006a2:	0300                	addi	s0,sp,384
 10006a4:	0000                	unimp
 10006a6:	0400                	addi	s0,sp,512
 10006a8:	0000                	unimp
 10006aa:	6d01                	0x6d01
 10006ac:	0000                	unimp
 10006ae:	0800                	addi	s0,sp,16
 10006b0:	0000                	unimp
 10006b2:	0300                	addi	s0,sp,384
 10006b4:	0000                	unimp
 10006b6:	0400                	addi	s0,sp,512
 10006b8:	0000                	unimp
 10006ba:	8401                	c.srai64	s0
 10006bc:	0000                	unimp
 10006be:	1000                	addi	s0,sp,32
 10006c0:	0000                	unimp
 10006c2:	0300                	addi	s0,sp,384
 10006c4:	0000                	unimp
 10006c6:	0400                	addi	s0,sp,512
 10006c8:	0000                	unimp
 10006ca:	0000                	unimp
 10006cc:	0000                	unimp
 10006ce:	0100                	addi	s0,sp,128
 10006d0:	0000                	unimp
 10006d2:	0300                	addi	s0,sp,384
 10006d4:	0000                	unimp
 10006d6:	0400                	addi	s0,sp,512
 10006d8:	0000                	unimp
 10006da:	0f00                	addi	s0,sp,912
 10006dc:	0000                	unimp
 10006de:	0000                	unimp
 10006e0:	0000                	unimp
 10006e2:	0100                	addi	s0,sp,128
 10006e4:	6f6e                	ld	t5,216(sp)
 10006e6:	4072                	0x4072
 10006e8:	0030                	addi	a2,sp,8
 10006ea:	0000                	unimp
 10006ec:	0000                	unimp
 10006ee:	0300                	addi	s0,sp,384
 10006f0:	0000                	unimp
 10006f2:	0400                	addi	s0,sp,512
 10006f4:	0000                	unimp
 10006f6:	0000                	unimp
 10006f8:	0000                	unimp
 10006fa:	0100                	addi	s0,sp,128
 10006fc:	0000                	unimp
 10006fe:	0300                	addi	s0,sp,384
 1000700:	0000                	unimp
 1000702:	0400                	addi	s0,sp,512
 1000704:	0000                	unimp
 1000706:	0f00                	addi	s0,sp,912
 1000708:	0000                	unimp
 100070a:	0100                	addi	s0,sp,128
 100070c:	0000                	unimp
 100070e:	0300                	addi	s0,sp,384
 1000710:	0000                	unimp
 1000712:	1100                	addi	s0,sp,160
 1000714:	0000                	unimp
 1000716:	1b00                	addi	s0,sp,432
 1000718:	696d                	lui	s2,0x1b
 100071a:	6e6f7263          	bgeu	t5,t1,1000dfe <device_tree+0xd6e>
 100071e:	6d2c                	ld	a1,88(a0)
 1000720:	3274                	fld	fa3,224(a2)
 1000722:	7135                	addi	sp,sp,-160
 1000724:	3075                	0x3075
 1000726:	6732                	ld	a4,264(sp)
 1000728:	0000                	unimp
 100072a:	0000                	unimp
 100072c:	0000                	unimp
 100072e:	0300                	addi	s0,sp,384
 1000730:	0000                	unimp
 1000732:	0800                	addi	s0,sp,16
 1000734:	0000                	unimp
 1000736:	5e00                	lw	s0,56(a2)
	...
 1000740:	0000                	unimp
 1000742:	0300                	addi	s0,sp,384
 1000744:	0000                	unimp
 1000746:	0400                	addi	s0,sp,512
 1000748:	0000                	unimp
 100074a:	8e01                	sub	a2,a2,s0
 100074c:	7d01                	lui	s10,0xfffe0
 100074e:	4078                	lw	a4,68(s0)
 1000750:	0000                	unimp
 1000752:	0300                	addi	s0,sp,384
 1000754:	0000                	unimp
 1000756:	0400                	addi	s0,sp,512
 1000758:	0000                	unimp
 100075a:	a001                	j	100075a <device_tree+0x6ca>
 100075c:	0000                	unimp
 100075e:	0400                	addi	s0,sp,512
 1000760:	0000                	unimp
 1000762:	0300                	addi	s0,sp,384
 1000764:	0000                	unimp
 1000766:	0400                	addi	s0,sp,512
 1000768:	0000                	unimp
 100076a:	b101                	j	100036a <device_tree+0x2da>
 100076c:	0000                	unimp
 100076e:	0400                	addi	s0,sp,512
 1000770:	0000                	unimp
 1000772:	0300                	addi	s0,sp,384
 1000774:	0000                	unimp
 1000776:	0000                	unimp
 1000778:	0000                	unimp
 100077a:	c201                	beqz	a2,100077a <device_tree+0x6ea>
 100077c:	0000                	unimp
 100077e:	0100                	addi	s0,sp,128
 1000780:	6170                	ld	a2,192(a0)
 1000782:	7472                	ld	s0,312(sp)
 1000784:	7469                	lui	s0,0xffffa
 1000786:	6f69                	lui	t5,0x1a
 1000788:	406e                	0x406e
 100078a:	0030                	addi	a2,sp,8
 100078c:	0000                	unimp
 100078e:	0300                	addi	s0,sp,384
 1000790:	0000                	unimp
 1000792:	0a00                	addi	s0,sp,272
 1000794:	0000                	unimp
 1000796:	d101                	beqz	a0,1000696 <device_tree+0x606>
 1000798:	6962                	ld	s2,24(sp)
 100079a:	7374                	ld	a3,224(a4)
 100079c:	7274                	ld	a3,224(a2)
 100079e:	6165                	addi	sp,sp,112
 10007a0:	006d                	c.nop	27
 10007a2:	0000                	unimp
 10007a4:	0000                	unimp
 10007a6:	0300                	addi	s0,sp,384
 10007a8:	0000                	unimp
 10007aa:	0800                	addi	s0,sp,16
 10007ac:	0000                	unimp
 10007ae:	5e00                	lw	s0,56(a2)
 10007b0:	0000                	unimp
 10007b2:	0000                	unimp
 10007b4:	0006                	c.slli	zero,0x1
 10007b6:	0000                	unimp
 10007b8:	0000                	unimp
 10007ba:	0300                	addi	s0,sp,384
 10007bc:	0000                	unimp
 10007be:	0000                	unimp
 10007c0:	0000                	unimp
 10007c2:	d701                	beqz	a4,10006ca <device_tree+0x63a>
 10007c4:	0000                	unimp
 10007c6:	0200                	addi	s0,sp,256
 10007c8:	0000                	unimp
 10007ca:	0100                	addi	s0,sp,128
 10007cc:	6170                	ld	a2,192(a0)
 10007ce:	7472                	ld	s0,312(sp)
 10007d0:	7469                	lui	s0,0xffffa
 10007d2:	6f69                	lui	t5,0x1a
 10007d4:	406e                	0x406e
 10007d6:	3036                	fld	ft0,360(sp)
 10007d8:	3030                	fld	fa2,96(s0)
 10007da:	3030                	fld	fa2,96(s0)
 10007dc:	0030                	addi	a2,sp,8
 10007de:	0000                	unimp
 10007e0:	0000                	unimp
 10007e2:	0300                	addi	s0,sp,384
 10007e4:	0000                	unimp
 10007e6:	0700                	addi	s0,sp,896
 10007e8:	0000                	unimp
 10007ea:	d101                	beqz	a0,10006ea <device_tree+0x65a>
 10007ec:	2d75                	addiw	s10,s10,29
 10007ee:	6f62                	ld	t5,24(sp)
 10007f0:	0000746f          	jal	s0,10077f0 <__spl_start+0x6300>
 10007f4:	0000                	unimp
 10007f6:	0300                	addi	s0,sp,384
 10007f8:	0000                	unimp
 10007fa:	0800                	addi	s0,sp,16
 10007fc:	0000                	unimp
 10007fe:	5e00                	lw	s0,56(a2)
 1000800:	0006                	c.slli	zero,0x1
 1000802:	0000                	unimp
 1000804:	1000                	addi	s0,sp,32
 1000806:	0000                	unimp
 1000808:	0000                	unimp
 100080a:	0300                	addi	s0,sp,384
 100080c:	0000                	unimp
 100080e:	0000                	unimp
 1000810:	0000                	unimp
 1000812:	d701                	beqz	a4,100071a <device_tree+0x68a>
 1000814:	0000                	unimp
 1000816:	0200                	addi	s0,sp,256
 1000818:	0000                	unimp
 100081a:	0100                	addi	s0,sp,128
 100081c:	6975                	lui	s2,0x1d
 100081e:	616d                	addi	sp,sp,240
 1000820:	36406567          	0x36406567
 1000824:	3031                	0x3031
 1000826:	3030                	fld	fa2,96(s0)
 1000828:	3030                	fld	fa2,96(s0)
 100082a:	0000                	unimp
 100082c:	0000                	unimp
 100082e:	0300                	addi	s0,sp,384
 1000830:	0000                	unimp
 1000832:	0700                	addi	s0,sp,896
 1000834:	0000                	unimp
 1000836:	d101                	beqz	a0,1000736 <device_tree+0x6a6>
 1000838:	6975                	lui	s2,0x1d
 100083a:	616d                	addi	sp,sp,240
 100083c:	00006567          	0x6567
 1000840:	0000                	unimp
 1000842:	0300                	addi	s0,sp,384
 1000844:	0000                	unimp
 1000846:	0800                	addi	s0,sp,16
 1000848:	0000                	unimp
 100084a:	5e00                	lw	s0,56(a2)
 100084c:	1006                	c.slli	zero,0x21
 100084e:	0000                	unimp
 1000850:	0001                	nop
 1000852:	0000                	unimp
 1000854:	0000                	unimp
 1000856:	0300                	addi	s0,sp,384
 1000858:	0000                	unimp
 100085a:	0000                	unimp
 100085c:	0000                	unimp
 100085e:	d701                	beqz	a4,1000766 <device_tree+0x6d6>
 1000860:	0000                	unimp
 1000862:	0200                	addi	s0,sp,256
 1000864:	0000                	unimp
 1000866:	0100                	addi	s0,sp,128
 1000868:	6170                	ld	a2,192(a0)
 100086a:	7472                	ld	s0,312(sp)
 100086c:	7469                	lui	s0,0xffffa
 100086e:	6f69                	lui	t5,0x1a
 1000870:	406e                	0x406e
 1000872:	30303137          	lui	sp,0x30303
 1000876:	3030                	fld	fa2,96(s0)
 1000878:	0030                	addi	a2,sp,8
 100087a:	0000                	unimp
 100087c:	0000                	unimp
 100087e:	0300                	addi	s0,sp,384
 1000880:	0000                	unimp
 1000882:	0b00                	addi	s0,sp,400
 1000884:	0000                	unimp
 1000886:	d101                	beqz	a0,1000786 <device_tree+0x6f6>
 1000888:	6966                	ld	s2,88(sp)
 100088a:	656c                	ld	a1,200(a0)
 100088c:	74737973          	csrrci	s2,0x747,6
 1000890:	6d65                	lui	s10,0x19
 1000892:	0000                	unimp
 1000894:	0000                	unimp
 1000896:	0300                	addi	s0,sp,384
 1000898:	0000                	unimp
 100089a:	0800                	addi	s0,sp,16
 100089c:	0000                	unimp
 100089e:	5e00                	lw	s0,56(a2)
 10008a0:	00001007          	0x1007
 10008a4:	f008                	sd	a0,32(s0)
 10008a6:	0000                	unimp
 10008a8:	0000                	unimp
 10008aa:	0200                	addi	s0,sp,256
 10008ac:	0000                	unimp
 10008ae:	0200                	addi	s0,sp,256
 10008b0:	0000                	unimp
 10008b2:	0200                	addi	s0,sp,256
 10008b4:	0000                	unimp
 10008b6:	0100                	addi	s0,sp,128
 10008b8:	6e696c63          	bltu	s2,t1,1000fb0 <device_tree+0xf20>
 10008bc:	4074                	lw	a3,68(s0)
 10008be:	3034                	fld	fa3,96(s0)
 10008c0:	3030                	fld	fa2,96(s0)
 10008c2:	3030                	fld	fa2,96(s0)
 10008c4:	0030                	addi	a2,sp,8
 10008c6:	0000                	unimp
 10008c8:	0000                	unimp
 10008ca:	0300                	addi	s0,sp,384
 10008cc:	0000                	unimp
 10008ce:	0400                	addi	s0,sp,512
 10008d0:	0000                	unimp
 10008d2:	8b00                	0x8b00
 10008d4:	be00                	fsd	fs0,56(a2)
 10008d6:	20bc                	fld	fa5,64(s1)
 10008d8:	0000                	unimp
 10008da:	0300                	addi	s0,sp,384
 10008dc:	0000                	unimp
 10008de:	0d00                	addi	s0,sp,656
 10008e0:	0000                	unimp
 10008e2:	1b00                	addi	s0,sp,432
 10008e4:	6972                	ld	s2,280(sp)
 10008e6:	2c766373          	csrrsi	t1,0x2c7,12
 10008ea:	6e696c63          	bltu	s2,t1,1000fe2 <device_tree+0xf52>
 10008ee:	3074                	fld	fa3,224(s0)
 10008f0:	0000                	unimp
 10008f2:	0000                	unimp
 10008f4:	0000                	unimp
 10008f6:	0300                	addi	s0,sp,384
 10008f8:	0000                	unimp
 10008fa:	1000                	addi	s0,sp,32
 10008fc:	0000                	unimp
 10008fe:	4101                	li	sp,0
 1000900:	0000                	unimp
 1000902:	0300                	addi	s0,sp,384
 1000904:	0000                	unimp
 1000906:	0300                	addi	s0,sp,384
 1000908:	0000                	unimp
 100090a:	0300                	addi	s0,sp,384
 100090c:	0000                	unimp
 100090e:	0700                	addi	s0,sp,896
 1000910:	0000                	unimp
 1000912:	0300                	addi	s0,sp,384
 1000914:	0000                	unimp
 1000916:	0600                	addi	s0,sp,768
 1000918:	0000                	unimp
 100091a:	eb00                	sd	s0,16(a4)
 100091c:	6e696c63          	bltu	s2,t1,1001014 <device_tree+0xf84>
 1000920:	0074                	addi	a3,sp,12
 1000922:	0000                	unimp
 1000924:	0000                	unimp
 1000926:	0300                	addi	s0,sp,384
 1000928:	0000                	unimp
 100092a:	1000                	addi	s0,sp,32
 100092c:	0000                	unimp
 100092e:	5e00                	lw	s0,56(a2)
 1000930:	0000                	unimp
 1000932:	0000                	unimp
 1000934:	0004                	0x4
 1000936:	0000                	unimp
 1000938:	0000                	unimp
 100093a:	0000                	unimp
 100093c:	1000                	addi	s0,sp,32
 100093e:	0000                	unimp
 1000940:	0000                	unimp
 1000942:	0300                	addi	s0,sp,384
 1000944:	0000                	unimp
 1000946:	0400                	addi	s0,sp,512
 1000948:	0000                	unimp
 100094a:	6900                	ld	s0,16(a0)
 100094c:	0000                	unimp
 100094e:	0900                	addi	s0,sp,144
 1000950:	0000                	unimp
 1000952:	0200                	addi	s0,sp,256
 1000954:	0000                	unimp
 1000956:	0100                	addi	s0,sp,128
 1000958:	6e69                	lui	t3,0x1a
 100095a:	6574                	ld	a3,200(a0)
 100095c:	7272                	ld	tp,312(sp)
 100095e:	7075                	c.lui	zero,0xffffd
 1000960:	2d74                	fld	fa3,216(a0)
 1000962:	746e6f63          	bltu	t3,t1,10010c0 <device_tree+0x1030>
 1000966:	6f72                	ld	t5,280(sp)
 1000968:	6c6c                	ld	a1,216(s0)
 100096a:	7265                	lui	tp,0xffff9
 100096c:	6340                	ld	s0,128(a4)
 100096e:	3030                	fld	fa2,96(s0)
 1000970:	3030                	fld	fa2,96(s0)
 1000972:	3030                	fld	fa2,96(s0)
 1000974:	0000                	unimp
 1000976:	0000                	unimp
 1000978:	0000                	unimp
 100097a:	0300                	addi	s0,sp,384
 100097c:	0000                	unimp
 100097e:	0c00                	addi	s0,sp,528
 1000980:	0000                	unimp
 1000982:	1b00                	addi	s0,sp,432
 1000984:	6972                	ld	s2,280(sp)
 1000986:	2c766373          	csrrsi	t1,0x2c7,12
 100098a:	6c70                	ld	a2,216(s0)
 100098c:	6369                	lui	t1,0x1a
 100098e:	0030                	addi	a2,sp,8
 1000990:	0000                	unimp
 1000992:	0300                	addi	s0,sp,384
 1000994:	0000                	unimp
 1000996:	0400                	addi	s0,sp,512
	...
 10009a0:	0000                	unimp
 10009a2:	0300                	addi	s0,sp,384
 10009a4:	0000                	unimp
 10009a6:	0400                	addi	s0,sp,512
 10009a8:	0000                	unimp
 10009aa:	b800                	fsd	fs0,48(s0)
 10009ac:	0000                	unimp
 10009ae:	0100                	addi	s0,sp,128
 10009b0:	0000                	unimp
 10009b2:	0300                	addi	s0,sp,384
 10009b4:	0000                	unimp
 10009b6:	0000                	unimp
 10009b8:	0000                	unimp
 10009ba:	c900                	sw	s0,16(a0)
 10009bc:	0000                	unimp
 10009be:	0300                	addi	s0,sp,384
 10009c0:	0000                	unimp
 10009c2:	1000                	addi	s0,sp,32
 10009c4:	0000                	unimp
 10009c6:	4101                	li	sp,0
 10009c8:	0000                	unimp
 10009ca:	0300                	addi	s0,sp,384
 10009cc:	0000                	unimp
 10009ce:	0b00                	addi	s0,sp,400
 10009d0:	0000                	unimp
 10009d2:	0300                	addi	s0,sp,384
 10009d4:	0000                	unimp
 10009d6:	0900                	addi	s0,sp,144
 10009d8:	0000                	unimp
 10009da:	0300                	addi	s0,sp,384
 10009dc:	0000                	unimp
 10009de:	0400                	addi	s0,sp,512
 10009e0:	0000                	unimp
 10009e2:	e101                	bnez	a0,10009e2 <device_tree+0x952>
 10009e4:	0000                	unimp
 10009e6:	0600                	addi	s0,sp,768
 10009e8:	0000                	unimp
 10009ea:	0300                	addi	s0,sp,384
 10009ec:	0000                	unimp
 10009ee:	0400                	addi	s0,sp,512
 10009f0:	0000                	unimp
 10009f2:	f401                	bnez	s0,10008fa <device_tree+0x86a>
 10009f4:	0000                	unimp
 10009f6:	4800                	lw	s0,16(s0)
 10009f8:	0000                	unimp
 10009fa:	0300                	addi	s0,sp,384
 10009fc:	0000                	unimp
 10009fe:	1000                	addi	s0,sp,32
 1000a00:	0000                	unimp
 1000a02:	5e00                	lw	s0,56(a2)
 1000a04:	0000                	unimp
 1000a06:	0000                	unimp
 1000a08:	000c                	0xc
 1000a0a:	0000                	unimp
 1000a0c:	0000                	unimp
 1000a0e:	0000                	unimp
 1000a10:	0004                	0x4
 1000a12:	0000                	unimp
 1000a14:	0000                	unimp
 1000a16:	0300                	addi	s0,sp,384
 1000a18:	0000                	unimp
 1000a1a:	0400                	addi	s0,sp,512
 1000a1c:	0000                	unimp
 1000a1e:	6900                	ld	s0,16(a0)
 1000a20:	0000                	unimp
 1000a22:	0100                	addi	s0,sp,128
 1000a24:	0000                	unimp
 1000a26:	0200                	addi	s0,sp,256
 1000a28:	0000                	unimp
 1000a2a:	0100                	addi	s0,sp,128
 1000a2c:	7465                	lui	s0,0xffff9
 1000a2e:	5f68                	lw	a0,124(a4)
 1000a30:	6d64                	ld	s1,216(a0)
 1000a32:	4061                	c.li	zero,24
 1000a34:	6434                	ld	a3,72(s0)
 1000a36:	3030                	fld	fa2,96(s0)
 1000a38:	3030                	fld	fa2,96(s0)
 1000a3a:	3030                	fld	fa2,96(s0)
 1000a3c:	0000                	unimp
 1000a3e:	0000                	unimp
 1000a40:	0000                	unimp
 1000a42:	0300                	addi	s0,sp,384
 1000a44:	0000                	unimp
 1000a46:	0400                	addi	s0,sp,512
 1000a48:	0000                	unimp
 1000a4a:	ff01                	bnez	a4,1000962 <device_tree+0x8d2>
 1000a4c:	0000                	unimp
 1000a4e:	0100                	addi	s0,sp,128
 1000a50:	0000                	unimp
 1000a52:	0300                	addi	s0,sp,384
 1000a54:	0000                	unimp
 1000a56:	0400                	addi	s0,sp,512
 1000a58:	0000                	unimp
 1000a5a:	0000                	unimp
 1000a5c:	0000                	unimp
 1000a5e:	0100                	addi	s0,sp,128
 1000a60:	0000                	unimp
 1000a62:	0300                	addi	s0,sp,384
 1000a64:	0000                	unimp
 1000a66:	0400                	addi	s0,sp,512
 1000a68:	0000                	unimp
 1000a6a:	0f00                	addi	s0,sp,912
 1000a6c:	0000                	unimp
 1000a6e:	0100                	addi	s0,sp,128
 1000a70:	0000                	unimp
 1000a72:	0300                	addi	s0,sp,384
 1000a74:	0000                	unimp
 1000a76:	1400                	addi	s0,sp,544
 1000a78:	0000                	unimp
 1000a7a:	1b00                	addi	s0,sp,432
 1000a7c:	6c78                	ld	a4,216(s0)
 1000a7e:	786e                	ld	a6,248(sp)
 1000a80:	612c                	ld	a1,64(a0)
 1000a82:	6978                	ld	a4,208(a0)
 1000a84:	642d                	lui	s0,0xb
 1000a86:	616d                	addi	sp,sp,240
 1000a88:	312d                	addiw	sp,sp,-21
 1000a8a:	302e                	fld	ft0,232(sp)
 1000a8c:	2e30                	fld	fa2,88(a2)
 1000a8e:	0061                	c.nop	24
 1000a90:	0000                	unimp
 1000a92:	0300                	addi	s0,sp,384
 1000a94:	0000                	unimp
 1000a96:	1000                	addi	s0,sp,32
 1000a98:	0000                	unimp
 1000a9a:	5e00                	lw	s0,56(a2)
 1000a9c:	0000                	unimp
 1000a9e:	0000                	unimp
 1000aa0:	004d                	c.nop	19
 1000aa2:	0000                	unimp
 1000aa4:	0000                	unimp
 1000aa6:	0000                	unimp
 1000aa8:	0100                	addi	s0,sp,128
 1000aaa:	0000                	unimp
 1000aac:	0000                	unimp
 1000aae:	0300                	addi	s0,sp,384
 1000ab0:	0000                	unimp
 1000ab2:	1000                	addi	s0,sp,32
 1000ab4:	0000                	unimp
 1000ab6:	4101                	li	sp,0
 1000ab8:	0000                	unimp
 1000aba:	0100                	addi	s0,sp,128
 1000abc:	0000                	unimp
 1000abe:	0300                	addi	s0,sp,384
 1000ac0:	0000                	unimp
 1000ac2:	0100                	addi	s0,sp,128
 1000ac4:	0000                	unimp
 1000ac6:	0400                	addi	s0,sp,512
 1000ac8:	0000                	unimp
 1000aca:	0300                	addi	s0,sp,384
 1000acc:	0000                	unimp
 1000ace:	0400                	addi	s0,sp,512
 1000ad0:	0000                	unimp
 1000ad2:	0a02                	c.slli64	s4
 1000ad4:	0000                	unimp
 1000ad6:	4000                	lw	s0,0(s0)
 1000ad8:	0000                	unimp
 1000ada:	0300                	addi	s0,sp,384
 1000adc:	0000                	unimp
 1000ade:	0000                	unimp
 1000ae0:	0000                	unimp
 1000ae2:	1902                	slli	s2,s2,0x20
 1000ae4:	0000                	unimp
 1000ae6:	0300                	addi	s0,sp,384
 1000ae8:	0000                	unimp
 1000aea:	0400                	addi	s0,sp,512
 1000aec:	0000                	unimp
 1000aee:	6900                	ld	s0,16(a0)
 1000af0:	0000                	unimp
 1000af2:	0400                	addi	s0,sp,512
 1000af4:	0000                	unimp
 1000af6:	0100                	addi	s0,sp,128
 1000af8:	6d64                	ld	s1,216(a0)
 1000afa:	2d61                	addiw	s10,s10,24
 1000afc:	6e616863          	bltu	sp,t1,10011ec <device_tree+0x115c>
 1000b00:	656e                	ld	a0,216(sp)
 1000b02:	406c                	lw	a1,68(s0)
 1000b04:	6434                	ld	a3,72(s0)
 1000b06:	3030                	fld	fa2,96(s0)
 1000b08:	3030                	fld	fa2,96(s0)
 1000b0a:	3030                	fld	fa2,96(s0)
 1000b0c:	0000                	unimp
 1000b0e:	0000                	unimp
 1000b10:	0000                	unimp
 1000b12:	0300                	addi	s0,sp,384
 1000b14:	0000                	unimp
 1000b16:	1a00                	addi	s0,sp,304
 1000b18:	0000                	unimp
 1000b1a:	1b00                	addi	s0,sp,432
 1000b1c:	6c78                	ld	a4,216(s0)
 1000b1e:	786e                	ld	a6,248(sp)
 1000b20:	612c                	ld	a1,64(a0)
 1000b22:	6978                	ld	a4,208(a0)
 1000b24:	642d                	lui	s0,0xb
 1000b26:	616d                	addi	sp,sp,240
 1000b28:	6d2d                	lui	s10,0xb
 1000b2a:	326d                	addiw	tp,tp,-5
 1000b2c:	68632d73          	csrrs	s10,0x686,t1
 1000b30:	6e61                	lui	t3,0x18
 1000b32:	656e                	ld	a0,216(sp)
 1000b34:	006c                	addi	a1,sp,12
 1000b36:	0000                	unimp
 1000b38:	0000                	unimp
 1000b3a:	0300                	addi	s0,sp,384
 1000b3c:	0000                	unimp
 1000b3e:	0800                	addi	s0,sp,16
 1000b40:	0000                	unimp
 1000b42:	5e00                	lw	s0,56(a2)
	...
 1000b4c:	0000                	unimp
 1000b4e:	0300                	addi	s0,sp,384
 1000b50:	0000                	unimp
 1000b52:	0400                	addi	s0,sp,512
 1000b54:	0000                	unimp
 1000b56:	2902                	fld	fs2,0(sp)
 1000b58:	0000                	unimp
 1000b5a:	0100                	addi	s0,sp,128
 1000b5c:	0000                	unimp
 1000b5e:	0300                	addi	s0,sp,384
 1000b60:	0000                	unimp
 1000b62:	0800                	addi	s0,sp,16
 1000b64:	0000                	unimp
 1000b66:	4101                	li	sp,0
 1000b68:	0000                	unimp
 1000b6a:	0100                	addi	s0,sp,128
 1000b6c:	0000                	unimp
 1000b6e:	0300                	addi	s0,sp,384
 1000b70:	0000                	unimp
 1000b72:	0300                	addi	s0,sp,384
 1000b74:	0000                	unimp
 1000b76:	0400                	addi	s0,sp,512
 1000b78:	0000                	unimp
 1000b7a:	3602                	fld	fa2,32(sp)
 1000b7c:	0000                	unimp
 1000b7e:	2000                	fld	fs0,0(s0)
 1000b80:	0000                	unimp
 1000b82:	0300                	addi	s0,sp,384
 1000b84:	0000                	unimp
 1000b86:	0400                	addi	s0,sp,512
 1000b88:	0000                	unimp
 1000b8a:	4502                	lw	a0,0(sp)
 1000b8c:	0000                	unimp
 1000b8e:	0000                	unimp
 1000b90:	0000                	unimp
 1000b92:	0300                	addi	s0,sp,384
 1000b94:	0000                	unimp
 1000b96:	0000                	unimp
 1000b98:	0000                	unimp
 1000b9a:	5402                	lw	s0,32(sp)
 1000b9c:	0000                	unimp
 1000b9e:	0200                	addi	s0,sp,256
 1000ba0:	0000                	unimp
 1000ba2:	0100                	addi	s0,sp,128
 1000ba4:	6d64                	ld	s1,216(a0)
 1000ba6:	2d61                	addiw	s10,s10,24
 1000ba8:	6e616863          	bltu	sp,t1,1001298 <device_tree+0x1208>
 1000bac:	656e                	ld	a0,216(sp)
 1000bae:	406c                	lw	a1,68(s0)
 1000bb0:	6434                	ld	a3,72(s0)
 1000bb2:	3030                	fld	fa2,96(s0)
 1000bb4:	3030                	fld	fa2,96(s0)
 1000bb6:	00003033          	snez	zero,zero
 1000bba:	0000                	unimp
 1000bbc:	0000                	unimp
 1000bbe:	0300                	addi	s0,sp,384
 1000bc0:	0000                	unimp
 1000bc2:	1a00                	addi	s0,sp,304
 1000bc4:	0000                	unimp
 1000bc6:	1b00                	addi	s0,sp,432
 1000bc8:	6c78                	ld	a4,216(s0)
 1000bca:	786e                	ld	a6,248(sp)
 1000bcc:	612c                	ld	a1,64(a0)
 1000bce:	6978                	ld	a4,208(a0)
 1000bd0:	642d                	lui	s0,0xb
 1000bd2:	616d                	addi	sp,sp,240
 1000bd4:	732d                	lui	t1,0xfffeb
 1000bd6:	6d32                	ld	s10,264(sp)
 1000bd8:	2d6d                	addiw	s10,s10,27
 1000bda:	6e616863          	bltu	sp,t1,10012ca <device_tree+0x123a>
 1000bde:	656e                	ld	a0,216(sp)
 1000be0:	006c                	addi	a1,sp,12
 1000be2:	0000                	unimp
 1000be4:	0000                	unimp
 1000be6:	0300                	addi	s0,sp,384
 1000be8:	0000                	unimp
 1000bea:	0800                	addi	s0,sp,16
 1000bec:	0000                	unimp
 1000bee:	5e00                	lw	s0,56(a2)
	...
 1000bf8:	0000                	unimp
 1000bfa:	0300                	addi	s0,sp,384
 1000bfc:	0000                	unimp
 1000bfe:	0400                	addi	s0,sp,512
 1000c00:	0000                	unimp
 1000c02:	2902                	fld	fs2,0(sp)
 1000c04:	0000                	unimp
 1000c06:	0100                	addi	s0,sp,128
 1000c08:	0000                	unimp
 1000c0a:	0300                	addi	s0,sp,384
 1000c0c:	0000                	unimp
 1000c0e:	0800                	addi	s0,sp,16
 1000c10:	0000                	unimp
 1000c12:	4101                	li	sp,0
 1000c14:	0000                	unimp
 1000c16:	0100                	addi	s0,sp,128
 1000c18:	0000                	unimp
 1000c1a:	0400                	addi	s0,sp,512
 1000c1c:	0000                	unimp
 1000c1e:	0300                	addi	s0,sp,384
 1000c20:	0000                	unimp
 1000c22:	0400                	addi	s0,sp,512
 1000c24:	0000                	unimp
 1000c26:	3602                	fld	fa2,32(sp)
 1000c28:	0000                	unimp
 1000c2a:	2000                	fld	fs0,0(s0)
 1000c2c:	0000                	unimp
 1000c2e:	0300                	addi	s0,sp,384
 1000c30:	0000                	unimp
 1000c32:	0400                	addi	s0,sp,512
 1000c34:	0000                	unimp
 1000c36:	4502                	lw	a0,0(sp)
 1000c38:	0000                	unimp
 1000c3a:	0000                	unimp
 1000c3c:	0000                	unimp
 1000c3e:	0300                	addi	s0,sp,384
 1000c40:	0000                	unimp
 1000c42:	0000                	unimp
 1000c44:	0000                	unimp
 1000c46:	5402                	lw	s0,32(sp)
 1000c48:	0000                	unimp
 1000c4a:	0200                	addi	s0,sp,256
 1000c4c:	0000                	unimp
 1000c4e:	0200                	addi	s0,sp,256
 1000c50:	0000                	unimp
 1000c52:	0100                	addi	s0,sp,128
 1000c54:	7465                	lui	s0,0xffff9
 1000c56:	3068                	fld	fa0,224(s0)
 1000c58:	3440                	fld	fs0,168(s0)
 1000c5a:	30303463          	0x30303463
 1000c5e:	3030                	fld	fa2,96(s0)
 1000c60:	0030                	addi	a2,sp,8
 1000c62:	0000                	unimp
 1000c64:	0000                	unimp
 1000c66:	0300                	addi	s0,sp,384
 1000c68:	0000                	unimp
 1000c6a:	1900                	addi	s0,sp,176
 1000c6c:	0000                	unimp
 1000c6e:	1b00                	addi	s0,sp,432
 1000c70:	6c78                	ld	a4,216(s0)
 1000c72:	786e                	ld	a6,248(sp)
 1000c74:	612c                	ld	a1,64(a0)
 1000c76:	6978                	ld	a4,208(a0)
 1000c78:	652d                	lui	a0,0xb
 1000c7a:	6874                	ld	a3,208(s0)
 1000c7c:	7265                	lui	tp,0xffff9
 1000c7e:	656e                	ld	a0,216(sp)
 1000c80:	2d74                	fld	fa3,216(a0)
 1000c82:	2e31                	addiw	t3,t3,12
 1000c84:	3030                	fld	fa2,96(s0)
 1000c86:	612e                	ld	sp,200(sp)
 1000c88:	0000                	unimp
 1000c8a:	0000                	unimp
 1000c8c:	0000                	unimp
 1000c8e:	0300                	addi	s0,sp,384
 1000c90:	0000                	unimp
 1000c92:	1000                	addi	s0,sp,32
 1000c94:	0000                	unimp
 1000c96:	5e00                	lw	s0,56(a2)
 1000c98:	0000                	unimp
 1000c9a:	0000                	unimp
 1000c9c:	404c                	lw	a1,4(s0)
 1000c9e:	0000                	unimp
 1000ca0:	0000                	unimp
 1000ca2:	0000                	unimp
 1000ca4:	0400                	addi	s0,sp,512
 1000ca6:	0000                	unimp
 1000ca8:	0000                	unimp
 1000caa:	0300                	addi	s0,sp,384
 1000cac:	0000                	unimp
 1000cae:	0800                	addi	s0,sp,16
 1000cb0:	0000                	unimp
 1000cb2:	5501                	li	a0,-32
 1000cb4:	0000                	unimp
 1000cb6:	0200                	addi	s0,sp,256
 1000cb8:	0000                	unimp
 1000cba:	0200                	addi	s0,sp,256
 1000cbc:	0000                	unimp
 1000cbe:	0300                	addi	s0,sp,384
 1000cc0:	0000                	unimp
 1000cc2:	1800                	addi	s0,sp,48
 1000cc4:	0000                	unimp
 1000cc6:	6502                	ld	a0,0(sp)
 1000cc8:	78615f73          	csrrwi	t5,0x786,2
 1000ccc:	5f69                	li	t5,-6
 1000cce:	696c                	ld	a1,208(a0)
 1000cd0:	6574                	ld	a3,200(a0)
 1000cd2:	635f 6b6c 6100      	0x61006b6c635f
 1000cd8:	6978                	ld	a4,208(a0)
 1000cda:	6c635f73          	csrrwi	t5,0x6c6,6
 1000cde:	0000006b          	0x6b
 1000ce2:	0300                	addi	s0,sp,384
 1000ce4:	0000                	unimp
 1000ce6:	1000                	addi	s0,sp,32
 1000ce8:	0000                	unimp
 1000cea:	4101                	li	sp,0
 1000cec:	0000                	unimp
 1000cee:	0100                	addi	s0,sp,128
 1000cf0:	0000                	unimp
 1000cf2:	0100                	addi	s0,sp,128
 1000cf4:	0000                	unimp
 1000cf6:	0100                	addi	s0,sp,128
 1000cf8:	0000                	unimp
 1000cfa:	0600                	addi	s0,sp,768
 1000cfc:	0000                	unimp
 1000cfe:	0300                	addi	s0,sp,384
 1000d00:	0000                	unimp
 1000d02:	0600                	addi	s0,sp,768
 1000d04:	0000                	unimp
 1000d06:	7102                	ld	sp,32(sp)
 1000d08:	0a00                	addi	s0,sp,272
 1000d0a:	0435                	addi	s0,s0,13
 1000d0c:	52e1                	li	t0,-8
 1000d0e:	0000                	unimp
 1000d10:	0000                	unimp
 1000d12:	0300                	addi	s0,sp,384
 1000d14:	0000                	unimp
 1000d16:	0600                	addi	s0,sp,768
 1000d18:	0000                	unimp
 1000d1a:	7702                	ld	a4,32(sp)
 1000d1c:	0a00                	addi	s0,sp,272
 1000d1e:	0435                	addi	s0,s0,13
 1000d20:	52e1                	li	t0,-8
 1000d22:	0000                	unimp
 1000d24:	0000                	unimp
 1000d26:	0300                	addi	s0,sp,384
 1000d28:	0000                	unimp
 1000d2a:	0800                	addi	s0,sp,16
 1000d2c:	0000                	unimp
 1000d2e:	5200                	lw	s0,32(a2)
 1000d30:	656e                	ld	a0,216(sp)
 1000d32:	7774                	ld	a3,232(a4)
 1000d34:	006b726f          	jal	tp,10b7d3a <__spl_src_start+0xaac52>
 1000d38:	0000                	unimp
 1000d3a:	0300                	addi	s0,sp,384
 1000d3c:	0000                	unimp
 1000d3e:	0400                	addi	s0,sp,512
 1000d40:	0000                	unimp
 1000d42:	8302                	jr	t1
 1000d44:	0000                	unimp
 1000d46:	0400                	addi	s0,sp,512
 1000d48:	0000                	unimp
 1000d4a:	0300                	addi	s0,sp,384
 1000d4c:	0000                	unimp
 1000d4e:	0400                	addi	s0,sp,512
 1000d50:	0000                	unimp
 1000d52:	9702                	jalr	a4
 1000d54:	0000                	unimp
 1000d56:	0400                	addi	s0,sp,512
 1000d58:	0000                	unimp
 1000d5a:	0300                	addi	s0,sp,384
 1000d5c:	0000                	unimp
 1000d5e:	0400                	addi	s0,sp,512
 1000d60:	0000                	unimp
 1000d62:	b302                	fsd	ft0,416(sp)
 1000d64:	0000                	unimp
 1000d66:	0500                	addi	s0,sp,640
 1000d68:	0000                	unimp
 1000d6a:	0300                	addi	s0,sp,384
 1000d6c:	0000                	unimp
 1000d6e:	0600                	addi	s0,sp,768
 1000d70:	0000                	unimp
 1000d72:	be02                	fsd	ft0,312(sp)
 1000d74:	696d6773          	csrrsi	a4,0x696,26
 1000d78:	0069                	c.nop	26
 1000d7a:	0000                	unimp
 1000d7c:	0000                	unimp
 1000d7e:	0300                	addi	s0,sp,384
 1000d80:	0000                	unimp
 1000d82:	0400                	addi	s0,sp,512
 1000d84:	0000                	unimp
 1000d86:	c702                	sw	zero,140(sp)
 1000d88:	0000                	unimp
 1000d8a:	0000                	unimp
 1000d8c:	0000                	unimp
 1000d8e:	0300                	addi	s0,sp,384
 1000d90:	0000                	unimp
 1000d92:	0400                	addi	s0,sp,512
 1000d94:	0000                	unimp
 1000d96:	d402                	sw	zero,40(sp)
 1000d98:	0000                	unimp
 1000d9a:	0200                	addi	s0,sp,256
 1000d9c:	0000                	unimp
 1000d9e:	0300                	addi	s0,sp,384
 1000da0:	0000                	unimp
 1000da2:	0400                	addi	s0,sp,512
 1000da4:	0000                	unimp
 1000da6:	e002                	sd	zero,0(sp)
 1000da8:	0000                	unimp
 1000daa:	0010                	0x10
 1000dac:	0000                	unimp
 1000dae:	0300                	addi	s0,sp,384
 1000db0:	0000                	unimp
 1000db2:	0400                	addi	s0,sp,512
 1000db4:	0000                	unimp
 1000db6:	eb02                	sd	zero,400(sp)
 1000db8:	0000                	unimp
 1000dba:	0200                	addi	s0,sp,256
 1000dbc:	0000                	unimp
 1000dbe:	0300                	addi	s0,sp,384
 1000dc0:	0000                	unimp
 1000dc2:	0400                	addi	s0,sp,512
 1000dc4:	0000                	unimp
 1000dc6:	f702                	sd	zero,424(sp)
 1000dc8:	0000                	unimp
 1000dca:	0010                	0x10
 1000dcc:	0000                	unimp
 1000dce:	0100                	addi	s0,sp,128
 1000dd0:	646d                	lui	s0,0x1b
 1000dd2:	6f69                	lui	t5,0x1a
 1000dd4:	0000                	unimp
 1000dd6:	0000                	unimp
 1000dd8:	0000                	unimp
 1000dda:	0300                	addi	s0,sp,384
 1000ddc:	0000                	unimp
 1000dde:	0400                	addi	s0,sp,512
 1000de0:	0000                	unimp
 1000de2:	0000                	unimp
 1000de4:	0000                	unimp
 1000de6:	0100                	addi	s0,sp,128
 1000de8:	0000                	unimp
 1000dea:	0300                	addi	s0,sp,384
 1000dec:	0000                	unimp
 1000dee:	0400                	addi	s0,sp,512
 1000df0:	0000                	unimp
 1000df2:	0f00                	addi	s0,sp,912
 1000df4:	0000                	unimp
 1000df6:	0000                	unimp
 1000df8:	0000                	unimp
 1000dfa:	0100                	addi	s0,sp,128
 1000dfc:	7465                	lui	s0,0xffff9
 1000dfe:	6568                	ld	a0,200(a0)
 1000e00:	6e72                	ld	t3,280(sp)
 1000e02:	7465                	lui	s0,0xffff9
 1000e04:	702d                	c.lui	zero,0xfffeb
 1000e06:	7968                	ld	a0,240(a0)
 1000e08:	3040                	fld	fs0,160(s0)
 1000e0a:	0000                	unimp
 1000e0c:	0000                	unimp
 1000e0e:	0300                	addi	s0,sp,384
 1000e10:	0000                	unimp
 1000e12:	0400                	addi	s0,sp,512
 1000e14:	0000                	unimp
 1000e16:	00000203          	lb	tp,0(zero) # 0 <_start-0x1000000>
 1000e1a:	0100                	addi	s0,sp,128
 1000e1c:	0000                	unimp
 1000e1e:	0300                	addi	s0,sp,384
 1000e20:	0000                	unimp
 1000e22:	0d00                	addi	s0,sp,656
 1000e24:	0000                	unimp
 1000e26:	5200                	lw	s0,32(a2)
 1000e28:	7465                	lui	s0,0xffff9
 1000e2a:	6568                	ld	a0,200(a0)
 1000e2c:	6e72                	ld	t3,280(sp)
 1000e2e:	7465                	lui	s0,0xffff9
 1000e30:	702d                	c.lui	zero,0xfffeb
 1000e32:	7968                	ld	a0,240(a0)
 1000e34:	0000                	unimp
 1000e36:	0000                	unimp
 1000e38:	0000                	unimp
 1000e3a:	0300                	addi	s0,sp,384
 1000e3c:	0000                	unimp
 1000e3e:	0400                	addi	s0,sp,512
 1000e40:	0000                	unimp
 1000e42:	5e00                	lw	s0,56(a2)
 1000e44:	0000                	unimp
 1000e46:	0000                	unimp
 1000e48:	0000                	unimp
 1000e4a:	0200                	addi	s0,sp,256
 1000e4c:	0000                	unimp
 1000e4e:	0100                	addi	s0,sp,128
 1000e50:	7465                	lui	s0,0xffff9
 1000e52:	6568                	ld	a0,200(a0)
 1000e54:	6e72                	ld	t3,280(sp)
 1000e56:	7465                	lui	s0,0xffff9
 1000e58:	702d                	c.lui	zero,0xfffeb
 1000e5a:	7968                	ld	a0,240(a0)
 1000e5c:	3340                	fld	fs0,160(a4)
 1000e5e:	0000                	unimp
 1000e60:	0000                	unimp
 1000e62:	0300                	addi	s0,sp,384
 1000e64:	0000                	unimp
 1000e66:	1b00                	addi	s0,sp,432
 1000e68:	0000                	unimp
 1000e6a:	1b00                	addi	s0,sp,432
 1000e6c:	7465                	lui	s0,0xffff9
 1000e6e:	6568                	ld	a0,200(a0)
 1000e70:	6e72                	ld	t3,280(sp)
 1000e72:	7465                	lui	s0,0xffff9
 1000e74:	702d                	c.lui	zero,0xfffeb
 1000e76:	7968                	ld	a0,240(a0)
 1000e78:	692d                	lui	s2,0xb
 1000e7a:	6565                	lui	a0,0x19
 1000e7c:	3865                	addiw	a6,a6,-7
 1000e7e:	3230                	fld	fa2,96(a2)
 1000e80:	332e                	fld	ft6,232(sp)
 1000e82:	632d                	lui	t1,0xb
 1000e84:	3232                	fld	ft4,296(sp)
 1000e86:	0000                	unimp
 1000e88:	0000                	unimp
 1000e8a:	0300                	addi	s0,sp,384
 1000e8c:	0000                	unimp
 1000e8e:	0400                	addi	s0,sp,512
 1000e90:	0000                	unimp
 1000e92:	5e00                	lw	s0,56(a2)
 1000e94:	0000                	unimp
 1000e96:	0300                	addi	s0,sp,384
 1000e98:	0000                	unimp
 1000e9a:	0300                	addi	s0,sp,384
 1000e9c:	0000                	unimp
 1000e9e:	0400                	addi	s0,sp,512
 1000ea0:	0000                	unimp
 1000ea2:	00000203          	lb	tp,0(zero) # 0 <_start-0x1000000>
 1000ea6:	0100                	addi	s0,sp,128
 1000ea8:	0000                	unimp
 1000eaa:	0300                	addi	s0,sp,384
 1000eac:	0000                	unimp
 1000eae:	0d00                	addi	s0,sp,656
 1000eb0:	0000                	unimp
 1000eb2:	5200                	lw	s0,32(a2)
 1000eb4:	7465                	lui	s0,0xffff9
 1000eb6:	6568                	ld	a0,200(a0)
 1000eb8:	6e72                	ld	t3,280(sp)
 1000eba:	7465                	lui	s0,0xffff9
 1000ebc:	702d                	c.lui	zero,0xfffeb
 1000ebe:	7968                	ld	a0,240(a0)
 1000ec0:	0000                	unimp
 1000ec2:	0000                	unimp
 1000ec4:	0000                	unimp
 1000ec6:	0300                	addi	s0,sp,384
 1000ec8:	0000                	unimp
 1000eca:	0000                	unimp
 1000ecc:	0000                	unimp
 1000ece:	00000d03          	lb	s10,0(zero) # 0 <_start-0x1000000>
 1000ed2:	0300                	addi	s0,sp,384
 1000ed4:	0000                	unimp
 1000ed6:	0000                	unimp
 1000ed8:	0000                	unimp
 1000eda:	00002e03          	lw	t3,0(zero) # 0 <_start-0x1000000>
 1000ede:	0300                	addi	s0,sp,384
 1000ee0:	0000                	unimp
 1000ee2:	0400                	addi	s0,sp,512
 1000ee4:	0000                	unimp
 1000ee6:	6900                	ld	s0,16(a0)
 1000ee8:	0000                	unimp
 1000eea:	0500                	addi	s0,sp,640
 1000eec:	0000                	unimp
 1000eee:	0200                	addi	s0,sp,256
 1000ef0:	0000                	unimp
 1000ef2:	0200                	addi	s0,sp,256
 1000ef4:	0000                	unimp
 1000ef6:	0200                	addi	s0,sp,256
 1000ef8:	0000                	unimp
 1000efa:	0100                	addi	s0,sp,128
 1000efc:	2d636f73          	csrrsi	t5,0x2d6,6
 1000f00:	746e6f63          	bltu	t3,t1,100165e <__spl_start+0x16e>
 1000f04:	6f72                	ld	t5,280(sp)
 1000f06:	406c                	lw	a1,68(s0)
 1000f08:	3032                	fld	ft0,296(sp)
 1000f0a:	3030                	fld	fa2,96(s0)
 1000f0c:	3030                	fld	fa2,96(s0)
 1000f0e:	0030                	addi	a2,sp,8
 1000f10:	0000                	unimp
 1000f12:	0300                	addi	s0,sp,384
 1000f14:	0000                	unimp
 1000f16:	1700                	addi	s0,sp,928
 1000f18:	0000                	unimp
 1000f1a:	1b00                	addi	s0,sp,432
 1000f1c:	7465                	lui	s0,0xffff9
 1000f1e:	2c68                	fld	fa0,216(s0)
 1000f20:	6163636f          	jal	t1,1037536 <__spl_src_start+0x2a44e>
 1000f24:	796d                	lui	s2,0xffffb
 1000f26:	732d                	lui	t1,0xfffeb
 1000f28:	632d636f          	jal	t1,10d755a <__spl_src_start+0xca472>
 1000f2c:	72746e6f          	jal	t3,1047e52 <__spl_src_start+0x3ad6a>
 1000f30:	00006c6f          	jal	s8,1006f30 <__spl_start+0x5a40>
 1000f34:	0000                	unimp
 1000f36:	0300                	addi	s0,sp,384
 1000f38:	0000                	unimp
 1000f3a:	0c00                	addi	s0,sp,528
 1000f3c:	0000                	unimp
 1000f3e:	eb00                	sd	s0,16(a4)
 1000f40:	2d636f73          	csrrsi	t5,0x2d6,6
 1000f44:	746e6f63          	bltu	t3,t1,10016a2 <__spl_start+0x1b2>
 1000f48:	6f72                	ld	t5,280(sp)
 1000f4a:	006c                	addi	a1,sp,12
 1000f4c:	0000                	unimp
 1000f4e:	0300                	addi	s0,sp,384
 1000f50:	0000                	unimp
 1000f52:	1000                	addi	s0,sp,32
 1000f54:	0000                	unimp
 1000f56:	5e00                	lw	s0,56(a2)
 1000f58:	0000                	unimp
 1000f5a:	0000                	unimp
 1000f5c:	0002                	c.slli64	zero
	...
 1000f66:	0010                	0x10
 1000f68:	0000                	unimp
 1000f6a:	0300                	addi	s0,sp,384
 1000f6c:	0000                	unimp
 1000f6e:	0400                	addi	s0,sp,512
 1000f70:	0000                	unimp
 1000f72:	6900                	ld	s0,16(a0)
 1000f74:	0000                	unimp
 1000f76:	0700                	addi	s0,sp,896
 1000f78:	0000                	unimp
 1000f7a:	0200                	addi	s0,sp,256
 1000f7c:	0000                	unimp
 1000f7e:	0100                	addi	s0,sp,128
 1000f80:	7571                	lui	a0,0xffffc
 1000f82:	6461                	lui	s0,0x18
 1000f84:	6172                	ld	sp,280(sp)
 1000f86:	746e                	ld	s0,248(sp)
 1000f88:	632d                	lui	t1,0xb
 1000f8a:	72746e6f          	jal	t3,1047eb0 <__spl_src_start+0x3adc8>
 1000f8e:	62406c6f          	jal	s8,10075b2 <__spl_start+0x60c2>
 1000f92:	3030                	fld	fa2,96(s0)
 1000f94:	3030                	fld	fa2,96(s0)
 1000f96:	3030                	fld	fa2,96(s0)
 1000f98:	0000                	unimp
 1000f9a:	0000                	unimp
 1000f9c:	0000                	unimp
 1000f9e:	0300                	addi	s0,sp,384
 1000fa0:	0000                	unimp
 1000fa2:	1c00                	addi	s0,sp,560
 1000fa4:	0000                	unimp
 1000fa6:	1b00                	addi	s0,sp,432
 1000fa8:	7465                	lui	s0,0xffff9
 1000faa:	2c68                	fld	fa0,216(s0)
 1000fac:	6163636f          	jal	t1,10375c2 <__spl_src_start+0x2a4da>
 1000fb0:	796d                	lui	s2,0xffffb
 1000fb2:	712d                	addi	sp,sp,-288
 1000fb4:	6175                	addi	sp,sp,368
 1000fb6:	7264                	ld	s1,224(a2)
 1000fb8:	6e61                	lui	t3,0x18
 1000fba:	2d74                	fld	fa3,216(a0)
 1000fbc:	746e6f63          	bltu	t3,t1,100171a <__spl_start+0x22a>
 1000fc0:	6f72                	ld	t5,280(sp)
 1000fc2:	006c                	addi	a1,sp,12
 1000fc4:	0000                	unimp
 1000fc6:	0300                	addi	s0,sp,384
 1000fc8:	0000                	unimp
 1000fca:	1100                	addi	s0,sp,160
 1000fcc:	0000                	unimp
 1000fce:	eb00                	sd	s0,16(a4)
 1000fd0:	7571                	lui	a0,0xffffc
 1000fd2:	6461                	lui	s0,0x18
 1000fd4:	6172                	ld	sp,280(sp)
 1000fd6:	746e                	ld	s0,248(sp)
 1000fd8:	632d                	lui	t1,0xb
 1000fda:	72746e6f          	jal	t3,1047f00 <__spl_src_start+0x3ae18>
 1000fde:	00006c6f          	jal	s8,1006fde <__spl_start+0x5aee>
 1000fe2:	0000                	unimp
 1000fe4:	0000                	unimp
 1000fe6:	0300                	addi	s0,sp,384
 1000fe8:	0000                	unimp
 1000fea:	1000                	addi	s0,sp,32
 1000fec:	0000                	unimp
 1000fee:	5e00                	lw	s0,56(a2)
 1000ff0:	0000                	unimp
 1000ff2:	0000                	unimp
 1000ff4:	0000000b          	0xb
 1000ff8:	0000                	unimp
 1000ffa:	0000                	unimp
 1000ffc:	0100                	addi	s0,sp,128
 1000ffe:	0000                	unimp
 1001000:	0000                	unimp
 1001002:	0300                	addi	s0,sp,384
 1001004:	0000                	unimp
 1001006:	0400                	addi	s0,sp,512
 1001008:	0000                	unimp
 100100a:	6900                	ld	s0,16(a0)
 100100c:	0000                	unimp
 100100e:	0800                	addi	s0,sp,16
 1001010:	0000                	unimp
 1001012:	0200                	addi	s0,sp,256
 1001014:	0000                	unimp
 1001016:	0100                	addi	s0,sp,128
 1001018:	74696e73          	csrrsi	t3,0x746,18
 100101c:	632d6863          	bltu	s10,s2,100164c <__spl_start+0x15c>
 1001020:	756c                	ld	a1,232(a0)
 1001022:	72657473          	csrrci	s0,0x726,10
 1001026:	3140                	fld	fs0,160(a0)
 1001028:	3030                	fld	fa2,96(s0)
 100102a:	3030                	fld	fa2,96(s0)
 100102c:	3030                	fld	fa2,96(s0)
 100102e:	0030                	addi	a2,sp,8
 1001030:	0000                	unimp
 1001032:	0300                	addi	s0,sp,384
 1001034:	0000                	unimp
 1001036:	1300                	addi	s0,sp,416
 1001038:	0000                	unimp
 100103a:	1b00                	addi	s0,sp,432
 100103c:	7465                	lui	s0,0xffff9
 100103e:	2c68                	fld	fa0,216(s0)
 1001040:	74696e73          	csrrsi	t3,0x746,18
 1001044:	632d6863          	bltu	s10,s2,1001674 <__spl_start+0x184>
 1001048:	756c                	ld	a1,232(a0)
 100104a:	72657473          	csrrci	s0,0x726,10
 100104e:	0000                	unimp
 1001050:	0000                	unimp
 1001052:	0300                	addi	s0,sp,384
 1001054:	0000                	unimp
 1001056:	1000                	addi	s0,sp,32
 1001058:	0000                	unimp
 100105a:	eb00                	sd	s0,16(a4)
 100105c:	6374                	ld	a3,192(a4)
 100105e:	6d64                	ld	s1,216(a0)
 1001060:	7000                	ld	s0,32(s0)
 1001062:	7265                	lui	tp,0xffff9
 1001064:	7069                	c.lui	zero,0xffffa
 1001066:	6568                	ld	a0,200(a0)
 1001068:	6172                	ld	sp,280(sp)
 100106a:	006c                	addi	a1,sp,12
 100106c:	0000                	unimp
 100106e:	0300                	addi	s0,sp,384
 1001070:	0000                	unimp
 1001072:	2000                	fld	fs0,0(s0)
 1001074:	0000                	unimp
 1001076:	5e00                	lw	s0,56(a2)
 1001078:	0000                	unimp
 100107a:	0000                	unimp
 100107c:	0010                	0x10
 100107e:	0000                	unimp
 1001080:	0000                	unimp
 1001082:	0000                	unimp
 1001084:	0200                	addi	s0,sp,256
 1001086:	0000                	unimp
 1001088:	0000                	unimp
 100108a:	0000                	unimp
 100108c:	0210                	addi	a2,sp,256
 100108e:	0000                	unimp
 1001090:	0000                	unimp
 1001092:	0000                	unimp
 1001094:	0200                	addi	s0,sp,256
 1001096:	0000                	unimp
 1001098:	0000                	unimp
 100109a:	0300                	addi	s0,sp,384
 100109c:	0000                	unimp
 100109e:	0400                	addi	s0,sp,512
 10010a0:	0000                	unimp
 10010a2:	00004c03          	lbu	s8,0(zero) # 0 <_start-0x1000000>
 10010a6:	0600                	addi	s0,sp,768
 10010a8:	0000                	unimp
 10010aa:	0300                	addi	s0,sp,384
 10010ac:	0000                	unimp
 10010ae:	0400                	addi	s0,sp,512
 10010b0:	0000                	unimp
 10010b2:	00005a03          	lhu	s4,0(zero) # 0 <_start-0x1000000>
 10010b6:	0800                	addi	s0,sp,16
 10010b8:	0000                	unimp
 10010ba:	0300                	addi	s0,sp,384
 10010bc:	0000                	unimp
 10010be:	0400                	addi	s0,sp,512
 10010c0:	0000                	unimp
 10010c2:	00006c03          	lwu	s8,0(zero) # 0 <_start-0x1000000>
 10010c6:	0100                	addi	s0,sp,128
 10010c8:	0000                	unimp
 10010ca:	0300                	addi	s0,sp,384
 10010cc:	0000                	unimp
 10010ce:	0400                	addi	s0,sp,512
 10010d0:	0000                	unimp
 10010d2:	00007903          	0x7903
 10010d6:	0000                	unimp
 10010d8:	0000                	unimp
 10010da:	0300                	addi	s0,sp,384
 10010dc:	0000                	unimp
 10010de:	0400                	addi	s0,sp,512
 10010e0:	0000                	unimp
 10010e2:	00008a03          	lb	s4,0(ra)
 10010e6:	0000                	unimp
 10010e8:	0000                	unimp
 10010ea:	0300                	addi	s0,sp,384
 10010ec:	0000                	unimp
 10010ee:	0400                	addi	s0,sp,512
 10010f0:	0000                	unimp
 10010f2:	00009a03          	lh	s4,0(ra)
 10010f6:	0700                	addi	s0,sp,896
 10010f8:	0000                	unimp
 10010fa:	0300                	addi	s0,sp,384
 10010fc:	0000                	unimp
 10010fe:	0400                	addi	s0,sp,512
 1001100:	0000                	unimp
 1001102:	0000a603          	lw	a2,0(ra)
 1001106:	0800                	addi	s0,sp,16
 1001108:	0000                	unimp
 100110a:	0300                	addi	s0,sp,384
 100110c:	0000                	unimp
 100110e:	0400                	addi	s0,sp,512
 1001110:	0000                	unimp
 1001112:	0000b803          	ld	a6,0(ra)
 1001116:	0900                	addi	s0,sp,144
 1001118:	0000                	unimp
 100111a:	0200                	addi	s0,sp,256
 100111c:	0000                	unimp
 100111e:	0200                	addi	s0,sp,256
 1001120:	0000                	unimp
 1001122:	0200                	addi	s0,sp,256
 1001124:	0000                	unimp
 1001126:	0900                	addi	s0,sp,144
 1001128:	64646123          	0x64646123
 100112c:	6572                	ld	a0,280(sp)
 100112e:	632d7373          	csrrci	t1,0x632,26
 1001132:	6c65                	lui	s8,0x19
 1001134:	736c                	ld	a1,224(a4)
 1001136:	2300                	fld	fs0,0(a4)
 1001138:	657a6973          	csrrsi	s2,0x657,20
 100113c:	632d                	lui	t1,0xb
 100113e:	6c65                	lui	s8,0x19
 1001140:	736c                	ld	a1,224(a4)
 1001142:	6300                	ld	s0,0(a4)
 1001144:	61706d6f          	jal	s10,1007f5a <__spl_start+0x6a6a>
 1001148:	6974                	ld	a3,208(a0)
 100114a:	6c62                	ld	s8,24(sp)
 100114c:	0065                	c.nop	25
 100114e:	6f6d                	lui	t5,0x1b
 1001150:	6564                	ld	s1,200(a0)
 1001152:	006c                	addi	a1,sp,12
 1001154:	2d75                	addiw	s10,s10,29
 1001156:	6f62                	ld	t5,24(sp)
 1001158:	732c746f          	jal	s0,10c888a <__spl_src_start+0xbb7a2>
 100115c:	6c70                	ld	a2,216(s0)
 100115e:	702d                	c.lui	zero,0xfffeb
 1001160:	7961                	lui	s2,0xffff8
 1001162:	6f6c                	ld	a1,216(a4)
 1001164:	6461                	lui	s0,0x18
 1001166:	6f2d                	lui	t5,0xb
 1001168:	6666                	ld	a2,88(sp)
 100116a:	00746573          	csrrsi	a0,0x7,8
 100116e:	6f647473          	csrrci	s0,0x6f6,8
 1001172:	7475                	lui	s0,0xffffd
 1001174:	702d                	c.lui	zero,0xfffeb
 1001176:	7461                	lui	s0,0xffff8
 1001178:	0068                	addi	a0,sp,12
 100117a:	6564                	ld	s1,200(a0)
 100117c:	6976                	ld	s2,344(sp)
 100117e:	745f6563          	bltu	t5,t0,10018c8 <__spl_start+0x3d8>
 1001182:	7079                	c.lui	zero,0xffffe
 1001184:	0065                	c.nop	25
 1001186:	6572                	ld	a0,280(sp)
 1001188:	61720067          	jr	1559(tp) # 0 <_start-0x1000000>
 100118c:	676e                	ld	a4,216(sp)
 100118e:	7365                	lui	t1,0xffff9
 1001190:	7000                	ld	s0,32(s0)
 1001192:	6168                	ld	a0,192(a0)
 1001194:	646e                	ld	s0,216(sp)
 1001196:	656c                	ld	a1,200(a0)
 1001198:	7400                	ld	s0,40(s0)
 100119a:	6d69                	lui	s10,0x1a
 100119c:	6265                	lui	tp,0x19
 100119e:	7361                	lui	t1,0xffff8
 10011a0:	2d65                	addiw	s10,s10,25
 10011a2:	7266                	ld	tp,120(sp)
 10011a4:	7165                	addi	sp,sp,-400
 10011a6:	6575                	lui	a0,0x1d
 10011a8:	636e                	ld	t1,216(sp)
 10011aa:	0079                	c.nop	30
 10011ac:	74617473          	csrrci	s0,0x746,2
 10011b0:	7375                	lui	t1,0xffffd
 10011b2:	6300                	ld	s0,0(a4)
 10011b4:	6f6c                	ld	a1,216(a4)
 10011b6:	662d6b63          	bltu	s10,sp,100182c <__spl_start+0x33c>
 10011ba:	6572                	ld	a0,280(sp)
 10011bc:	7571                	lui	a0,0xffffc
 10011be:	6e65                	lui	t3,0x19
 10011c0:	72007963          	bgeu	zero,zero,10018f2 <__spl_start+0x402>
 10011c4:	7369                	lui	t1,0xffffa
 10011c6:	692c7663          	bgeu	s8,s2,1001852 <__spl_start+0x362>
 10011ca:	6d006173          	csrrsi	sp,0x6d0,0
 10011ce:	756d                	lui	a0,0xffffb
 10011d0:	742d                	lui	s0,0xfffeb
 10011d2:	7079                	c.lui	zero,0xffffe
 10011d4:	0065                	c.nop	25
 10011d6:	6c74                	ld	a3,216(s0)
 10011d8:	2d62                	fld	fs10,24(sp)
 10011da:	696c7073          	csrci	0x696,24
 10011de:	0074                	addi	a3,sp,12
 10011e0:	746e6923          	0x746e6923
 10011e4:	7265                	lui	tp,0xffff9
 10011e6:	7572                	ld	a0,312(sp)
 10011e8:	7470                	ld	a2,232(s0)
 10011ea:	632d                	lui	t1,0xb
 10011ec:	6c65                	lui	s8,0x19
 10011ee:	736c                	ld	a1,224(a4)
 10011f0:	6900                	ld	s0,16(a0)
 10011f2:	746e                	ld	s0,248(sp)
 10011f4:	7265                	lui	tp,0xffff9
 10011f6:	7572                	ld	a0,312(sp)
 10011f8:	7470                	ld	a2,232(s0)
 10011fa:	632d                	lui	t1,0xb
 10011fc:	72746e6f          	jal	t3,1048122 <__spl_src_start+0x3b03a>
 1001200:	656c6c6f          	jal	s8,10c7856 <__spl_src_start+0xba76e>
 1001204:	0072                	c.slli	zero,0x1c
 1001206:	6f6c6323          	0x6f6c6323
 100120a:	632d6b63          	bltu	s10,s2,1001840 <__spl_start+0x350>
 100120e:	6c65                	lui	s8,0x19
 1001210:	736c                	ld	a1,224(a4)
 1001212:	7200                	ld	s0,32(a2)
 1001214:	6765                	lui	a4,0x19
 1001216:	6e2d                	lui	t3,0xb
 1001218:	6d61                	lui	s10,0x18
 100121a:	7365                	lui	t1,0xffff9
 100121c:	6300                	ld	s0,0(a4)
 100121e:	7275                	lui	tp,0xffffd
 1001220:	6572                	ld	a0,280(sp)
 1001222:	746e                	ld	s0,248(sp)
 1001224:	732d                	lui	t1,0xfffeb
 1001226:	6570                	ld	a2,200(a0)
 1001228:	6465                	lui	s0,0x19
 100122a:	6900                	ld	s0,16(a0)
 100122c:	746e                	ld	s0,248(sp)
 100122e:	7265                	lui	tp,0xffff9
 1001230:	7572                	ld	a0,312(sp)
 1001232:	7470                	ld	a2,232(s0)
 1001234:	702d                	c.lui	zero,0xfffeb
 1001236:	7261                	lui	tp,0xffff8
 1001238:	6e65                	lui	t3,0x19
 100123a:	0074                	addi	a3,sp,12
 100123c:	6e69                	lui	t3,0x1a
 100123e:	6574                	ld	a3,200(a0)
 1001240:	7272                	ld	tp,312(sp)
 1001242:	7075                	c.lui	zero,0xffffd
 1001244:	7374                	ld	a3,224(a4)
 1001246:	7200                	ld	s0,32(a2)
 1001248:	6765                	lui	a4,0x19
 100124a:	6f2d                	lui	t5,0xb
 100124c:	6666                	ld	a2,88(sp)
 100124e:	00746573          	csrrsi	a0,0x7,8
 1001252:	6572                	ld	a0,280(sp)
 1001254:	68732d67          	0x68732d67
 1001258:	6669                	lui	a2,0x1a
 100125a:	0074                	addi	a3,sp,12
 100125c:	6572                	ld	a0,280(sp)
 100125e:	6f692d67          	0x6f692d67
 1001262:	772d                	lui	a4,0xfffeb
 1001264:	6469                	lui	s0,0x1a
 1001266:	6874                	ld	a3,208(s0)
 1001268:	6900                	ld	s0,16(a0)
 100126a:	746e                	ld	s0,248(sp)
 100126c:	7265                	lui	tp,0xffff9
 100126e:	7572                	ld	a0,312(sp)
 1001270:	7470                	ld	a2,232(s0)
 1001272:	78652d73          	csrrs	s10,0x786,a0
 1001276:	6574                	ld	a3,200(a0)
 1001278:	646e                	ld	s0,216(sp)
 100127a:	6465                	lui	s0,0x19
 100127c:	6300                	ld	s0,0(a4)
 100127e:	6f6c                	ld	a1,216(a4)
 1001280:	00736b63          	bltu	t1,t2,1001296 <device_tree+0x1206>
 1001284:	6c78                	ld	a4,216(s0)
 1001286:	786e                	ld	a6,248(sp)
 1001288:	6e2c                	ld	a1,88(a2)
 100128a:	6d75                	lui	s10,0x1d
 100128c:	732d                	lui	t1,0xfffeb
 100128e:	69622d73          	csrrs	s10,0x696,tp
 1001292:	7374                	ld	a3,224(a4)
 1001294:	7800                	ld	s0,48(s0)
 1001296:	6e6c                	ld	a1,216(a2)
 1001298:	2c78                	fld	fa4,216(s0)
 100129a:	756e                	ld	a0,248(sp)
 100129c:	2d6d                	addiw	s10,s10,27
 100129e:	7274                	ld	a3,224(a2)
 10012a0:	6e61                	lui	t3,0x18
 10012a2:	72656673          	csrrsi	a2,0x726,10
 10012a6:	622d                	lui	tp,0xb
 10012a8:	7469                	lui	s0,0xffffa
 10012aa:	69660073          	0x69660073
 10012ae:	6f66                	ld	t5,88(sp)
 10012b0:	732d                	lui	t1,0xfffeb
 10012b2:	7a69                	lui	s4,0xffffa
 10012b4:	0065                	c.nop	25
 10012b6:	2d697073          	csrci	0x2d6,18
 10012ba:	616d                	addi	sp,sp,240
 10012bc:	2d78                	fld	fa4,216(a0)
 10012be:	7266                	ld	tp,120(sp)
 10012c0:	7165                	addi	sp,sp,-400
 10012c2:	6575                	lui	a0,0x1d
 10012c4:	636e                	ld	t1,216(sp)
 10012c6:	0079                	c.nop	30
 10012c8:	2d697073          	csrci	0x2d6,18
 10012cc:	7872                	ld	a6,312(sp)
 10012ce:	622d                	lui	tp,0xb
 10012d0:	7375                	lui	t1,0xffffd
 10012d2:	772d                	lui	a4,0xfffeb
 10012d4:	6469                	lui	s0,0x1a
 10012d6:	6874                	ld	a3,208(s0)
 10012d8:	7300                	ld	s0,32(a4)
 10012da:	6970                	ld	a2,208(a0)
 10012dc:	742d                	lui	s0,0xfffeb
 10012de:	2d78                	fld	fa4,216(a0)
 10012e0:	7562                	ld	a0,56(sp)
 10012e2:	69772d73          	csrrs	s10,0x697,a4
 10012e6:	7464                	ld	s1,232(s0)
 10012e8:	0068                	addi	a0,sp,12
 10012ea:	326d                	addiw	tp,tp,-5
 10012ec:	7035                	c.lui	zero,0xfffed
 10012ee:	662c                	ld	a1,72(a2)
 10012f0:	7361                	lui	t1,0xffff8
 10012f2:	2d74                	fld	fa3,216(a0)
 10012f4:	6572                	ld	a0,280(sp)
 10012f6:	6461                	lui	s0,0x18
 10012f8:	6c00                	ld	s0,24(s0)
 10012fa:	6261                	lui	tp,0x18
 10012fc:	6c65                	lui	s8,0x19
 10012fe:	7200                	ld	s0,32(a2)
 1001300:	6165                	addi	sp,sp,112
 1001302:	2d64                	fld	fs1,216(a0)
 1001304:	796c6e6f          	jal	t3,10c7a9a <__spl_src_start+0xba9b2>
 1001308:	7200                	ld	s0,32(a2)
 100130a:	7369                	lui	t1,0xffffa
 100130c:	6d2c7663          	bgeu	s8,s2,10019d8 <__spl_start+0x4e8>
 1001310:	7861                	lui	a6,0xffff8
 1001312:	702d                	c.lui	zero,0xfffeb
 1001314:	6972                	ld	s2,280(sp)
 1001316:	7469726f          	jal	tp,1098a5c <__spl_src_start+0x8b974>
 100131a:	0079                	c.nop	30
 100131c:	6972                	ld	s2,280(sp)
 100131e:	2c766373          	csrrsi	t1,0x2c7,12
 1001322:	646e                	ld	s0,216(sp)
 1001324:	7665                	lui	a2,0xffff9
 1001326:	2300                	fld	fs0,0(a4)
 1001328:	6d64                	ld	s1,216(a0)
 100132a:	2d61                	addiw	s10,s10,24
 100132c:	6c6c6563          	bltu	s8,t1,10019f6 <__spl_start+0x506>
 1001330:	6c780073          	0x6c780073
 1001334:	786e                	ld	a6,248(sp)
 1001336:	612c                	ld	a1,64(a0)
 1001338:	6464                	ld	s1,200(s0)
 100133a:	7772                	ld	a4,312(sp)
 100133c:	6469                	lui	s0,0x1a
 100133e:	6874                	ld	a3,208(s0)
 1001340:	7800                	ld	s0,48(s0)
 1001342:	6e6c                	ld	a1,216(a2)
 1001344:	2c78                	fld	fa4,216(s0)
 1001346:	6e69                	lui	t3,0x1a
 1001348:	64756c63          	bltu	a0,t2,10019a0 <__spl_start+0x4b0>
 100134c:	2d65                	addiw	s10,s10,25
 100134e:	64006773          	csrrsi	a4,0x640,0
 1001352:	616d                	addi	sp,sp,240
 1001354:	632d                	lui	t1,0xb
 1001356:	6168                	ld	a0,192(a0)
 1001358:	6e6e                	ld	t3,216(sp)
 100135a:	6c65                	lui	s8,0x19
 100135c:	6c780073          	0x6c780073
 1001360:	786e                	ld	a6,248(sp)
 1001362:	642c                	ld	a1,72(s0)
 1001364:	7461                	lui	s0,0xffff8
 1001366:	7761                	lui	a4,0xffff8
 1001368:	6469                	lui	s0,0x1a
 100136a:	6874                	ld	a3,208(s0)
 100136c:	7800                	ld	s0,48(s0)
 100136e:	6e6c                	ld	a1,216(a2)
 1001370:	2c78                	fld	fa4,216(s0)
 1001372:	6564                	ld	s1,200(a0)
 1001374:	6976                	ld	s2,344(sp)
 1001376:	692d6563          	bltu	s10,s2,1001a00 <__spl_start+0x510>
 100137a:	0064                	addi	s1,sp,12
 100137c:	6c78                	ld	a4,216(s0)
 100137e:	786e                	ld	a6,248(sp)
 1001380:	692c                	ld	a1,80(a0)
 1001382:	636e                	ld	t1,216(sp)
 1001384:	756c                	ld	a1,232(a0)
 1001386:	6564                	ld	s1,200(a0)
 1001388:	642d                	lui	s0,0xb
 100138a:	6572                	ld	a0,280(sp)
 100138c:	6300                	ld	s0,0(a4)
 100138e:	6f6c                	ld	a1,216(a4)
 1001390:	6e2d6b63          	bltu	s10,sp,1001a86 <__spl_start+0x596>
 1001394:	6d61                	lui	s10,0x18
 1001396:	7365                	lui	t1,0xffff9
 1001398:	6c00                	ld	s0,24(s0)
 100139a:	6c61636f          	jal	t1,1017a60 <__spl_src_start+0xa978>
 100139e:	6d2d                	lui	s10,0xb
 10013a0:	6361                	lui	t1,0x18
 10013a2:	612d                	addi	sp,sp,224
 10013a4:	6464                	ld	s1,200(s0)
 10013a6:	6572                	ld	a0,280(sp)
 10013a8:	61007373          	csrrci	t1,0x610,0
 10013ac:	6978                	ld	a4,208(a0)
 10013ae:	65727473          	csrrci	s0,0x657,4
 10013b2:	6d61                	lui	s10,0x18
 10013b4:	632d                	lui	t1,0xb
 10013b6:	656e6e6f          	jal	t3,10e7a0c <__spl_src_start+0xda924>
 10013ba:	64657463          	bgeu	a0,t1,1001a02 <__spl_start+0x512>
 10013be:	6100                	ld	s0,0(a0)
 10013c0:	6978                	ld	a4,208(a0)
 10013c2:	65727473          	csrrci	s0,0x657,4
 10013c6:	6d61                	lui	s10,0x18
 10013c8:	632d                	lui	t1,0xb
 10013ca:	72746e6f          	jal	t3,10482f0 <__spl_src_start+0x3b208>
 10013ce:	632d6c6f          	jal	s8,10d7a00 <__spl_src_start+0xca918>
 10013d2:	656e6e6f          	jal	t3,10e7a28 <__spl_src_start+0xda940>
 10013d6:	64657463          	bgeu	a0,t1,1001a1e <__spl_start+0x52e>
 10013da:	7000                	ld	s0,32(s0)
 10013dc:	7968                	ld	a0,240(a0)
 10013de:	682d                	lui	a6,0xb
 10013e0:	6e61                	lui	t3,0x18
 10013e2:	6c64                	ld	s1,216(s0)
 10013e4:	0065                	c.nop	25
 10013e6:	6870                	ld	a2,208(s0)
 10013e8:	2d79                	addiw	s10,s10,30
 10013ea:	6f6d                	lui	t5,0x1b
 10013ec:	6564                	ld	s1,200(a0)
 10013ee:	7800                	ld	s0,48(s0)
 10013f0:	6e6c                	ld	a1,216(a2)
 10013f2:	2c78                	fld	fa4,216(s0)
 10013f4:	6870                	ld	a2,208(s0)
 10013f6:	6179                	addi	sp,sp,464
 10013f8:	6464                	ld	s1,200(s0)
 10013fa:	0072                	c.slli	zero,0x1c
 10013fc:	6c78                	ld	a4,216(s0)
 10013fe:	786e                	ld	a6,248(sp)
 1001400:	722c                	ld	a1,96(a2)
 1001402:	6378                	ld	a4,192(a4)
 1001404:	006d7573          	csrrci	a0,0x6,26
 1001408:	6c78                	ld	a4,216(s0)
 100140a:	786e                	ld	a6,248(sp)
 100140c:	722c                	ld	a1,96(a2)
 100140e:	6d78                	ld	a4,216(a0)
 1001410:	6d65                	lui	s10,0x19
 1001412:	7800                	ld	s0,48(s0)
 1001414:	6e6c                	ld	a1,216(a2)
 1001416:	2c78                	fld	fa4,216(s0)
 1001418:	7874                	ld	a3,240(s0)
 100141a:	6d757363          	bgeu	a0,s7,1001ae0 <__spl_start+0x5f0>
 100141e:	7800                	ld	s0,48(s0)
 1001420:	6e6c                	ld	a1,216(a2)
 1001422:	2c78                	fld	fa4,216(s0)
 1001424:	7874                	ld	a3,240(s0)
 1001426:	656d                	lui	a0,0x1b
 1001428:	006d                	c.nop	27
 100142a:	79687023          	0x79687023
 100142e:	632d                	lui	t1,0xb
 1001430:	6c65                	lui	s8,0x19
 1001432:	736c                	ld	a1,224(a4)
 1001434:	7400                	ld	s0,40(s0)
 1001436:	2c69                	addiw	s8,s8,26
 1001438:	696d6773          	csrrsi	a4,0x696,26
 100143c:	2d69                	addiw	s10,s10,26
 100143e:	6572                	ld	a0,280(sp)
 1001440:	2d66                	fld	fs10,88(sp)
 1001442:	636f6c63          	bltu	t5,s6,1001a7a <__spl_start+0x58a>
 1001446:	756f2d6b          	0x756f2d6b
 100144a:	7074                	ld	a3,224(s0)
 100144c:	7475                	lui	s0,0xffffd
 100144e:	652d                	lui	a0,0xb
 1001450:	616e                	ld	sp,216(sp)
 1001452:	6c62                	ld	s8,24(sp)
 1001454:	0065                	c.nop	25
 1001456:	6974                	ld	a3,208(a0)
 1001458:	642c                	ld	a1,72(s0)
 100145a:	3870                	fld	fa2,240(s0)
 100145c:	37363833          	0x37363833
 1001460:	722d                	lui	tp,0xfffeb
 1001462:	6378                	ld	a4,192(a4)
 1001464:	7274                	ld	a3,224(a2)
 1001466:	2d6c                	fld	fa1,216(a0)
 1001468:	61727473          	csrrci	s0,0x617,4
 100146c:	2d70                	fld	fa2,216(a0)
 100146e:	7571                	lui	a0,0xffffc
 1001470:	7269                	lui	tp,0xffffa
 1001472:	656d006b          	0x656d006b
 1001476:	6f6d                	lui	t5,0x1b
 1001478:	7972                	ld	s2,312(sp)
 100147a:	722d                	lui	tp,0xfffeb
 100147c:	6765                	lui	a4,0x19
 100147e:	6f69                	lui	t5,0x1a
 1001480:	006e                	c.slli	zero,0x1b
 1001482:	7465                	lui	s0,0xffff9
 1001484:	2c68                	fld	fa0,216(s0)
 1001486:	706d6f63          	bltu	s10,t1,1001ba4 <__spl_start+0x6b4>
 100148a:	7475                	lui	s0,0xffffd
 100148c:	2d65                	addiw	s10,s10,25
 100148e:	65726f63          	bltu	tp,s7,1001aec <__spl_start+0x5fc>
 1001492:	74650073          	0x74650073
 1001496:	2c68                	fld	fa0,216(s0)
 1001498:	6d64                	ld	s1,216(a0)
 100149a:	632d                	lui	t1,0xb
 100149c:	7365726f          	jal	tp,1058bd2 <__spl_src_start+0x4baea>
 10014a0:	6500                	ld	s0,8(a0)
 10014a2:	6874                	ld	a3,208(s0)
 10014a4:	712c                	ld	a1,96(a0)
 10014a6:	6175                	addi	sp,sp,368
 10014a8:	7264                	ld	s1,224(a2)
 10014aa:	6e61                	lui	t3,0x18
 10014ac:	2d74                	fld	fa3,216(a0)
 10014ae:	6469                	lui	s0,0x1a
 10014b0:	0078                	addi	a4,sp,12
 10014b2:	7465                	lui	s0,0xffff9
 10014b4:	2c68                	fld	fa0,216(s0)
 10014b6:	73756c63          	bltu	a0,s7,1001bee <__spl_start+0x6fe>
 10014ba:	6574                	ld	a3,200(a0)
 10014bc:	2d72                	fld	fs10,280(sp)
 10014be:	6469                	lui	s0,0x1a
 10014c0:	0078                	addi	a4,sp,12
 10014c2:	7465                	lui	s0,0xffff9
 10014c4:	2c68                	fld	fa0,216(s0)
 10014c6:	2d636f73          	csrrsi	t5,0x2d6,6
 10014ca:	006c7463          	bgeu	s8,t1,10014d2 <device_tree+0x1442>
 10014ce:	7465                	lui	s0,0xffff9
 10014d0:	2c68                	fld	fa0,216(s0)
 10014d2:	7571                	lui	a0,0xffffc
 10014d4:	6461                	lui	s0,0x18
 10014d6:	6172                	ld	sp,280(sp)
 10014d8:	746e                	ld	s0,248(sp)
 10014da:	632d                	lui	t1,0xb
 10014dc:	7274                	ld	a3,224(a2)
 10014de:	006c                	addi	a1,sp,12
 10014e0:	7465                	lui	s0,0xffff9
 10014e2:	2c68                	fld	fa0,216(s0)
 10014e4:	6e696c63          	bltu	s2,t1,1001bdc <__spl_start+0x6ec>
 10014e8:	0074                	addi	a3,sp,12
 10014ea:	0000                	unimp
 10014ec:	0000                	unimp
	...

00000000010014f0 <__spl_start>:
 10014f0:	f1402573          	csrr	a0,mhartid
 10014f4:	822a                	mv	tp,a0
 10014f6:	84ae                	mv	s1,a1
 10014f8:	00000193          	li	gp,0
 10014fc:	0000b297          	auipc	t0,0xb
 1001500:	c8c2b283          	ld	t0,-884(t0) # 100c188 <__spl_start+0xac98>
 1001504:	30529073          	csrw	mtvec,t0
 1001508:	30401073          	csrw	mie,zero
 100150c:	42a1                	li	t0,8
 100150e:	22525c63          	bge	tp,t0,1001746 <__spl_start+0x256>
 1001512:	42a1                	li	t0,8
 1001514:	3042a073          	csrs	mie,t0
 1001518:	52c1                	li	t0,-16
 100151a:	70018337          	lui	t1,0x70018
 100151e:	00537133          	and	sp,t1,t0
 1001522:	850a                	mv	a0,sp
 1001524:	5f8010ef          	jal	ra,1002b1c <__spl_start+0x162c>
 1001528:	842a                	mv	s0,a0
 100152a:	00e21293          	slli	t0,tp,0xe
 100152e:	40550133          	sub	sp,a0,t0
 1001532:	2f2000ef          	jal	ra,1001824 <__spl_start+0x334>
 1001536:	0000b297          	auipc	t0,0xb
 100153a:	cb22b283          	ld	t0,-846(t0) # 100c1e8 <__spl_start+0xacf8>
 100153e:	4305                	li	t1,1
 1001540:	0862a92f          	amoswap.w	s2,t1,(t0)
 1001544:	02091463          	bnez	s2,100156c <__spl_start+0x7c>
 1001548:	0000b297          	auipc	t0,0xb
 100154c:	c782b283          	ld	t0,-904(t0) # 100c1c0 <__spl_start+0xacd0>
 1001550:	0092b023          	sd	s1,0(t0)
 1001554:	5d4010ef          	jal	ra,1002b28 <__spl_start+0x1638>
 1001558:	1491b423          	sd	s1,328(gp)
 100155c:	1441b023          	sd	tp,320(gp)
 1001560:	0000b297          	auipc	t0,0xb
 1001564:	b882b283          	ld	t0,-1144(t0) # 100c0e8 <__spl_start+0xabf8>
 1001568:	0a02a02f          	amoswap.w.rl	zero,zero,(t0)
 100156c:	0000b297          	auipc	t0,0xb
 1001570:	b7c2b283          	ld	t0,-1156(t0) # 100c0e8 <__spl_start+0xabf8>
 1001574:	4305                	li	t1,1
 1001576:	0c62a32f          	amoswap.w.aq	t1,t1,(t0)
 100157a:	fe031ee3          	bnez	t1,1001576 <__spl_start+0x86>
 100157e:	81a2                	mv	gp,s0
 1001580:	4305                	li	t1,1
 1001582:	00431333          	sll	t1,t1,tp
 1001586:	2581b383          	ld	t2,600(gp)
 100158a:	0063e3b3          	or	t2,t2,t1
 100158e:	2471bc23          	sd	t2,600(gp)
 1001592:	0a02a02f          	amoswap.w.rl	zero,zero,(t0)
 1001596:	1c091063          	bnez	s2,1001756 <__spl_start+0x266>
 100159a:	332000ef          	jal	ra,10018cc <__spl_start+0x3dc>
 100159e:	330000ef          	jal	ra,10018ce <__spl_start+0x3de>
 10015a2:	00000513          	li	a0,0
 10015a6:	0000bf17          	auipc	t5,0xb
 10015aa:	bfaf3f03          	ld	t5,-1030(t5) # 100c1a0 <__spl_start+0xacb0>
 10015ae:	9f02                	jalr	t5
 10015b0:	0000b297          	auipc	t0,0xb
 10015b4:	bd02b283          	ld	t0,-1072(t0) # 100c180 <__spl_start+0xac90>
 10015b8:	0000b317          	auipc	t1,0xb
 10015bc:	b9033303          	ld	t1,-1136(t1) # 100c148 <__spl_start+0xac58>
 10015c0:	00628763          	beq	t0,t1,10015ce <__spl_start+0xde>
 10015c4:	0002b023          	sd	zero,0(t0)
 10015c8:	02a1                	addi	t0,t0,8
 10015ca:	fe62cde3          	blt	t0,t1,10015c4 <__spl_start+0xd4>
 10015ce:	457000ef          	jal	ra,1002224 <__spl_start+0xd34>
 10015d2:	c91d                	beqz	a0,1001608 <__spl_start+0x118>
 10015d4:	842a                	mv	s0,a0
 10015d6:	00e21293          	slli	t0,tp,0xe
 10015da:	40540133          	sub	sp,s0,t0
 10015de:	0000b517          	auipc	a0,0xb
 10015e2:	ada53503          	ld	a0,-1318(a0) # 100c0b8 <__spl_start+0xabc8>
 10015e6:	85a2                	mv	a1,s0
 10015e8:	8622                	mv	a2,s0
 10015ea:	00000693          	li	a3,0
 10015ee:	4f2000ef          	jal	ra,1001ae0 <__spl_start+0x5f0>
 10015f2:	c911                	beqz	a0,1001606 <__spl_start+0x116>
 10015f4:	85aa                	mv	a1,a0
 10015f6:	0000b517          	auipc	a0,0xb
 10015fa:	aba53503          	ld	a0,-1350(a0) # 100c0b0 <__spl_start+0xabc0>
 10015fe:	096040ef          	jal	ra,1005694 <__spl_start+0x41a4>
 1001602:	2d9030ef          	jal	ra,10050da <__spl_start+0x3bea>
 1001606:	81a2                	mv	gp,s0
 1001608:	00000513          	li	a0,0
 100160c:	00000593          	li	a1,0
 1001610:	299000ef          	jal	ra,10020a8 <__spl_start+0xbb8>
 1001614:	892a                	mv	s2,a0
 1001616:	89ae                	mv	s3,a1
 1001618:	8a32                	mv	s4,a2
 100161a:	00e21293          	slli	t0,tp,0xe
 100161e:	40590133          	sub	sp,s2,t0
 1001622:	0000b297          	auipc	t0,0xb
 1001626:	b3e2b283          	ld	t0,-1218(t0) # 100c160 <__spl_start+0xac70>
 100162a:	405a0fb3          	sub	t6,s4,t0
 100162e:	0b428663          	beq	t0,s4,10016da <__spl_start+0x1ea>
 1001632:	8352                	mv	t1,s4
 1001634:	0000be17          	auipc	t3,0xb
 1001638:	b4ce3e03          	ld	t3,-1204(t3) # 100c180 <__spl_start+0xac90>
 100163c:	405e0e33          	sub	t3,t3,t0
 1001640:	01c283b3          	add	t2,t0,t3
 1001644:	0002bf03          	ld	t5,0(t0)
 1001648:	02a1                	addi	t0,t0,8
 100164a:	01e33023          	sd	t5,0(t1)
 100164e:	0321                	addi	t1,t1,8
 1001650:	fe72cae3          	blt	t0,t2,1001644 <__spl_start+0x154>
 1001654:	0000b317          	auipc	t1,0xb
 1001658:	a7c33303          	ld	t1,-1412(t1) # 100c0d0 <__spl_start+0xabe0>
 100165c:	0000b397          	auipc	t2,0xb
 1001660:	b7c3b383          	ld	t2,-1156(t2) # 100c1d8 <__spl_start+0xace8>
 1001664:	06730b63          	beq	t1,t2,10016da <__spl_start+0x1ea>
 1001668:	937e                	add	t1,t1,t6
 100166a:	93fe                	add	t2,t2,t6
 100166c:	a8a9                	j	10016c6 <__spl_start+0x1d6>
 100166e:	ff033f03          	ld	t5,-16(t1)
 1001672:	4e0d                	li	t3,3
 1001674:	01cf1b63          	bne	t5,t3,100168a <__spl_start+0x19a>
 1001678:	fe833e03          	ld	t3,-24(t1)
 100167c:	ff833f03          	ld	t5,-8(t1)
 1001680:	9f7e                	add	t5,t5,t6
 1001682:	9e7e                	add	t3,t3,t6
 1001684:	01ee3023          	sd	t5,0(t3)
 1001688:	a83d                	j	10016c6 <__spl_start+0x1d6>
 100168a:	0000be97          	auipc	t4,0xb
 100168e:	b56ebe83          	ld	t4,-1194(t4) # 100c1e0 <__spl_start+0xacf0>
 1001692:	9efe                	add	t4,t4,t6
 1001694:	ff033f03          	ld	t5,-16(t1)
 1001698:	020f5293          	srli	t0,t5,0x20
 100169c:	0fff7f13          	andi	t5,t5,255
 10016a0:	4e09                	li	t3,2
 10016a2:	03cf1263          	bne	t5,t3,10016c6 <__spl_start+0x1d6>
 10016a6:	fe833e03          	ld	t3,-24(t1)
 10016aa:	4f61                	li	t5,24
 10016ac:	03e282b3          	mul	t0,t0,t5
 10016b0:	005e8ab3          	add	s5,t4,t0
 10016b4:	ff833283          	ld	t0,-8(t1)
 10016b8:	008abf03          	ld	t5,8(s5)
 10016bc:	9f16                	add	t5,t5,t0
 10016be:	9f7e                	add	t5,t5,t6
 10016c0:	9e7e                	add	t3,t3,t6
 10016c2:	01ee3023          	sd	t5,0(t3)
 10016c6:	0361                	addi	t1,t1,24
 10016c8:	fa63d3e3          	bge	t2,t1,100166e <__spl_start+0x17e>
 10016cc:	0000b297          	auipc	t0,0xb
 10016d0:	abc2b283          	ld	t0,-1348(t0) # 100c188 <__spl_start+0xac98>
 10016d4:	92fe                	add	t0,t0,t6
 10016d6:	30529073          	csrw	mtvec,t0
 10016da:	0000b297          	auipc	t0,0xb
 10016de:	aa62b283          	ld	t0,-1370(t0) # 100c180 <__spl_start+0xac90>
 10016e2:	92fe                	add	t0,t0,t6
 10016e4:	0000b317          	auipc	t1,0xb
 10016e8:	a6433303          	ld	t1,-1436(t1) # 100c148 <__spl_start+0xac58>
 10016ec:	937e                	add	t1,t1,t6
 10016ee:	00628763          	beq	t0,t1,10016fc <__spl_start+0x20c>
 10016f2:	0002b023          	sd	zero,0(t0)
 10016f6:	02a1                	addi	t0,t0,8
 10016f8:	fe62cde3          	blt	t0,t1,10016f2 <__spl_start+0x202>
 10016fc:	0000b297          	auipc	t0,0xb
 1001700:	9bc2b283          	ld	t0,-1604(t0) # 100c0b8 <__spl_start+0xabc8>
 1001704:	01f28533          	add	a0,t0,t6
 1001708:	8afe                	mv	s5,t6
 100170a:	85ca                	mv	a1,s2
 100170c:	864e                	mv	a2,s3
 100170e:	00000693          	li	a3,0
 1001712:	3ce000ef          	jal	ra,1001ae0 <__spl_start+0x5f0>
 1001716:	c911                	beqz	a0,100172a <__spl_start+0x23a>
 1001718:	85aa                	mv	a1,a0
 100171a:	0000b517          	auipc	a0,0xb
 100171e:	99653503          	ld	a0,-1642(a0) # 100c0b0 <__spl_start+0xabc0>
 1001722:	773030ef          	jal	ra,1005694 <__spl_start+0x41a4>
 1001726:	1b5030ef          	jal	ra,10050da <__spl_start+0x3bea>
 100172a:	8fd6                	mv	t6,s5
 100172c:	196000ef          	jal	ra,10018c2 <__spl_start+0x3d2>
 1001730:	198000ef          	jal	ra,10018c8 <__spl_start+0x3d8>
 1001734:	0000b297          	auipc	t0,0xb
 1001738:	a1c2b283          	ld	t0,-1508(t0) # 100c150 <__spl_start+0xac60>
 100173c:	01f28eb3          	add	t4,t0,t6
 1001740:	854e                	mv	a0,s3
 1001742:	85d2                	mv	a1,s4
 1001744:	8e82                	jr	t4
 1001746:	10500073          	wfi
 100174a:	bff5                	j	1001746 <__spl_start+0x256>
 100174c:	00e21293          	slli	t0,tp,0xe
 1001750:	40558133          	sub	sp,a1,t0
 1001754:	81b2                	mv	gp,a2
 1001756:	10500073          	wfi
 100175a:	344022f3          	csrr	t0,mip
 100175e:	0082f293          	andi	t0,t0,8
 1001762:	fe028ae3          	beqz	t0,1001756 <__spl_start+0x266>
 1001766:	8512                	mv	a0,tp
 1001768:	2ec000ef          	jal	ra,1001a54 <__spl_start+0x564>
 100176c:	b7ed                	j	1001756 <__spl_start+0x266>
 100176e:	8082                	ret
 1001770:	7139                	addi	sp,sp,-64
 1001772:	fc06                	sd	ra,56(sp)
 1001774:	f822                	sd	s0,48(sp)
 1001776:	5c7060ef          	jal	ra,100853c <__spl_start+0x704c>
 100177a:	e14d                	bnez	a0,100181c <__spl_start+0x32c>
 100177c:	0020                	addi	s0,sp,8
 100177e:	85a2                	mv	a1,s0
 1001780:	456d                	li	a0,27
 1001782:	255040ef          	jal	ra,10061d6 <__spl_start+0x4ce6>
 1001786:	6522                	ld	a0,8(sp)
 1001788:	e939                	bnez	a0,10017de <__spl_start+0x2ee>
 100178a:	85a2                	mv	a1,s0
 100178c:	456d                	li	a0,27
 100178e:	249040ef          	jal	ra,10061d6 <__spl_start+0x4ce6>
 1001792:	6522                	ld	a0,8(sp)
 1001794:	e53d                	bnez	a0,1001802 <__spl_start+0x312>
 1001796:	3063d073          	csrwi	mcounteren,7
 100179a:	456d                	li	a0,27
 100179c:	85a2                	mv	a1,s0
 100179e:	239040ef          	jal	ra,10061d6 <__spl_start+0x4ce6>
 10017a2:	6522                	ld	a0,8(sp)
 10017a4:	cd19                	beqz	a0,10017c2 <__spl_start+0x2d2>
 10017a6:	02000613          	li	a2,32
 10017aa:	080c                	addi	a1,sp,16
 10017ac:	629060ef          	jal	ra,10085d4 <__spl_start+0x70e4>
 10017b0:	e909                	bnez	a0,10017c2 <__spl_start+0x2d2>
 10017b2:	07300593          	li	a1,115
 10017b6:	0848                	addi	a0,sp,20
 10017b8:	1e1030ef          	jal	ra,1005198 <__spl_start+0x3ca8>
 10017bc:	c119                	beqz	a0,10017c2 <__spl_start+0x2d2>
 10017be:	18005073          	csrwi	satp,0
 10017c2:	10e000ef          	jal	ra,10018d0 <__spl_start+0x3e0>
 10017c6:	e939                	bnez	a0,100181c <__spl_start+0x32c>
 10017c8:	7442                	ld	s0,48(sp)
 10017ca:	70e2                	ld	ra,56(sp)
 10017cc:	4681                	li	a3,0
 10017ce:	4601                	li	a2,0
 10017d0:	4581                	li	a1,0
 10017d2:	00000517          	auipc	a0,0x0
 10017d6:	f9c50513          	addi	a0,a0,-100 # 100176e <__spl_start+0x27e>
 10017da:	6121                	addi	sp,sp,64
 10017dc:	a611                	j	1001ae0 <__spl_start+0x5f0>
 10017de:	02000613          	li	a2,32
 10017e2:	080c                	addi	a1,sp,16
 10017e4:	5f1060ef          	jal	ra,10085d4 <__spl_start+0x70e4>
 10017e8:	f14d                	bnez	a0,100178a <__spl_start+0x29a>
 10017ea:	06400593          	li	a1,100
 10017ee:	0848                	addi	a0,sp,20
 10017f0:	1a9030ef          	jal	ra,1005198 <__spl_start+0x3ca8>
 10017f4:	d959                	beqz	a0,100178a <__spl_start+0x29a>
 10017f6:	6799                	lui	a5,0x6
 10017f8:	3007a073          	csrs	mstatus,a5
 10017fc:	00305073          	csrwi	fcsr,0
 1001800:	bf59                	j	1001796 <__spl_start+0x2a6>
 1001802:	02000613          	li	a2,32
 1001806:	080c                	addi	a1,sp,16
 1001808:	5cd060ef          	jal	ra,10085d4 <__spl_start+0x70e4>
 100180c:	f549                	bnez	a0,1001796 <__spl_start+0x2a6>
 100180e:	06600593          	li	a1,102
 1001812:	0848                	addi	a0,sp,20
 1001814:	185030ef          	jal	ra,1005198 <__spl_start+0x3ca8>
 1001818:	fd79                	bnez	a0,10017f6 <__spl_start+0x306>
 100181a:	bfb5                	j	1001796 <__spl_start+0x2a6>
 100181c:	70e2                	ld	ra,56(sp)
 100181e:	7442                	ld	s0,48(sp)
 1001820:	6121                	addi	sp,sp,64
 1001822:	8082                	ret
 1001824:	8082                	ret
 1001826:	0000                	unimp
 1001828:	7111                	addi	sp,sp,-256
 100182a:	e406                	sd	ra,8(sp)
 100182c:	e80a                	sd	sp,16(sp)
 100182e:	ec0e                	sd	gp,24(sp)
 1001830:	f012                	sd	tp,32(sp)
 1001832:	f416                	sd	t0,40(sp)
 1001834:	f81a                	sd	t1,48(sp)
 1001836:	fc1e                	sd	t2,56(sp)
 1001838:	e0a2                	sd	s0,64(sp)
 100183a:	e4a6                	sd	s1,72(sp)
 100183c:	e8aa                	sd	a0,80(sp)
 100183e:	ecae                	sd	a1,88(sp)
 1001840:	f0b2                	sd	a2,96(sp)
 1001842:	f4b6                	sd	a3,104(sp)
 1001844:	f8ba                	sd	a4,112(sp)
 1001846:	fcbe                	sd	a5,120(sp)
 1001848:	e142                	sd	a6,128(sp)
 100184a:	e546                	sd	a7,136(sp)
 100184c:	e94a                	sd	s2,144(sp)
 100184e:	ed4e                	sd	s3,152(sp)
 1001850:	f152                	sd	s4,160(sp)
 1001852:	f556                	sd	s5,168(sp)
 1001854:	f95a                	sd	s6,176(sp)
 1001856:	fd5e                	sd	s7,184(sp)
 1001858:	e1e2                	sd	s8,192(sp)
 100185a:	e5e6                	sd	s9,200(sp)
 100185c:	e9ea                	sd	s10,208(sp)
 100185e:	edee                	sd	s11,216(sp)
 1001860:	f1f2                	sd	t3,224(sp)
 1001862:	f5f6                	sd	t4,232(sp)
 1001864:	f9fa                	sd	t5,240(sp)
 1001866:	fdfe                	sd	t6,248(sp)
 1001868:	34202573          	csrr	a0,mcause
 100186c:	341025f3          	csrr	a1,mepc
 1001870:	34302673          	csrr	a2,mtval
 1001874:	868a                	mv	a3,sp
 1001876:	15c000ef          	jal	ra,10019d2 <__spl_start+0x4e2>
 100187a:	34151073          	csrw	mepc,a0
 100187e:	60a2                	ld	ra,8(sp)
 1001880:	61e2                	ld	gp,24(sp)
 1001882:	7202                	ld	tp,32(sp)
 1001884:	72a2                	ld	t0,40(sp)
 1001886:	7342                	ld	t1,48(sp)
 1001888:	73e2                	ld	t2,56(sp)
 100188a:	6406                	ld	s0,64(sp)
 100188c:	64a6                	ld	s1,72(sp)
 100188e:	6546                	ld	a0,80(sp)
 1001890:	65e6                	ld	a1,88(sp)
 1001892:	7606                	ld	a2,96(sp)
 1001894:	76a6                	ld	a3,104(sp)
 1001896:	7746                	ld	a4,112(sp)
 1001898:	77e6                	ld	a5,120(sp)
 100189a:	680a                	ld	a6,128(sp)
 100189c:	68aa                	ld	a7,136(sp)
 100189e:	694a                	ld	s2,144(sp)
 10018a0:	69ea                	ld	s3,152(sp)
 10018a2:	7a0a                	ld	s4,160(sp)
 10018a4:	7aaa                	ld	s5,168(sp)
 10018a6:	7b4a                	ld	s6,176(sp)
 10018a8:	7bea                	ld	s7,184(sp)
 10018aa:	6c0e                	ld	s8,192(sp)
 10018ac:	6cae                	ld	s9,200(sp)
 10018ae:	6d4e                	ld	s10,208(sp)
 10018b0:	6dee                	ld	s11,216(sp)
 10018b2:	7e0e                	ld	t3,224(sp)
 10018b4:	7eae                	ld	t4,232(sp)
 10018b6:	7f4e                	ld	t5,240(sp)
 10018b8:	7fee                	ld	t6,248(sp)
 10018ba:	6142                	ld	sp,16(sp)
 10018bc:	6111                	addi	sp,sp,256
 10018be:	30200073          	mret
 10018c2:	0000100f          	fence.i
 10018c6:	8082                	ret
 10018c8:	8082                	ret
 10018ca:	8082                	ret
 10018cc:	8082                	ret
 10018ce:	8082                	ret
 10018d0:	7179                	addi	sp,sp,-48
 10018d2:	0030                	addi	a2,sp,8
 10018d4:	0000b597          	auipc	a1,0xb
 10018d8:	81c5b583          	ld	a1,-2020(a1) # 100c0f0 <__spl_start+0xac00>
 10018dc:	06300513          	li	a0,99
 10018e0:	f022                	sd	s0,32(sp)
 10018e2:	f406                	sd	ra,40(sp)
 10018e4:	ec26                	sd	s1,24(sp)
 10018e6:	285040ef          	jal	ra,100636a <__spl_start+0x4e7a>
 10018ea:	842a                	mv	s0,a0
 10018ec:	e919                	bnez	a0,1001902 <__spl_start+0x412>
 10018ee:	6522                	ld	a0,8(sp)
 10018f0:	848e                	mv	s1,gp
 10018f2:	32a040ef          	jal	ra,1005c1c <__spl_start+0x472c>
 10018f6:	14a4b823          	sd	a0,336(s1)
 10018fa:	1501b783          	ld	a5,336(gp)
 10018fe:	e391                	bnez	a5,1001902 <__spl_start+0x412>
 1001900:	5429                	li	s0,-22
 1001902:	70a2                	ld	ra,40(sp)
 1001904:	8522                	mv	a0,s0
 1001906:	7402                	ld	s0,32(sp)
 1001908:	64e2                	ld	s1,24(sp)
 100190a:	6145                	addi	sp,sp,48
 100190c:	8082                	ret
 100190e:	1501b783          	ld	a5,336(gp)
 1001912:	0025151b          	slliw	a0,a0,0x2
 1001916:	97aa                	add	a5,a5,a0
 1001918:	0550000f          	fence	ow,ow
 100191c:	4705                	li	a4,1
 100191e:	c398                	sw	a4,0(a5)
 1001920:	4501                	li	a0,0
 1001922:	8082                	ret
 1001924:	1501b783          	ld	a5,336(gp)
 1001928:	0025151b          	slliw	a0,a0,0x2
 100192c:	97aa                	add	a5,a5,a0
 100192e:	0550000f          	fence	ow,ow
 1001932:	4501                	li	a0,0
 1001934:	0007a023          	sw	zero,0(a5) # 6000 <_start-0xffa000>
 1001938:	8082                	ret
 100193a:	1501b783          	ld	a5,336(gp)
 100193e:	0025151b          	slliw	a0,a0,0x2
 1001942:	97aa                	add	a5,a5,a0
 1001944:	439c                	lw	a5,0(a5)
 1001946:	0aa0000f          	fence	ir,ir
 100194a:	4501                	li	a0,0
 100194c:	c19c                	sw	a5,0(a1)
 100194e:	8082                	ret
 1001950:	1101                	addi	sp,sp,-32
 1001952:	e822                	sd	s0,16(sp)
 1001954:	e426                	sd	s1,8(sp)
 1001956:	e04a                	sd	s2,0(sp)
 1001958:	ec06                	sd	ra,24(sp)
 100195a:	47bd                	li	a5,15
 100195c:	842e                	mv	s0,a1
 100195e:	8932                	mv	s2,a2
 1001960:	84b6                	mv	s1,a3
 1001962:	06a7e063          	bltu	a5,a0,10019c2 <__spl_start+0x4d2>
 1001966:	050e                	slli	a0,a0,0x3
 1001968:	0000a797          	auipc	a5,0xa
 100196c:	9e878793          	addi	a5,a5,-1560 # 100b350 <__spl_start+0x9e60>
 1001970:	97aa                	add	a5,a5,a0
 1001972:	638c                	ld	a1,0(a5)
 1001974:	00007517          	auipc	a0,0x7
 1001978:	00450513          	addi	a0,a0,4 # 1008978 <__spl_start+0x7488>
 100197c:	519030ef          	jal	ra,1005694 <__spl_start+0x41a4>
 1001980:	6490                	ld	a2,8(s1)
 1001982:	86ca                	mv	a3,s2
 1001984:	85a2                	mv	a1,s0
 1001986:	00007517          	auipc	a0,0x7
 100198a:	03250513          	addi	a0,a0,50 # 10089b8 <__spl_start+0x74c8>
 100198e:	507030ef          	jal	ra,1005694 <__spl_start+0x41a4>
 1001992:	02018263          	beqz	gp,10019b6 <__spl_start+0x4c6>
 1001996:	0081b703          	ld	a4,8(gp)
 100199a:	8b05                	andi	a4,a4,1
 100199c:	cf09                	beqz	a4,10019b6 <__spl_start+0x4c6>
 100199e:	0981b583          	ld	a1,152(gp)
 10019a2:	6490                	ld	a2,8(s1)
 10019a4:	00007517          	auipc	a0,0x7
 10019a8:	03c50513          	addi	a0,a0,60 # 10089e0 <__spl_start+0x74f0>
 10019ac:	8e0d                	sub	a2,a2,a1
 10019ae:	40b405b3          	sub	a1,s0,a1
 10019b2:	4e3030ef          	jal	ra,1005694 <__spl_start+0x41a4>
 10019b6:	00007517          	auipc	a0,0x7
 10019ba:	4aa50513          	addi	a0,a0,1194 # 1008e60 <__spl_start+0x7970>
 10019be:	1b5030ef          	jal	ra,1005372 <__spl_start+0x3e82>
 10019c2:	85aa                	mv	a1,a0
 10019c4:	00007517          	auipc	a0,0x7
 10019c8:	fd450513          	addi	a0,a0,-44 # 1008998 <__spl_start+0x74a8>
 10019cc:	bf45                	j	100197c <__spl_start+0x48c>
 10019ce:	8082                	ret
 10019d0:	8082                	ret
 10019d2:	1141                	addi	sp,sp,-16
 10019d4:	e406                	sd	ra,8(sp)
 10019d6:	e022                	sd	s0,0(sp)
 10019d8:	04055c63          	bgez	a0,1001a30 <__spl_start+0x540>
 10019dc:	00151713          	slli	a4,a0,0x1
 10019e0:	88b6                	mv	a7,a3
 10019e2:	8305                	srli	a4,a4,0x1
 10019e4:	46a5                	li	a3,9
 10019e6:	842e                	mv	s0,a1
 10019e8:	02d70563          	beq	a4,a3,1001a12 <__spl_start+0x522>
 10019ec:	87aa                	mv	a5,a0
 10019ee:	8832                	mv	a6,a2
 10019f0:	00e6ee63          	bltu	a3,a4,1001a0c <__spl_start+0x51c>
 10019f4:	576d                	li	a4,-5
 10019f6:	8305                	srli	a4,a4,0x1
 10019f8:	8f69                	and	a4,a4,a0
 10019fa:	4695                	li	a3,5
 10019fc:	02d71663          	bne	a4,a3,1001a28 <__spl_start+0x538>
 1001a00:	4501                	li	a0,0
 1001a02:	0000a317          	auipc	t1,0xa
 1001a06:	7ae33303          	ld	t1,1966(t1) # 100c1b0 <__spl_start+0xacc0>
 1001a0a:	a809                	j	1001a1c <__spl_start+0x52c>
 1001a0c:	46ad                	li	a3,11
 1001a0e:	00d71d63          	bne	a4,a3,1001a28 <__spl_start+0x538>
 1001a12:	4501                	li	a0,0
 1001a14:	0000a317          	auipc	t1,0xa
 1001a18:	6ec33303          	ld	t1,1772(t1) # 100c100 <__spl_start+0xac10>
 1001a1c:	9302                	jalr	t1
 1001a1e:	60a2                	ld	ra,8(sp)
 1001a20:	8522                	mv	a0,s0
 1001a22:	6402                	ld	s0,0(sp)
 1001a24:	0141                	addi	sp,sp,16
 1001a26:	8082                	ret
 1001a28:	86c6                	mv	a3,a7
 1001a2a:	8642                	mv	a2,a6
 1001a2c:	85a2                	mv	a1,s0
 1001a2e:	853e                	mv	a0,a5
 1001a30:	f21ff0ef          	jal	ra,1001950 <__spl_start+0x460>
 1001a34:	1141                	addi	sp,sp,-16
 1001a36:	00007517          	auipc	a0,0x7
 1001a3a:	14250513          	addi	a0,a0,322 # 1008b78 <__spl_start+0x7688>
 1001a3e:	e406                	sd	ra,8(sp)
 1001a40:	455030ef          	jal	ra,1005694 <__spl_start+0x41a4>
 1001a44:	00007517          	auipc	a0,0x7
 1001a48:	14450513          	addi	a0,a0,324 # 1008b88 <__spl_start+0x7698>
 1001a4c:	449030ef          	jal	ra,1005694 <__spl_start+0x41a4>
 1001a50:	68a030ef          	jal	ra,10050da <__spl_start+0x3bea>
 1001a54:	479d                	li	a5,7
 1001a56:	08a7e463          	bltu	a5,a0,1001ade <__spl_start+0x5ee>
 1001a5a:	7179                	addi	sp,sp,-48
 1001a5c:	ec26                	sd	s1,24(sp)
 1001a5e:	00b50493          	addi	s1,a0,11
 1001a62:	0496                	slli	s1,s1,0x5
 1001a64:	f022                	sd	s0,32(sp)
 1001a66:	f406                	sd	ra,40(sp)
 1001a68:	e84a                	sd	s2,16(sp)
 1001a6a:	e44e                	sd	s3,8(sp)
 1001a6c:	009187b3          	add	a5,gp,s1
 1001a70:	4b9c                	lw	a5,16(a5)
 1001a72:	842a                	mv	s0,a0
 1001a74:	2781                	sext.w	a5,a5
 1001a76:	0230000f          	fence	r,rw
 1001a7a:	cbb9                	beqz	a5,1001ad0 <__spl_start+0x5e0>
 1001a7c:	00551913          	slli	s2,a0,0x5
 1001a80:	003907b3          	add	a5,s2,gp
 1001a84:	1587b983          	ld	s3,344(a5)
 1001a88:	e3bff0ef          	jal	ra,10018c2 <__spl_start+0x3d2>
 1001a8c:	0004051b          	sext.w	a0,s0
 1001a90:	e95ff0ef          	jal	ra,1001924 <__spl_start+0x434>
 1001a94:	862a                	mv	a2,a0
 1001a96:	cd11                	beqz	a0,1001ab2 <__spl_start+0x5c2>
 1001a98:	85a2                	mv	a1,s0
 1001a9a:	7402                	ld	s0,32(sp)
 1001a9c:	70a2                	ld	ra,40(sp)
 1001a9e:	64e2                	ld	s1,24(sp)
 1001aa0:	6942                	ld	s2,16(sp)
 1001aa2:	69a2                	ld	s3,8(sp)
 1001aa4:	00007517          	auipc	a0,0x7
 1001aa8:	36450513          	addi	a0,a0,868 # 1008e08 <__spl_start+0x7918>
 1001aac:	6145                	addi	sp,sp,48
 1001aae:	3e70306f          	j	1005694 <__spl_start+0x41a4>
 1001ab2:	012187b3          	add	a5,gp,s2
 1001ab6:	948e                	add	s1,s1,gp
 1001ab8:	8522                	mv	a0,s0
 1001aba:	7402                	ld	s0,32(sp)
 1001abc:	6490                	ld	a2,8(s1)
 1001abe:	1607b583          	ld	a1,352(a5)
 1001ac2:	70a2                	ld	ra,40(sp)
 1001ac4:	64e2                	ld	s1,24(sp)
 1001ac6:	6942                	ld	s2,16(sp)
 1001ac8:	87ce                	mv	a5,s3
 1001aca:	69a2                	ld	s3,8(sp)
 1001acc:	6145                	addi	sp,sp,48
 1001ace:	8782                	jr	a5
 1001ad0:	70a2                	ld	ra,40(sp)
 1001ad2:	7402                	ld	s0,32(sp)
 1001ad4:	64e2                	ld	s1,24(sp)
 1001ad6:	6942                	ld	s2,16(sp)
 1001ad8:	69a2                	ld	s3,8(sp)
 1001ada:	6145                	addi	sp,sp,48
 1001adc:	8082                	ret
 1001ade:	8082                	ret
 1001ae0:	7175                	addi	sp,sp,-144
 1001ae2:	fca6                	sd	s1,120(sp)
 1001ae4:	84aa                	mv	s1,a0
 1001ae6:	00007517          	auipc	a0,0x7
 1001aea:	49a50513          	addi	a0,a0,1178 # 1008f80 <__spl_start+0x7a90>
 1001aee:	f8ca                	sd	s2,112(sp)
 1001af0:	f4ce                	sd	s3,104(sp)
 1001af2:	f0d2                	sd	s4,96(sp)
 1001af4:	e506                	sd	ra,136(sp)
 1001af6:	e122                	sd	s0,128(sp)
 1001af8:	ecd6                	sd	s5,88(sp)
 1001afa:	e8da                	sd	s6,80(sp)
 1001afc:	e4de                	sd	s7,72(sp)
 1001afe:	e0e2                	sd	s8,64(sp)
 1001b00:	fc66                	sd	s9,56(sp)
 1001b02:	f86a                	sd	s10,48(sp)
 1001b04:	f46e                	sd	s11,40(sp)
 1001b06:	892e                	mv	s2,a1
 1001b08:	89b2                	mv	s3,a2
 1001b0a:	8a36                	mv	s4,a3
 1001b0c:	3eb040ef          	jal	ra,10066f6 <__spl_start+0x5206>
 1001b10:	02055963          	bgez	a0,1001b42 <__spl_start+0x652>
 1001b14:	00007517          	auipc	a0,0x7
 1001b18:	47450513          	addi	a0,a0,1140 # 1008f88 <__spl_start+0x7a98>
 1001b1c:	379030ef          	jal	ra,1005694 <__spl_start+0x41a4>
 1001b20:	57a9                	li	a5,-22
 1001b22:	60aa                	ld	ra,136(sp)
 1001b24:	640a                	ld	s0,128(sp)
 1001b26:	74e6                	ld	s1,120(sp)
 1001b28:	7946                	ld	s2,112(sp)
 1001b2a:	79a6                	ld	s3,104(sp)
 1001b2c:	7a06                	ld	s4,96(sp)
 1001b2e:	6ae6                	ld	s5,88(sp)
 1001b30:	6b46                	ld	s6,80(sp)
 1001b32:	6ba6                	ld	s7,72(sp)
 1001b34:	6c06                	ld	s8,64(sp)
 1001b36:	7ce2                	ld	s9,56(sp)
 1001b38:	7d42                	ld	s10,48(sp)
 1001b3a:	7da2                	ld	s11,40(sp)
 1001b3c:	853e                	mv	a0,a5
 1001b3e:	6149                	addi	sp,sp,144
 1001b40:	8082                	ret
 1001b42:	0005059b          	sext.w	a1,a0
 1001b46:	0d81b503          	ld	a0,216(gp)
 1001b4a:	356020ef          	jal	ra,1003ea0 <__spl_start+0x29b0>
 1001b4e:	0005041b          	sext.w	s0,a0
 1001b52:	00055363          	bgez	a0,1001b58 <__spl_start+0x668>
 1001b56:	547d                	li	s0,-1
 1001b58:	01810b13          	addi	s6,sp,24 # 30303018 <__soc_ctrl_scratch1+0x2e303000>
 1001b5c:	00007b97          	auipc	s7,0x7
 1001b60:	444b8b93          	addi	s7,s7,1092 # 1008fa0 <__spl_start+0x7ab0>
 1001b64:	4c1d                	li	s8,7
 1001b66:	4c85                	li	s9,1
 1001b68:	4a85                	li	s5,1
 1001b6a:	01c10d13          	addi	s10,sp,28
 1001b6e:	00007d97          	auipc	s11,0x7
 1001b72:	43ad8d93          	addi	s11,s11,1082 # 1008fa8 <__spl_start+0x7ab8>
 1001b76:	57fd                	li	a5,-1
 1001b78:	00f41463          	bne	s0,a5,1001b80 <__spl_start+0x690>
 1001b7c:	4781                	li	a5,0
 1001b7e:	b755                	j	1001b22 <__spl_start+0x632>
 1001b80:	8522                	mv	a0,s0
 1001b82:	3f5040ef          	jal	ra,1006776 <__spl_start+0x5286>
 1001b86:	c505                	beqz	a0,1001bae <__spl_start+0x6be>
 1001b88:	865a                	mv	a2,s6
 1001b8a:	85de                	mv	a1,s7
 1001b8c:	8522                	mv	a0,s0
 1001b8e:	2cd040ef          	jal	ra,100665a <__spl_start+0x516a>
 1001b92:	ed11                	bnez	a0,1001bae <__spl_start+0x6be>
 1001b94:	45e2                	lw	a1,24(sp)
 1001b96:	1401b683          	ld	a3,320(gp)
 1001b9a:	02059793          	slli	a5,a1,0x20
 1001b9e:	9381                	srli	a5,a5,0x20
 1001ba0:	00d78763          	beq	a5,a3,1001bae <__spl_start+0x6be>
 1001ba4:	02bc7063          	bgeu	s8,a1,1001bc4 <__spl_start+0x6d4>
 1001ba8:	856e                	mv	a0,s11
 1001baa:	2eb030ef          	jal	ra,1005694 <__spl_start+0x41a4>
 1001bae:	0d81b503          	ld	a0,216(gp)
 1001bb2:	85a2                	mv	a1,s0
 1001bb4:	30c020ef          	jal	ra,1003ec0 <__spl_start+0x29d0>
 1001bb8:	0005041b          	sext.w	s0,a0
 1001bbc:	fa055de3          	bgez	a0,1001b76 <__spl_start+0x686>
 1001bc0:	547d                	li	s0,-1
 1001bc2:	bf55                	j	1001b76 <__spl_start+0x686>
 1001bc4:	2581b683          	ld	a3,600(gp)
 1001bc8:	00bc95bb          	sllw	a1,s9,a1
 1001bcc:	8df5                	and	a1,a1,a3
 1001bce:	d1e5                	beqz	a1,1001bae <__spl_start+0x6be>
 1001bd0:	00579693          	slli	a3,a5,0x5
 1001bd4:	07ad                	addi	a5,a5,11
 1001bd6:	968e                	add	a3,a3,gp
 1001bd8:	0796                	slli	a5,a5,0x5
 1001bda:	1496bc23          	sd	s1,344(a3)
 1001bde:	1726b023          	sd	s2,352(a3)
 1001be2:	00f18733          	add	a4,gp,a5
 1001be6:	01373423          	sd	s3,8(a4) # 19008 <_start-0xfe6ff8>
 1001bea:	0310000f          	fence	rw,w
 1001bee:	4562                	lw	a0,24(sp)
 1001bf0:	02051713          	slli	a4,a0,0x20
 1001bf4:	01b75793          	srli	a5,a4,0x1b
 1001bf8:	16078793          	addi	a5,a5,352
 1001bfc:	978e                	add	a5,a5,gp
 1001bfe:	0157a823          	sw	s5,16(a5)
 1001c02:	d0dff0ef          	jal	ra,100190e <__spl_start+0x41e>
 1001c06:	c919                	beqz	a0,1001c1c <__spl_start+0x72c>
 1001c08:	45e2                	lw	a1,24(sp)
 1001c0a:	e42a                	sd	a0,8(sp)
 1001c0c:	00007517          	auipc	a0,0x7
 1001c10:	3d450513          	addi	a0,a0,980 # 1008fe0 <__spl_start+0x7af0>
 1001c14:	281030ef          	jal	ra,1005694 <__spl_start+0x41a4>
 1001c18:	67a2                	ld	a5,8(sp)
 1001c1a:	b721                	j	1001b22 <__spl_start+0x632>
 1001c1c:	f80a09e3          	beqz	s4,1001bae <__spl_start+0x6be>
 1001c20:	ce56                	sw	s5,28(sp)
 1001c22:	4562                	lw	a0,24(sp)
 1001c24:	85ea                	mv	a1,s10
 1001c26:	d15ff0ef          	jal	ra,100193a <__spl_start+0x44a>
 1001c2a:	87aa                	mv	a5,a0
 1001c2c:	ee051be3          	bnez	a0,1001b22 <__spl_start+0x632>
 1001c30:	47f2                	lw	a5,28(sp)
 1001c32:	fbe5                	bnez	a5,1001c22 <__spl_start+0x732>
 1001c34:	bfad                	j	1001bae <__spl_start+0x6be>
 1001c36:	1141                	addi	sp,sp,-16
 1001c38:	e406                	sd	ra,8(sp)
 1001c3a:	404000ef          	jal	ra,100203e <__spl_start+0xb4e>
 1001c3e:	c901                	beqz	a0,1001c4e <__spl_start+0x75e>
 1001c40:	85aa                	mv	a1,a0
 1001c42:	00007517          	auipc	a0,0x7
 1001c46:	e0650513          	addi	a0,a0,-506 # 1008a48 <__spl_start+0x7558>
 1001c4a:	728030ef          	jal	ra,1005372 <__spl_start+0x3e82>
 1001c4e:	b23ff0ef          	jal	ra,1001770 <__spl_start+0x280>
 1001c52:	5aa000ef          	jal	ra,10021fc <__spl_start+0xd0c>
 1001c56:	0000a317          	auipc	t1,0xa
 1001c5a:	4a233303          	ld	t1,1186(t1) # 100c0f8 <__spl_start+0xac08>
 1001c5e:	9302                	jalr	t1
 1001c60:	85aa                	mv	a1,a0
 1001c62:	c511                	beqz	a0,1001c6e <__spl_start+0x77e>
 1001c64:	00007517          	auipc	a0,0x7
 1001c68:	e0450513          	addi	a0,a0,-508 # 1008a68 <__spl_start+0x7578>
 1001c6c:	bff9                	j	1001c4a <__spl_start+0x75a>
 1001c6e:	60a2                	ld	ra,8(sp)
 1001c70:	0141                	addi	sp,sp,16
 1001c72:	8082                	ret
 1001c74:	1101                	addi	sp,sp,-32
 1001c76:	e822                	sd	s0,16(sp)
 1001c78:	ec06                	sd	ra,24(sp)
 1001c7a:	e426                	sd	s1,8(sp)
 1001c7c:	e04a                	sd	s2,0(sp)
 1001c7e:	7104                	ld	s1,32(a0)
 1001c80:	01853903          	ld	s2,24(a0)
 1001c84:	842a                	mv	s0,a0
 1001c86:	c3dff0ef          	jal	ra,10018c2 <__spl_start+0x3d2>
 1001c8a:	6c08                	ld	a0,24(s0)
 1001c8c:	4681                	li	a3,0
 1001c8e:	4601                	li	a2,0
 1001c90:	85a6                	mv	a1,s1
 1001c92:	e4fff0ef          	jal	ra,1001ae0 <__spl_start+0x5f0>
 1001c96:	c119                	beqz	a0,1001c9c <__spl_start+0x7ac>
 1001c98:	442030ef          	jal	ra,10050da <__spl_start+0x3bea>
 1001c9c:	1401b503          	ld	a0,320(gp)
 1001ca0:	85a6                	mv	a1,s1
 1001ca2:	9902                	jalr	s2
	...
 1001cb0:	82aa                	mv	t0,a0
 1001cb2:	01063693          	sltiu	a3,a2,16
 1001cb6:	e2f5                	bnez	a3,1001d9a <__spl_start+0x8aa>
 1001cb8:	00728693          	addi	a3,t0,7
 1001cbc:	9ae1                	andi	a3,a3,-8
 1001cbe:	00568a63          	beq	a3,t0,1001cd2 <__spl_start+0x7e2>
 1001cc2:	40568733          	sub	a4,a3,t0
 1001cc6:	00b28023          	sb	a1,0(t0)
 1001cca:	0285                	addi	t0,t0,1
 1001ccc:	fed2ede3          	bltu	t0,a3,1001cc6 <__spl_start+0x7d6>
 1001cd0:	8e19                	sub	a2,a2,a4
 1001cd2:	0ff5f593          	andi	a1,a1,255
 1001cd6:	00859693          	slli	a3,a1,0x8
 1001cda:	8dd5                	or	a1,a1,a3
 1001cdc:	01059693          	slli	a3,a1,0x10
 1001ce0:	8dd5                	or	a1,a1,a3
 1001ce2:	02059693          	slli	a3,a1,0x20
 1001ce6:	8dd5                	or	a1,a1,a3
 1001ce8:	ff867713          	andi	a4,a2,-8
 1001cec:	00e286b3          	add	a3,t0,a4
 1001cf0:	0f877713          	andi	a4,a4,248
 1001cf4:	cf11                	beqz	a4,1001d10 <__spl_start+0x820>
 1001cf6:	40e00733          	neg	a4,a4
 1001cfa:	10070713          	addi	a4,a4,256
 1001cfe:	40e282b3          	sub	t0,t0,a4
 1001d02:	0000a797          	auipc	a5,0xa
 1001d06:	3be7b783          	ld	a5,958(a5) # 100c0c0 <__spl_start+0xabd0>
 1001d0a:	8305                	srli	a4,a4,0x1
 1001d0c:	97ba                	add	a5,a5,a4
 1001d0e:	8782                	jr	a5
 1001d10:	00b2b023          	sd	a1,0(t0)
 1001d14:	00b2b423          	sd	a1,8(t0)
 1001d18:	00b2b823          	sd	a1,16(t0)
 1001d1c:	00b2bc23          	sd	a1,24(t0)
 1001d20:	02b2b023          	sd	a1,32(t0)
 1001d24:	02b2b423          	sd	a1,40(t0)
 1001d28:	02b2b823          	sd	a1,48(t0)
 1001d2c:	02b2bc23          	sd	a1,56(t0)
 1001d30:	04b2b023          	sd	a1,64(t0)
 1001d34:	04b2b423          	sd	a1,72(t0)
 1001d38:	04b2b823          	sd	a1,80(t0)
 1001d3c:	04b2bc23          	sd	a1,88(t0)
 1001d40:	06b2b023          	sd	a1,96(t0)
 1001d44:	06b2b423          	sd	a1,104(t0)
 1001d48:	06b2b823          	sd	a1,112(t0)
 1001d4c:	06b2bc23          	sd	a1,120(t0)
 1001d50:	08b2b023          	sd	a1,128(t0)
 1001d54:	08b2b423          	sd	a1,136(t0)
 1001d58:	08b2b823          	sd	a1,144(t0)
 1001d5c:	08b2bc23          	sd	a1,152(t0)
 1001d60:	0ab2b023          	sd	a1,160(t0)
 1001d64:	0ab2b423          	sd	a1,168(t0)
 1001d68:	0ab2b823          	sd	a1,176(t0)
 1001d6c:	0ab2bc23          	sd	a1,184(t0)
 1001d70:	0cb2b023          	sd	a1,192(t0)
 1001d74:	0cb2b423          	sd	a1,200(t0)
 1001d78:	0cb2b823          	sd	a1,208(t0)
 1001d7c:	0cb2bc23          	sd	a1,216(t0)
 1001d80:	0eb2b023          	sd	a1,224(t0)
 1001d84:	0eb2b423          	sd	a1,232(t0)
 1001d88:	0eb2b823          	sd	a1,240(t0)
 1001d8c:	0eb2bc23          	sd	a1,248(t0)
 1001d90:	10028293          	addi	t0,t0,256
 1001d94:	f6d2eee3          	bltu	t0,a3,1001d10 <__spl_start+0x820>
 1001d98:	8a1d                	andi	a2,a2,7
 1001d9a:	ca01                	beqz	a2,1001daa <__spl_start+0x8ba>
 1001d9c:	00c286b3          	add	a3,t0,a2
 1001da0:	00b28023          	sb	a1,0(t0)
 1001da4:	0285                	addi	t0,t0,1
 1001da6:	fed2ede3          	bltu	t0,a3,1001da0 <__spl_start+0x8b0>
 1001daa:	8082                	ret
	...
 1001dc0:	40b502b3          	sub	t0,a0,a1
 1001dc4:	00c2e363          	bltu	t0,a2,1001dca <__spl_start+0x8da>
 1001dc8:	a061                	j	1001e50 <__spl_start+0x960>
 1001dca:	82aa                	mv	t0,a0
 1001dcc:	9532                	add	a0,a0,a2
 1001dce:	95b2                	add	a1,a1,a2
 1001dd0:	46c1                	li	a3,16
 1001dd2:	02d66b63          	bltu	a2,a3,1001e08 <__spl_start+0x918>
 1001dd6:	ff857613          	andi	a2,a0,-8
 1001dda:	00c50a63          	beq	a0,a2,1001dee <__spl_start+0x8fe>
 1001dde:	15fd                	addi	a1,a1,-1
 1001de0:	00058783          	lb	a5,0(a1)
 1001de4:	157d                	addi	a0,a0,-1
 1001de6:	00f50023          	sb	a5,0(a0)
 1001dea:	fec51ae3          	bne	a0,a2,1001dde <__spl_start+0x8ee>
 1001dee:	0075f693          	andi	a3,a1,7
 1001df2:	e69d                	bnez	a3,1001e20 <__spl_start+0x930>
 1001df4:	029d                	addi	t0,t0,7
 1001df6:	00a2f863          	bgeu	t0,a0,1001e06 <__spl_start+0x916>
 1001dfa:	15e1                	addi	a1,a1,-8
 1001dfc:	619c                	ld	a5,0(a1)
 1001dfe:	1561                	addi	a0,a0,-8
 1001e00:	e11c                	sd	a5,0(a0)
 1001e02:	fea2ece3          	bltu	t0,a0,1001dfa <__spl_start+0x90a>
 1001e06:	12e5                	addi	t0,t0,-7
 1001e08:	00550a63          	beq	a0,t0,1001e1c <__spl_start+0x92c>
 1001e0c:	15fd                	addi	a1,a1,-1
 1001e0e:	00058783          	lb	a5,0(a1)
 1001e12:	157d                	addi	a0,a0,-1
 1001e14:	00f50023          	sb	a5,0(a0)
 1001e18:	fe551ae3          	bne	a0,t0,1001e0c <__spl_start+0x91c>
 1001e1c:	8516                	mv	a0,t0
 1001e1e:	8082                	ret
 1001e20:	00369e13          	slli	t3,a3,0x3
 1001e24:	41c00eb3          	neg	t4,t3
 1001e28:	99e1                	andi	a1,a1,-8
 1001e2a:	619c                	ld	a5,0(a1)
 1001e2c:	029d                	addi	t0,t0,7
 1001e2e:	01d79733          	sll	a4,a5,t4
 1001e32:	15e1                	addi	a1,a1,-8
 1001e34:	619c                	ld	a5,0(a1)
 1001e36:	01c7d633          	srl	a2,a5,t3
 1001e3a:	8e59                	or	a2,a2,a4
 1001e3c:	1561                	addi	a0,a0,-8
 1001e3e:	e110                	sd	a2,0(a0)
 1001e40:	fea2e7e3          	bltu	t0,a0,1001e2e <__spl_start+0x93e>
 1001e44:	12e5                	addi	t0,t0,-7
 1001e46:	95b6                	add	a1,a1,a3
 1001e48:	b7c1                	j	1001e08 <__spl_start+0x918>
 1001e4a:	0000                	unimp
 1001e4c:	0000                	unimp
 1001e4e:	0000                	unimp
 1001e50:	8faa                	mv	t6,a0
 1001e52:	00c502b3          	add	t0,a0,a2
 1001e56:	46c1                	li	a3,16
 1001e58:	0ad66763          	bltu	a2,a3,1001f06 <__spl_start+0xa16>
 1001e5c:	00750613          	addi	a2,a0,7
 1001e60:	9a61                	andi	a2,a2,-8
 1001e62:	00c50a63          	beq	a0,a2,1001e76 <__spl_start+0x986>
 1001e66:	00058783          	lb	a5,0(a1)
 1001e6a:	0585                	addi	a1,a1,1
 1001e6c:	00f50023          	sb	a5,0(a0)
 1001e70:	0505                	addi	a0,a0,1
 1001e72:	fec51ae3          	bne	a0,a2,1001e66 <__spl_start+0x976>
 1001e76:	0075f693          	andi	a3,a1,7
 1001e7a:	e2d5                	bnez	a3,1001f1e <__spl_start+0xa2e>
 1001e7c:	f8128293          	addi	t0,t0,-127
 1001e80:	06557863          	bgeu	a0,t0,1001ef0 <__spl_start+0xa00>
 1001e84:	6190                	ld	a2,0(a1)
 1001e86:	6594                	ld	a3,8(a1)
 1001e88:	6998                	ld	a4,16(a1)
 1001e8a:	6d9c                	ld	a5,24(a1)
 1001e8c:	0205b803          	ld	a6,32(a1)
 1001e90:	0285b883          	ld	a7,40(a1)
 1001e94:	0305b303          	ld	t1,48(a1)
 1001e98:	0385b383          	ld	t2,56(a1)
 1001e9c:	0405be03          	ld	t3,64(a1)
 1001ea0:	0485be83          	ld	t4,72(a1)
 1001ea4:	0505bf03          	ld	t5,80(a1)
 1001ea8:	e110                	sd	a2,0(a0)
 1001eaa:	e514                	sd	a3,8(a0)
 1001eac:	e918                	sd	a4,16(a0)
 1001eae:	ed1c                	sd	a5,24(a0)
 1001eb0:	03053023          	sd	a6,32(a0)
 1001eb4:	03153423          	sd	a7,40(a0)
 1001eb8:	02653823          	sd	t1,48(a0)
 1001ebc:	02753c23          	sd	t2,56(a0)
 1001ec0:	05c53023          	sd	t3,64(a0)
 1001ec4:	05d53423          	sd	t4,72(a0)
 1001ec8:	05e53823          	sd	t5,80(a0)
 1001ecc:	6db0                	ld	a2,88(a1)
 1001ece:	71b4                	ld	a3,96(a1)
 1001ed0:	75b8                	ld	a4,104(a1)
 1001ed2:	79bc                	ld	a5,112(a1)
 1001ed4:	0785b803          	ld	a6,120(a1)
 1001ed8:	08058593          	addi	a1,a1,128
 1001edc:	ed30                	sd	a2,88(a0)
 1001ede:	f134                	sd	a3,96(a0)
 1001ee0:	f538                	sd	a4,104(a0)
 1001ee2:	f93c                	sd	a5,112(a0)
 1001ee4:	07053c23          	sd	a6,120(a0)
 1001ee8:	08050513          	addi	a0,a0,128
 1001eec:	f8556ce3          	bltu	a0,t0,1001e84 <__spl_start+0x994>
 1001ef0:	07828293          	addi	t0,t0,120
 1001ef4:	00557863          	bgeu	a0,t0,1001f04 <__spl_start+0xa14>
 1001ef8:	619c                	ld	a5,0(a1)
 1001efa:	05a1                	addi	a1,a1,8
 1001efc:	e11c                	sd	a5,0(a0)
 1001efe:	0521                	addi	a0,a0,8
 1001f00:	fe556ce3          	bltu	a0,t0,1001ef8 <__spl_start+0xa08>
 1001f04:	029d                	addi	t0,t0,7
 1001f06:	00550a63          	beq	a0,t0,1001f1a <__spl_start+0xa2a>
 1001f0a:	00058783          	lb	a5,0(a1)
 1001f0e:	0585                	addi	a1,a1,1
 1001f10:	00f50023          	sb	a5,0(a0)
 1001f14:	0505                	addi	a0,a0,1
 1001f16:	fe551ae3          	bne	a0,t0,1001f0a <__spl_start+0xa1a>
 1001f1a:	857e                	mv	a0,t6
 1001f1c:	8082                	ret
 1001f1e:	00369e13          	slli	t3,a3,0x3
 1001f22:	41c00eb3          	neg	t4,t3
 1001f26:	99e1                	andi	a1,a1,-8
 1001f28:	619c                	ld	a5,0(a1)
 1001f2a:	12e5                	addi	t0,t0,-7
 1001f2c:	01c7d733          	srl	a4,a5,t3
 1001f30:	659c                	ld	a5,8(a1)
 1001f32:	05a1                	addi	a1,a1,8
 1001f34:	01d79633          	sll	a2,a5,t4
 1001f38:	8e59                	or	a2,a2,a4
 1001f3a:	e110                	sd	a2,0(a0)
 1001f3c:	0521                	addi	a0,a0,8
 1001f3e:	fe5567e3          	bltu	a0,t0,1001f2c <__spl_start+0xa3c>
 1001f42:	029d                	addi	t0,t0,7
 1001f44:	95b6                	add	a1,a1,a3
 1001f46:	b7c1                	j	1001f06 <__spl_start+0xa16>
	...
 1001f54:	4501                	li	a0,0
 1001f56:	8082                	ret
 1001f58:	4521                	li	a0,8
 1001f5a:	8082                	ret
 1001f5c:	4501                	li	a0,0
 1001f5e:	8082                	ret
 1001f60:	8082                	ret
 1001f62:	1141                	addi	sp,sp,-16
 1001f64:	e406                	sd	ra,8(sp)
 1001f66:	670d                	lui	a4,0x3
 1001f68:	12e1b423          	sd	a4,296(gp)
 1001f6c:	0a400513          	li	a0,164
 1001f70:	0000a317          	auipc	t1,0xa
 1001f74:	1b833303          	ld	t1,440(t1) # 100c128 <__spl_start+0xac38>
 1001f78:	1201b823          	sd	zero,304(gp)
 1001f7c:	9302                	jalr	t1
 1001f7e:	12c030ef          	jal	ra,10050aa <__spl_start+0x3bba>
 1001f82:	e511                	bnez	a0,1001f8e <__spl_start+0xa9e>
 1001f84:	60a2                	ld	ra,8(sp)
 1001f86:	4505                	li	a0,1
 1001f88:	0141                	addi	sp,sp,16
 1001f8a:	0ba0406f          	j	1006044 <__spl_start+0x4b54>
 1001f8e:	60a2                	ld	ra,8(sp)
 1001f90:	0141                	addi	sp,sp,16
 1001f92:	8082                	ret
 1001f94:	8082                	ret
 1001f96:	8082                	ret
 1001f98:	40100793          	li	a5,1025
 1001f9c:	07d6                	slli	a5,a5,0x15
 1001f9e:	953e                	add	a0,a0,a5
 1001fa0:	8082                	ret
 1001fa2:	0000a797          	auipc	a5,0xa
 1001fa6:	1ee7b783          	ld	a5,494(a5) # 100c190 <__spl_start+0xaca0>
 1001faa:	639c                	ld	a5,0(a5)
 1001fac:	5775                	li	a4,-3
 1001fae:	fff78693          	addi	a3,a5,-1
 1001fb2:	00d77563          	bgeu	a4,a3,1001fbc <__spl_start+0xacc>
 1001fb6:	40100793          	li	a5,1025
 1001fba:	07d6                	slli	a5,a5,0x15
 1001fbc:	ed1c                	sd	a5,24(a0)
 1001fbe:	e91c                	sd	a5,16(a0)
 1001fc0:	47c5                	li	a5,17
 1001fc2:	00032737          	lui	a4,0x32
 1001fc6:	00f50423          	sb	a5,8(a0)
 1001fca:	00008797          	auipc	a5,0x8
 1001fce:	34e78793          	addi	a5,a5,846 # 100a318 <__spl_start+0x8e28>
 1001fd2:	d558                	sw	a4,44(a0)
 1001fd4:	e11c                	sd	a5,0(a0)
 1001fd6:	8082                	ret
 1001fd8:	5529                	li	a0,-22
 1001fda:	8082                	ret
 1001fdc:	4198                	lw	a4,0(a1)
 1001fde:	00ff0637          	lui	a2,0xff0
 1001fe2:	0187569b          	srliw	a3,a4,0x18
 1001fe6:	0187179b          	slliw	a5,a4,0x18
 1001fea:	8fd5                	or	a5,a5,a3
 1001fec:	0087169b          	slliw	a3,a4,0x8
 1001ff0:	8ef1                	and	a3,a3,a2
 1001ff2:	8fd5                	or	a5,a5,a3
 1001ff4:	66c1                	lui	a3,0x10
 1001ff6:	0087571b          	srliw	a4,a4,0x8
 1001ffa:	f0068693          	addi	a3,a3,-256 # ff00 <_start-0xff0100>
 1001ffe:	8f75                	and	a4,a4,a3
 1002000:	8fd9                	or	a5,a5,a4
 1002002:	27052737          	lui	a4,0x27052
 1002006:	2781                	sext.w	a5,a5
 1002008:	95670713          	addi	a4,a4,-1706 # 27051956 <__soc_ctrl_scratch1+0x2505193e>
 100200c:	00e79763          	bne	a5,a4,100201a <__spl_start+0xb2a>
 1002010:	0000a317          	auipc	t1,0xa
 1002014:	13033303          	ld	t1,304(t1) # 100c140 <__spl_start+0xac50>
 1002018:	8302                	jr	t1
 100201a:	1141                	addi	sp,sp,-16
 100201c:	e406                	sd	ra,8(sp)
 100201e:	f85ff0ef          	jal	ra,1001fa2 <__spl_start+0xab2>
 1002022:	60a2                	ld	ra,8(sp)
 1002024:	4501                	li	a0,0
 1002026:	0141                	addi	sp,sp,16
 1002028:	8082                	ret
 100202a:	0001b703          	ld	a4,0(gp)
 100202e:	e719                	bnez	a4,100203c <__spl_start+0xb4c>
 1002030:	00009717          	auipc	a4,0x9
 1002034:	3a070713          	addi	a4,a4,928 # 100b3d0 <__spl_start+0x9ee0>
 1002038:	00e1b023          	sd	a4,0(gp)
 100203c:	8082                	ret
 100203e:	1141                	addi	sp,sp,-16
 1002040:	e406                	sd	ra,8(sp)
 1002042:	f21ff0ef          	jal	ra,1001f62 <__spl_start+0xa72>
 1002046:	e519                	bnez	a0,1002054 <__spl_start+0xb64>
 1002048:	0081b783          	ld	a5,8(gp)
 100204c:	6691                	lui	a3,0x4
 100204e:	8fd5                	or	a5,a5,a3
 1002050:	00f1b423          	sd	a5,8(gp)
 1002054:	60a2                	ld	ra,8(sp)
 1002056:	0141                	addi	sp,sp,16
 1002058:	8082                	ret
 100205a:	0081b703          	ld	a4,8(gp)
 100205e:	6791                	lui	a5,0x4
 1002060:	8ff9                	and	a5,a5,a4
 1002062:	cb89                	beqz	a5,1002074 <__spl_start+0xb84>
 1002064:	0081b783          	ld	a5,8(gp)
 1002068:	4501                	li	a0,0
 100206a:	4007e793          	ori	a5,a5,1024
 100206e:	00f1b423          	sd	a5,8(gp)
 1002072:	8082                	ret
 1002074:	1141                	addi	sp,sp,-16
 1002076:	e406                	sd	ra,8(sp)
 1002078:	eebff0ef          	jal	ra,1001f62 <__spl_start+0xa72>
 100207c:	e901                	bnez	a0,100208c <__spl_start+0xb9c>
 100207e:	0081b783          	ld	a5,8(gp)
 1002082:	4501                	li	a0,0
 1002084:	4007e793          	ori	a5,a5,1024
 1002088:	00f1b423          	sd	a5,8(gp)
 100208c:	60a2                	ld	ra,8(sp)
 100208e:	0141                	addi	sp,sp,16
 1002090:	8082                	ret
 1002092:	1141                	addi	sp,sp,-16
 1002094:	e022                	sd	s0,0(sp)
 1002096:	e406                	sd	ra,8(sp)
 1002098:	842a                	mv	s0,a0
 100209a:	ebfff0ef          	jal	ra,1001f58 <__spl_start+0xa68>
 100209e:	60a2                	ld	ra,8(sp)
 10020a0:	c008                	sw	a0,0(s0)
 10020a2:	6402                	ld	s0,0(sp)
 10020a4:	0141                	addi	sp,sp,16
 10020a6:	8082                	ret
 10020a8:	7131                	addi	sp,sp,-192
 10020aa:	f922                	sd	s0,176(sp)
 10020ac:	0820                	addi	s0,sp,24
 10020ae:	4651                	li	a2,20
 10020b0:	00006597          	auipc	a1,0x6
 10020b4:	70058593          	addi	a1,a1,1792 # 10087b0 <__spl_start+0x72c0>
 10020b8:	8522                	mv	a0,s0
 10020ba:	fd06                	sd	ra,184(sp)
 10020bc:	f526                	sd	s1,168(sp)
 10020be:	f14a                	sd	s2,160(sp)
 10020c0:	ed4e                	sd	s3,152(sp)
 10020c2:	e952                	sd	s4,144(sp)
 10020c4:	e556                	sd	s5,136(sp)
 10020c6:	e15a                	sd	s6,128(sp)
 10020c8:	fcde                	sd	s7,120(sp)
 10020ca:	f8e2                	sd	s8,112(sp)
 10020cc:	d85ff0ef          	jal	ra,1001e50 <__spl_start+0x960>
 10020d0:	f5bff0ef          	jal	ra,100202a <__spl_start+0xb3a>
 10020d4:	02100513          	li	a0,33
 10020d8:	001005b7          	lui	a1,0x100
 10020dc:	056a                	slli	a0,a0,0x1a
 10020de:	73d000ef          	jal	ra,100301a <__spl_start+0x1b2a>
 10020e2:	0081b783          	ld	a5,8(gp)
 10020e6:	2007e693          	ori	a3,a5,512
 10020ea:	00d1b423          	sd	a3,8(gp)
 10020ee:	4007f793          	andi	a5,a5,1024
 10020f2:	e791                	bnez	a5,10020fe <__spl_start+0xc0e>
 10020f4:	f67ff0ef          	jal	ra,100205a <__spl_start+0xb6a>
 10020f8:	c119                	beqz	a0,10020fe <__spl_start+0xc0e>
 10020fa:	7e1020ef          	jal	ra,10050da <__spl_start+0x3bea>
 10020fe:	184030ef          	jal	ra,1005282 <__spl_start+0x3d92>
 1002102:	03010993          	addi	s3,sp,48
 1002106:	04000613          	li	a2,64
 100210a:	4581                	li	a1,0
 100210c:	854e                	mv	a0,s3
 100210e:	ba3ff0ef          	jal	ra,1001cb0 <__spl_start+0x7c0>
 1002112:	deadc4b7          	lui	s1,0xdeadc
 1002116:	eef48913          	addi	s2,s1,-273 # ffffffffdeadbeef <__soc_ctrl_scratch1+0xffffffffdcadbed7>
 100211a:	8522                	mv	a0,s0
 100211c:	0000a317          	auipc	t1,0xa
 1002120:	fc433303          	ld	t1,-60(t1) # 100c0e0 <__spl_start+0xabf0>
 1002124:	ccca                	sw	s2,88(sp)
 1002126:	9302                	jalr	t1
 1002128:	0000a717          	auipc	a4,0xa
 100212c:	58070713          	addi	a4,a4,1408 # 100c6a8 <__spl_start+0xb1b8>
 1002130:	0000a797          	auipc	a5,0xa
 1002134:	5a878793          	addi	a5,a5,1448 # 100c6d8 <__spl_start+0xb1e8>
 1002138:	8f99                	sub	a5,a5,a4
 100213a:	00007697          	auipc	a3,0x7
 100213e:	9b66b683          	ld	a3,-1610(a3) # 1008af0 <__spl_start+0x7600>
 1002142:	878d                	srai	a5,a5,0x3
 1002144:	02d787bb          	mulw	a5,a5,a3
 1002148:	46e1                	li	a3,24
 100214a:	02c10b13          	addi	s6,sp,44
 100214e:	00007a97          	auipc	s5,0x7
 1002152:	952a8a93          	addi	s5,s5,-1710 # 1008aa0 <__spl_start+0x75b0>
 1002156:	00007b97          	auipc	s7,0x7
 100215a:	932b8b93          	addi	s7,s7,-1742 # 1008a88 <__spl_start+0x7598>
 100215e:	00810c13          	addi	s8,sp,8
 1002162:	02d787b3          	mul	a5,a5,a3
 1002166:	00f70a33          	add	s4,a4,a5
 100216a:	401c                	lw	a5,0(s0)
 100216c:	03278363          	beq	a5,s2,1002192 <__spl_start+0xca2>
 1002170:	0000a497          	auipc	s1,0xa
 1002174:	53848493          	addi	s1,s1,1336 # 100c6a8 <__spl_start+0xb1b8>
 1002178:	a029                	j	1002182 <__spl_start+0xc92>
 100217a:	4498                	lw	a4,8(s1)
 100217c:	02f70263          	beq	a4,a5,10021a0 <__spl_start+0xcb0>
 1002180:	04e1                	addi	s1,s1,24
 1002182:	ff449ce3          	bne	s1,s4,100217a <__spl_start+0xc8a>
 1002186:	8556                	mv	a0,s5
 1002188:	61b000ef          	jal	ra,1002fa2 <__spl_start+0x1ab2>
 100218c:	0411                	addi	s0,s0,4
 100218e:	fd641ee3          	bne	s0,s6,100216a <__spl_start+0xc7a>
 1002192:	00007517          	auipc	a0,0x7
 1002196:	92e50513          	addi	a0,a0,-1746 # 1008ac0 <__spl_start+0x75d0>
 100219a:	609000ef          	jal	ra,1002fa2 <__spl_start+0x1ab2>
 100219e:	bfb1                	j	10020fa <__spl_start+0xc0a>
 10021a0:	608c                	ld	a1,0(s1)
 10021a2:	855e                	mv	a0,s7
 10021a4:	4f0030ef          	jal	ra,1005694 <__spl_start+0x41a4>
 10021a8:	449c                	lw	a5,8(s1)
 10021aa:	e802                	sd	zero,16(sp)
 10021ac:	85e2                	mv	a1,s8
 10021ae:	c43e                	sw	a5,8(sp)
 10021b0:	689c                	ld	a5,16(s1)
 10021b2:	854e                	mv	a0,s3
 10021b4:	9782                	jalr	a5
 10021b6:	f979                	bnez	a0,100218c <__spl_start+0xc9c>
 10021b8:	401c                	lw	a5,0(s0)
 10021ba:	854e                	mv	a0,s3
 10021bc:	0000a317          	auipc	t1,0xa
 10021c0:	fec33303          	ld	t1,-20(t1) # 100c1a8 <__spl_start+0xacb8>
 10021c4:	ccbe                	sw	a5,88(sp)
 10021c6:	9302                	jalr	t1
 10021c8:	03814703          	lbu	a4,56(sp)
 10021cc:	47ed                	li	a5,27
 10021ce:	00f71563          	bne	a4,a5,10021d8 <__spl_start+0xce8>
 10021d2:	854e                	mv	a0,s3
 10021d4:	594000ef          	jal	ra,1002768 <__spl_start+0x1278>
 10021d8:	0a500513          	li	a0,165
 10021dc:	0000a317          	auipc	t1,0xa
 10021e0:	f4c33303          	ld	t1,-180(t1) # 100c128 <__spl_start+0xac38>
 10021e4:	9302                	jalr	t1
 10021e6:	0000a317          	auipc	t1,0xa
 10021ea:	fea33303          	ld	t1,-22(t1) # 100c1d0 <__spl_start+0xace0>
 10021ee:	9302                	jalr	t1
 10021f0:	854e                	mv	a0,s3
 10021f2:	0000a317          	auipc	t1,0xa
 10021f6:	f1633303          	ld	t1,-234(t1) # 100c108 <__spl_start+0xac18>
 10021fa:	9302                	jalr	t1
 10021fc:	1141                	addi	sp,sp,-16
 10021fe:	67f1                	lui	a5,0x1c
 1002200:	e406                	sd	ra,8(sp)
 1002202:	20078793          	addi	a5,a5,512 # 1c200 <_start-0xfe3e00>
 1002206:	00f1a823          	sw	a5,16(gp)
 100220a:	20c050ef          	jal	ra,1007416 <__spl_start+0x5f26>
 100220e:	4785                	li	a5,1
 1002210:	02f1bc23          	sd	a5,56(gp)
 1002214:	60a2                	ld	ra,8(sp)
 1002216:	00007517          	auipc	a0,0x7
 100221a:	ca250513          	addi	a0,a0,-862 # 1008eb8 <__spl_start+0x79c8>
 100221e:	0141                	addi	sp,sp,16
 1002220:	5830006f          	j	1002fa2 <__spl_start+0x1ab2>
 1002224:	4501                	li	a0,0
 1002226:	8082                	ret
 1002228:	7139                	addi	sp,sp,-64
 100222a:	f426                	sd	s1,40(sp)
 100222c:	f04a                	sd	s2,32(sp)
 100222e:	fc06                	sd	ra,56(sp)
 1002230:	f822                	sd	s0,48(sp)
 1002232:	ec4e                	sd	s3,24(sp)
 1002234:	8932                	mv	s2,a2
 1002236:	862e                	mv	a2,a1
 1002238:	494c                	lw	a1,20(a0)
 100223a:	6108                	ld	a0,0(a0)
 100223c:	84b6                	mv	s1,a3
 100223e:	0074                	addi	a3,sp,12
 1002240:	1c8020ef          	jal	ra,1004408 <__spl_start+0x2f18>
 1002244:	c11d                	beqz	a0,100226a <__spl_start+0xd7a>
 1002246:	842a                	mv	s0,a0
 1002248:	4981                	li	s3,0
 100224a:	0129c563          	blt	s3,s2,1002254 <__spl_start+0xd64>
 100224e:	e088                	sd	a0,0(s1)
 1002250:	4501                	li	a0,0
 1002252:	a829                	j	100226c <__spl_start+0xd7c>
 1002254:	4581                	li	a1,0
 1002256:	743020ef          	jal	ra,1005198 <__spl_start+0x3ca8>
 100225a:	47b2                	lw	a5,12(sp)
 100225c:	0505                	addi	a0,a0,1
 100225e:	40850733          	sub	a4,a0,s0
 1002262:	00f75c63          	bge	a4,a5,100227a <__spl_start+0xd8a>
 1002266:	2985                	addiw	s3,s3,1
 1002268:	b7cd                	j	100224a <__spl_start+0xd5a>
 100226a:	5529                	li	a0,-22
 100226c:	70e2                	ld	ra,56(sp)
 100226e:	7442                	ld	s0,48(sp)
 1002270:	74a2                	ld	s1,40(sp)
 1002272:	7902                	ld	s2,32(sp)
 1002274:	69e2                	ld	s3,24(sp)
 1002276:	6121                	addi	sp,sp,64
 1002278:	8082                	ret
 100227a:	5565                	li	a0,-7
 100227c:	bfc5                	j	100226c <__spl_start+0xd7c>
 100227e:	7179                	addi	sp,sp,-48
 1002280:	0034                	addi	a3,sp,8
 1002282:	f022                	sd	s0,32(sp)
 1002284:	f406                	sd	ra,40(sp)
 1002286:	ec26                	sd	s1,24(sp)
 1002288:	842a                	mv	s0,a0
 100228a:	f9fff0ef          	jal	ra,1002228 <__spl_start+0xd38>
 100228e:	e115                	bnez	a0,10022b2 <__spl_start+0xdc2>
 1002290:	64a2                	ld	s1,8(sp)
 1002292:	480c                	lw	a1,16(s0)
 1002294:	6008                	ld	a0,0(s0)
 1002296:	8626                	mv	a2,s1
 1002298:	006020ef          	jal	ra,100429e <__spl_start+0x2dae>
 100229c:	00055b63          	bgez	a0,10022b2 <__spl_start+0xdc2>
 10022a0:	862a                	mv	a2,a0
 10022a2:	85a6                	mv	a1,s1
 10022a4:	00008517          	auipc	a0,0x8
 10022a8:	ee450513          	addi	a0,a0,-284 # 100a188 <__spl_start+0x8c98>
 10022ac:	3e8030ef          	jal	ra,1005694 <__spl_start+0x41a4>
 10022b0:	5529                	li	a0,-22
 10022b2:	70a2                	ld	ra,40(sp)
 10022b4:	7402                	ld	s0,32(sp)
 10022b6:	64e2                	ld	s1,24(sp)
 10022b8:	6145                	addi	sp,sp,48
 10022ba:	8082                	ret
 10022bc:	7175                	addi	sp,sp,-144
 10022be:	e122                	sd	s0,128(sp)
 10022c0:	fca6                	sd	s1,120(sp)
 10022c2:	f8ca                	sd	s2,112(sp)
 10022c4:	f4ce                	sd	s3,104(sp)
 10022c6:	ecd6                	sd	s5,88(sp)
 10022c8:	e506                	sd	ra,136(sp)
 10022ca:	f0d2                	sd	s4,96(sp)
 10022cc:	e8da                	sd	s6,80(sp)
 10022ce:	e4de                	sd	s7,72(sp)
 10022d0:	00063a03          	ld	s4,0(a2) # ff0000 <_start-0x10000>
 10022d4:	892a                	mv	s2,a0
 10022d6:	8aae                	mv	s5,a1
 10022d8:	84b2                	mv	s1,a2
 10022da:	85b6                	mv	a1,a3
 10022dc:	1030                	addi	a2,sp,40
 10022de:	8552                	mv	a0,s4
 10022e0:	8436                	mv	s0,a3
 10022e2:	89ba                	mv	s3,a4
 10022e4:	001010ef          	jal	ra,1003ae4 <__spl_start+0x25f4>
 10022e8:	cd1d                	beqz	a0,1002326 <__spl_start+0xe36>
 10022ea:	0109b783          	ld	a5,16(s3)
 10022ee:	eb9d                	bnez	a5,1002324 <__spl_start+0xe34>
 10022f0:	4601                	li	a2,0
 10022f2:	85a2                	mv	a1,s0
 10022f4:	8552                	mv	a0,s4
 10022f6:	6b9010ef          	jal	ra,10041ae <__spl_start+0x2cbe>
 10022fa:	85aa                	mv	a1,a0
 10022fc:	00008517          	auipc	a0,0x8
 1002300:	f0c50513          	addi	a0,a0,-244 # 100a208 <__spl_start+0x8d18>
 1002304:	390030ef          	jal	ra,1005694 <__spl_start+0x41a4>
 1002308:	f9700793          	li	a5,-105
 100230c:	60aa                	ld	ra,136(sp)
 100230e:	640a                	ld	s0,128(sp)
 1002310:	74e6                	ld	s1,120(sp)
 1002312:	7946                	ld	s2,112(sp)
 1002314:	79a6                	ld	s3,104(sp)
 1002316:	7a06                	ld	s4,96(sp)
 1002318:	6ae6                	ld	s5,88(sp)
 100231a:	6b46                	ld	s6,80(sp)
 100231c:	6ba6                	ld	s7,72(sp)
 100231e:	853e                	mv	a0,a5
 1002320:	6149                	addi	sp,sp,144
 1002322:	8082                	ret
 1002324:	f43e                	sd	a5,40(sp)
 1002326:	0830                	addi	a2,sp,24
 1002328:	85a2                	mv	a1,s0
 100232a:	8552                	mv	a0,s4
 100232c:	e432                	sd	a2,8(sp)
 100232e:	051010ef          	jal	ra,1003b7e <__spl_start+0x268e>
 1002332:	c919                	beqz	a0,1002348 <__spl_start+0xe58>
 1002334:	6622                	ld	a2,8(sp)
 1002336:	85a2                	mv	a1,s0
 1002338:	8552                	mv	a0,s4
 100233a:	7f6010ef          	jal	ra,1003b30 <__spl_start+0x2640>
 100233e:	ed49                	bnez	a0,10023d8 <__spl_start+0xee8>
 1002340:	47e2                	lw	a5,24(sp)
 1002342:	6498                	ld	a4,8(s1)
 1002344:	9fb9                	addw	a5,a5,a4
 1002346:	cc3e                	sw	a5,24(sp)
 1002348:	0870                	addi	a2,sp,28
 100234a:	85a2                	mv	a1,s0
 100234c:	8552                	mv	a0,s4
 100234e:	07f010ef          	jal	ra,1003bcc <__spl_start+0x26dc>
 1002352:	57f9                	li	a5,-2
 1002354:	fd45                	bnez	a0,100230c <__spl_start+0xe1c>
 1002356:	47f2                	lw	a5,28(sp)
 1002358:	74a2                	ld	s1,40(sp)
 100235a:	45e2                	lw	a1,24(sp)
 100235c:	01893703          	ld	a4,24(s2) # ffffffffffff8018 <__soc_ctrl_scratch1+0xfffffffffdff8000>
 1002360:	04fd                	addi	s1,s1,31
 1002362:	f03e                	sd	a5,32(sp)
 1002364:	9881                	andi	s1,s1,-32
 1002366:	01f5fb93          	andi	s7,a1,31
 100236a:	e709                	bnez	a4,1002374 <__spl_start+0xe84>
 100236c:	01092b83          	lw	s7,16(s2)
 1002370:	0375ebbb          	remw	s7,a1,s7
 1002374:	01778b3b          	addw	s6,a5,s7
 1002378:	87da                	mv	a5,s6
 100237a:	eb01                	bnez	a4,100238a <__spl_start+0xe9a>
 100237c:	01092b03          	lw	s6,16(s2)
 1002380:	016787bb          	addw	a5,a5,s6
 1002384:	37fd                	addiw	a5,a5,-1
 1002386:	0367cb3b          	divw	s6,a5,s6
 100238a:	02093783          	ld	a5,32(s2)
 100238e:	c725                	beqz	a4,10023f6 <__spl_start+0xf06>
 1002390:	9981                	andi	a1,a1,-32
 1002392:	95d6                	add	a1,a1,s5
 1002394:	86a6                	mv	a3,s1
 1002396:	865a                	mv	a2,s6
 1002398:	854a                	mv	a0,s2
 100239a:	9782                	jalr	a5
 100239c:	57ed                	li	a5,-5
 100239e:	017485b3          	add	a1,s1,s7
 10023a2:	f6ab15e3          	bne	s6,a0,100230c <__spl_start+0xe1c>
 10023a6:	7602                	ld	a2,32(sp)
 10023a8:	7522                	ld	a0,40(sp)
 10023aa:	aa7ff0ef          	jal	ra,1001e50 <__spl_start+0x960>
 10023ae:	4781                	li	a5,0
 10023b0:	f4098ee3          	beqz	s3,100230c <__spl_start+0xe1c>
 10023b4:	77a2                	ld	a5,40(sp)
 10023b6:	1830                	addi	a2,sp,56
 10023b8:	85a2                	mv	a1,s0
 10023ba:	00f9b823          	sd	a5,16(s3)
 10023be:	7782                	ld	a5,32(sp)
 10023c0:	8552                	mv	a0,s4
 10023c2:	02f9a623          	sw	a5,44(s3)
 10023c6:	72a010ef          	jal	ra,1003af0 <__spl_start+0x2600>
 10023ca:	57fd                	li	a5,-1
 10023cc:	e111                	bnez	a0,10023d0 <__spl_start+0xee0>
 10023ce:	77e2                	ld	a5,56(sp)
 10023d0:	00f9bc23          	sd	a5,24(s3)
 10023d4:	4781                	li	a5,0
 10023d6:	bf1d                	j	100230c <__spl_start+0xe1c>
 10023d8:	1014                	addi	a3,sp,32
 10023da:	1810                	addi	a2,sp,48
 10023dc:	85a2                	mv	a1,s0
 10023de:	8552                	mv	a0,s4
 10023e0:	71c010ef          	jal	ra,1003afc <__spl_start+0x260c>
 10023e4:	cd11                	beqz	a0,1002400 <__spl_start+0xf10>
 10023e6:	00008517          	auipc	a0,0x8
 10023ea:	e5250513          	addi	a0,a0,-430 # 100a238 <__spl_start+0x8d48>
 10023ee:	3b5000ef          	jal	ra,1002fa2 <__spl_start+0x1ab2>
 10023f2:	57f9                	li	a5,-2
 10023f4:	bf21                	j	100230c <__spl_start+0xe1c>
 10023f6:	01092703          	lw	a4,16(s2)
 10023fa:	02e5c5bb          	divw	a1,a1,a4
 10023fe:	bf51                	j	1002392 <__spl_start+0xea2>
 1002400:	75c2                	ld	a1,48(sp)
 1002402:	b755                	j	10023a6 <__spl_start+0xeb6>
 1002404:	7159                	addi	sp,sp,-112
 1002406:	f0a2                	sd	s0,96(sp)
 1002408:	eca6                	sd	s1,88(sp)
 100240a:	e4ce                	sd	s3,72(sp)
 100240c:	e0d2                	sd	s4,64(sp)
 100240e:	f486                	sd	ra,104(sp)
 1002410:	e8ca                	sd	s2,80(sp)
 1002412:	02c56903          	lwu	s2,44(a0)
 1002416:	691c                	ld	a5,16(a0)
 1002418:	842a                	mv	s0,a0
 100241a:	89ae                	mv	s3,a1
 100241c:	8a32                	mv	s4,a2
 100241e:	993e                	add	s2,s2,a5
 1002420:	4601                	li	a2,0
 1002422:	00008597          	auipc	a1,0x8
 1002426:	d5e58593          	addi	a1,a1,-674 # 100a180 <__spl_start+0x8c90>
 100242a:	8536                	mv	a0,a3
 100242c:	84b6                	mv	s1,a3
 100242e:	e84a                	sd	s2,16(sp)
 1002430:	e4fff0ef          	jal	ra,100227e <__spl_start+0xd8e>
 1002434:	04055963          	bgez	a0,1002486 <__spl_start+0xf96>
 1002438:	0d81b583          	ld	a1,216(gp)
 100243c:	cdb1                	beqz	a1,1002498 <__spl_start+0xfa8>
 100243e:	41dc                	lw	a5,4(a1)
 1002440:	00ff06b7          	lui	a3,0xff0
 1002444:	854a                	mv	a0,s2
 1002446:	0187d71b          	srliw	a4,a5,0x18
 100244a:	0187961b          	slliw	a2,a5,0x18
 100244e:	8e59                	or	a2,a2,a4
 1002450:	0087971b          	slliw	a4,a5,0x8
 1002454:	8f75                	and	a4,a4,a3
 1002456:	8e59                	or	a2,a2,a4
 1002458:	6741                	lui	a4,0x10
 100245a:	0087d79b          	srliw	a5,a5,0x8
 100245e:	f0070713          	addi	a4,a4,-256 # ff00 <_start-0xff0100>
 1002462:	8ff9                	and	a5,a5,a4
 1002464:	8e5d                	or	a2,a2,a5
 1002466:	1602                	slli	a2,a2,0x20
 1002468:	9201                	srli	a2,a2,0x20
 100246a:	9e7ff0ef          	jal	ra,1001e50 <__spl_start+0x960>
 100246e:	6542                	ld	a0,16(sp)
 1002470:	70a6                	ld	ra,104(sp)
 1002472:	64e6                	ld	s1,88(sp)
 1002474:	f008                	sd	a0,32(s0)
 1002476:	7406                	ld	s0,96(sp)
 1002478:	6946                	ld	s2,80(sp)
 100247a:	69a6                	ld	s3,72(sp)
 100247c:	6a06                	ld	s4,64(sp)
 100247e:	6589                	lui	a1,0x2
 1002480:	6165                	addi	sp,sp,112
 1002482:	1d50006f          	j	1002e56 <__spl_start+0x1966>
 1002486:	86aa                	mv	a3,a0
 1002488:	870a                	mv	a4,sp
 100248a:	8626                	mv	a2,s1
 100248c:	85d2                	mv	a1,s4
 100248e:	854e                	mv	a0,s3
 1002490:	e2dff0ef          	jal	ra,10022bc <__spl_start+0xdcc>
 1002494:	fc055de3          	bgez	a0,100246e <__spl_start+0xf7e>
 1002498:	70a6                	ld	ra,104(sp)
 100249a:	7406                	ld	s0,96(sp)
 100249c:	64e6                	ld	s1,88(sp)
 100249e:	6946                	ld	s2,80(sp)
 10024a0:	69a6                	ld	s3,72(sp)
 10024a2:	6a06                	ld	s4,64(sp)
 10024a4:	6165                	addi	sp,sp,112
 10024a6:	8082                	ret
 10024a8:	8082                	ret
 10024aa:	4501                	li	a0,0
 10024ac:	8082                	ret
 10024ae:	712d                	addi	sp,sp,-288
 10024b0:	ea22                	sd	s0,272(sp)
 10024b2:	e626                	sd	s1,264(sp)
 10024b4:	fdce                	sd	s3,248(sp)
 10024b6:	f9d2                	sd	s4,240(sp)
 10024b8:	f1da                	sd	s6,224(sp)
 10024ba:	ee06                	sd	ra,280(sp)
 10024bc:	e24a                	sd	s2,256(sp)
 10024be:	f5d6                	sd	s5,232(sp)
 10024c0:	edde                	sd	s7,216(sp)
 10024c2:	e9e2                	sd	s8,208(sp)
 10024c4:	e5e6                	sd	s9,200(sp)
 10024c6:	e1ea                	sd	s10,192(sp)
 10024c8:	fd6e                	sd	s11,184(sp)
 10024ca:	42dc                	lw	a5,4(a3)
 10024cc:	842a                	mv	s0,a0
 10024ce:	00ff06b7          	lui	a3,0xff0
 10024d2:	0187d71b          	srliw	a4,a5,0x18
 10024d6:	0187951b          	slliw	a0,a5,0x18
 10024da:	8d59                	or	a0,a0,a4
 10024dc:	0087971b          	slliw	a4,a5,0x8
 10024e0:	8f75                	and	a4,a4,a3
 10024e2:	8d59                	or	a0,a0,a4
 10024e4:	6741                	lui	a4,0x10
 10024e6:	f0070713          	addi	a4,a4,-256 # ff00 <_start-0xff0100>
 10024ea:	0087d79b          	srliw	a5,a5,0x8
 10024ee:	8ff9                	and	a5,a5,a4
 10024f0:	8d5d                	or	a0,a0,a5
 10024f2:	250d                	addiw	a0,a0,3
 10024f4:	9971                	andi	a0,a0,-4
 10024f6:	1502                	slli	a0,a0,0x20
 10024f8:	9101                	srli	a0,a0,0x20
 10024fa:	0000a317          	auipc	t1,0xa
 10024fe:	c5e33303          	ld	t1,-930(t1) # 100c158 <__spl_start+0xac68>
 1002502:	89ae                	mv	s3,a1
 1002504:	8b32                	mv	s6,a2
 1002506:	9302                	jalr	t1
 1002508:	00350793          	addi	a5,a0,3
 100250c:	9bf1                	andi	a5,a5,-4
 100250e:	f0be                	sd	a5,96(sp)
 1002510:	0189b783          	ld	a5,24(s3)
 1002514:	0109aa03          	lw	s4,16(s3)
 1002518:	0005049b          	sext.w	s1,a0
 100251c:	e791                	bnez	a5,1002528 <__spl_start+0x1038>
 100251e:	014484bb          	addw	s1,s1,s4
 1002522:	34fd                	addiw	s1,s1,-1
 1002524:	0344c4bb          	divw	s1,s1,s4
 1002528:	029a0a3b          	mulw	s4,s4,s1
 100252c:	8552                	mv	a0,s4
 100252e:	56f000ef          	jal	ra,100329c <__spl_start+0x1dac>
 1002532:	892a                	mv	s2,a0
 1002534:	e11d                	bnez	a0,100255a <__spl_start+0x106a>
 1002536:	85d2                	mv	a1,s4
 1002538:	00008517          	auipc	a0,0x8
 100253c:	d2050513          	addi	a0,a0,-736 # 100a258 <__spl_start+0x8d68>
 1002540:	154030ef          	jal	ra,1005694 <__spl_start+0x41a4>
 1002544:	00008517          	auipc	a0,0x8
 1002548:	d3c50513          	addi	a0,a0,-708 # 100a280 <__spl_start+0x8d90>
 100254c:	148030ef          	jal	ra,1005694 <__spl_start+0x41a4>
 1002550:	85d2                	mv	a1,s4
 1002552:	4501                	li	a0,0
 1002554:	a45ff0ef          	jal	ra,1001f98 <__spl_start+0xaa8>
 1002558:	892a                	mv	s2,a0
 100255a:	0209b783          	ld	a5,32(s3)
 100255e:	8626                	mv	a2,s1
 1002560:	86ca                	mv	a3,s2
 1002562:	85da                	mv	a1,s6
 1002564:	854e                	mv	a0,s3
 1002566:	9782                	jalr	a5
 1002568:	ecca                	sd	s2,88(sp)
 100256a:	54ed                	li	s1,-5
 100256c:	cd19                	beqz	a0,100258a <__spl_start+0x109a>
 100256e:	0000a317          	auipc	t1,0xa
 1002572:	bca33303          	ld	t1,-1078(t1) # 100c138 <__spl_start+0xac48>
 1002576:	9302                	jalr	t1
 1002578:	4481                	li	s1,0
 100257a:	e901                	bnez	a0,100258a <__spl_start+0x109a>
 100257c:	6566                	ld	a0,88(sp)
 100257e:	5d8000ef          	jal	ra,1002b56 <__spl_start+0x1666>
 1002582:	d6aa                	sw	a0,108(sp)
 1002584:	02055363          	bgez	a0,10025aa <__spl_start+0x10ba>
 1002588:	54a9                	li	s1,-22
 100258a:	60f2                	ld	ra,280(sp)
 100258c:	6452                	ld	s0,272(sp)
 100258e:	6912                	ld	s2,256(sp)
 1002590:	79ee                	ld	s3,248(sp)
 1002592:	7a4e                	ld	s4,240(sp)
 1002594:	7aae                	ld	s5,232(sp)
 1002596:	7b0e                	ld	s6,224(sp)
 1002598:	6bee                	ld	s7,216(sp)
 100259a:	6c4e                	ld	s8,208(sp)
 100259c:	6cae                	ld	s9,200(sp)
 100259e:	6d0e                	ld	s10,192(sp)
 10025a0:	7dea                	ld	s11,184(sp)
 10025a2:	8526                	mv	a0,s1
 10025a4:	64b2                	ld	s1,264(sp)
 10025a6:	6115                	addi	sp,sp,288
 10025a8:	8082                	ret
 10025aa:	6566                	ld	a0,88(sp)
 10025ac:	00008597          	auipc	a1,0x8
 10025b0:	cfc58593          	addi	a1,a1,-772 # 100a2a8 <__spl_start+0x8db8>
 10025b4:	765010ef          	jal	ra,1004518 <__spl_start+0x3028>
 10025b8:	d4aa                	sw	a0,104(sp)
 10025ba:	fc0547e3          	bltz	a0,1002588 <__spl_start+0x1098>
 10025be:	05810a13          	addi	s4,sp,88
 10025c2:	4601                	li	a2,0
 10025c4:	00008597          	auipc	a1,0x8
 10025c8:	cec58593          	addi	a1,a1,-788 # 100a2b0 <__spl_start+0x8dc0>
 10025cc:	8552                	mv	a0,s4
 10025ce:	cb1ff0ef          	jal	ra,100227e <__spl_start+0xd8e>
 10025d2:	892a                	mv	s2,a0
 10025d4:	4a81                	li	s5,0
 10025d6:	00055f63          	bgez	a0,10025f4 <__spl_start+0x1104>
 10025da:	4601                	li	a2,0
 10025dc:	00008597          	auipc	a1,0x8
 10025e0:	ce458593          	addi	a1,a1,-796 # 100a2c0 <__spl_start+0x8dd0>
 10025e4:	8552                	mv	a0,s4
 10025e6:	c99ff0ef          	jal	ra,100227e <__spl_start+0xd8e>
 10025ea:	892a                	mv	s2,a0
 10025ec:	54fd                	li	s1,-1
 10025ee:	f8054ee3          	bltz	a0,100258a <__spl_start+0x109a>
 10025f2:	4a85                	li	s5,1
 10025f4:	8722                	mv	a4,s0
 10025f6:	86ca                	mv	a3,s2
 10025f8:	8652                	mv	a2,s4
 10025fa:	85da                	mv	a1,s6
 10025fc:	854e                	mv	a0,s3
 10025fe:	cbfff0ef          	jal	ra,10022bc <__spl_start+0xdcc>
 1002602:	84aa                	mv	s1,a0
 1002604:	f159                	bnez	a0,100258a <__spl_start+0x109a>
 1002606:	6566                	ld	a0,88(sp)
 1002608:	00840613          	addi	a2,s0,8 # ffffffffffff9008 <__soc_ctrl_scratch1+0xfffffffffdff8ff0>
 100260c:	85ca                	mv	a1,s2
 100260e:	4a0010ef          	jal	ra,1003aae <__spl_start+0x25be>
 1002612:	c11d                	beqz	a0,1002638 <__spl_start+0x1148>
 1002614:	47c5                	li	a5,17
 1002616:	00f40423          	sb	a5,8(s0)
 100261a:	86d2                	mv	a3,s4
 100261c:	865a                	mv	a2,s6
 100261e:	85ce                	mv	a1,s3
 1002620:	8522                	mv	a0,s0
 1002622:	de3ff0ef          	jal	ra,1002404 <__spl_start+0xf14>
 1002626:	00055e63          	bgez	a0,1002642 <__spl_start+0x1152>
 100262a:	00844703          	lbu	a4,8(s0)
 100262e:	47c5                	li	a5,17
 1002630:	00f70963          	beq	a4,a5,1002642 <__spl_start+0x1152>
 1002634:	84aa                	mv	s1,a0
 1002636:	bf91                	j	100258a <__spl_start+0x109a>
 1002638:	00844703          	lbu	a4,8(s0)
 100263c:	47c5                	li	a5,17
 100263e:	fcf70ee3          	beq	a4,a5,100261a <__spl_start+0x112a>
 1002642:	04f10793          	addi	a5,sp,79
 1002646:	00008b97          	auipc	s7,0x8
 100264a:	c7ab8b93          	addi	s7,s7,-902 # 100a2c0 <__spl_start+0x8dd0>
 100264e:	07010c93          	addi	s9,sp,112
 1002652:	e43e                	sd	a5,8(sp)
 1002654:	5d7d                	li	s10,-1
 1002656:	05010d93          	addi	s11,sp,80
 100265a:	8656                	mv	a2,s5
 100265c:	85de                	mv	a1,s7
 100265e:	8552                	mv	a0,s4
 1002660:	040107a3          	sb	zero,79(sp)
 1002664:	c1bff0ef          	jal	ra,100227e <__spl_start+0xd8e>
 1002668:	8c2a                	mv	s8,a0
 100266a:	0e054363          	bltz	a0,1002750 <__spl_start+0x1260>
 100266e:	01251463          	bne	a0,s2,1002676 <__spl_start+0x1186>
 1002672:	2a85                	addiw	s5,s5,1
 1002674:	b7dd                	j	100265a <__spl_start+0x116a>
 1002676:	86aa                	mv	a3,a0
 1002678:	8766                	mv	a4,s9
 100267a:	8652                	mv	a2,s4
 100267c:	85da                	mv	a1,s6
 100267e:	854e                	mv	a0,s3
 1002680:	e102                	sd	zero,128(sp)
 1002682:	c3bff0ef          	jal	ra,10022bc <__spl_start+0xdcc>
 1002686:	86aa                	mv	a3,a0
 1002688:	02055163          	bgez	a0,10026aa <__spl_start+0x11ba>
 100268c:	e42a                	sd	a0,8(sp)
 100268e:	8656                	mv	a2,s5
 1002690:	00006597          	auipc	a1,0x6
 1002694:	15858593          	addi	a1,a1,344 # 10087e8 <__spl_start+0x72f8>
 1002698:	00008517          	auipc	a0,0x8
 100269c:	c3850513          	addi	a0,a0,-968 # 100a2d0 <__spl_start+0x8de0>
 10026a0:	7f5020ef          	jal	ra,1005694 <__spl_start+0x41a4>
 10026a4:	66a2                	ld	a3,8(sp)
 10026a6:	84b6                	mv	s1,a3
 10026a8:	b5cd                	j	100258a <__spl_start+0x109a>
 10026aa:	6622                	ld	a2,8(sp)
 10026ac:	6566                	ld	a0,88(sp)
 10026ae:	85e2                	mv	a1,s8
 10026b0:	3fe010ef          	jal	ra,1003aae <__spl_start+0x25be>
 10026b4:	04f14783          	lbu	a5,79(sp)
 10026b8:	4745                	li	a4,17
 10026ba:	00e79a63          	bne	a5,a4,10026ce <__spl_start+0x11de>
 10026be:	86d2                	mv	a3,s4
 10026c0:	865a                	mv	a2,s6
 10026c2:	85ce                	mv	a1,s3
 10026c4:	8566                	mv	a0,s9
 10026c6:	d3fff0ef          	jal	ra,1002404 <__spl_start+0xf14>
 10026ca:	67ca                	ld	a5,144(sp)
 10026cc:	f01c                	sd	a5,32(s0)
 10026ce:	6c1c                	ld	a5,24(s0)
 10026d0:	01a79663          	bne	a5,s10,10026dc <__spl_start+0x11ec>
 10026d4:	67aa                	ld	a5,136(sp)
 10026d6:	01a78363          	beq	a5,s10,10026dc <__spl_start+0x11ec>
 10026da:	ec1c                	sd	a5,24(s0)
 10026dc:	02043c03          	ld	s8,32(s0)
 10026e0:	f80c09e3          	beqz	s8,1002672 <__spl_start+0x1182>
 10026e4:	86ee                	mv	a3,s11
 10026e6:	8656                	mv	a2,s5
 10026e8:	85de                	mv	a1,s7
 10026ea:	8552                	mv	a0,s4
 10026ec:	b3dff0ef          	jal	ra,1002228 <__spl_start+0xd38>
 10026f0:	f80541e3          	bltz	a0,1002672 <__spl_start+0x1182>
 10026f4:	8656                	mv	a2,s5
 10026f6:	85de                	mv	a1,s7
 10026f8:	8552                	mv	a0,s4
 10026fa:	b85ff0ef          	jal	ra,100227e <__spl_start+0xd8e>
 10026fe:	6346                	ld	t1,80(sp)
 1002700:	6e0a                	ld	t3,128(sp)
 1002702:	477a                	lw	a4,156(sp)
 1002704:	67aa                	ld	a5,136(sp)
 1002706:	85aa                	mv	a1,a0
 1002708:	ec2a                	sd	a0,24(sp)
 100270a:	6566                	ld	a0,88(sp)
 100270c:	4681                	li	a3,0
 100270e:	00008617          	auipc	a2,0x8
 1002712:	bfa60613          	addi	a2,a2,-1030 # 100a308 <__spl_start+0x8e18>
 1002716:	fc1a                	sd	t1,56(sp)
 1002718:	f872                	sd	t3,48(sp)
 100271a:	f43a                	sd	a4,40(sp)
 100271c:	f03e                	sd	a5,32(sp)
 100271e:	4eb010ef          	jal	ra,1004408 <__spl_start+0x2f18>
 1002722:	65e2                	ld	a1,24(sp)
 1002724:	e82a                	sd	a0,16(sp)
 1002726:	6566                	ld	a0,88(sp)
 1002728:	4681                	li	a3,0
 100272a:	00008617          	auipc	a2,0x8
 100272e:	be660613          	addi	a2,a2,-1050 # 100a310 <__spl_start+0x8e20>
 1002732:	4d7010ef          	jal	ra,1004408 <__spl_start+0x2f18>
 1002736:	7e42                	ld	t3,48(sp)
 1002738:	7362                	ld	t1,56(sp)
 100273a:	6842                	ld	a6,16(sp)
 100273c:	7782                	ld	a5,32(sp)
 100273e:	7722                	ld	a4,40(sp)
 1002740:	88aa                	mv	a7,a0
 1002742:	86f2                	mv	a3,t3
 1002744:	861a                	mv	a2,t1
 1002746:	85d6                	mv	a1,s5
 1002748:	8562                	mv	a0,s8
 100274a:	534000ef          	jal	ra,1002c7e <__spl_start+0x178e>
 100274e:	b715                	j	1002672 <__spl_start+0x1182>
 1002750:	6c1c                	ld	a5,24(s0)
 1002752:	5775                	li	a4,-3
 1002754:	17fd                	addi	a5,a5,-1
 1002756:	00f77463          	bgeu	a4,a5,100275e <__spl_start+0x126e>
 100275a:	681c                	ld	a5,16(s0)
 100275c:	ec1c                	sd	a5,24(s0)
 100275e:	581c                	lw	a5,48(s0)
 1002760:	0027e793          	ori	a5,a5,2
 1002764:	d81c                	sw	a5,48(s0)
 1002766:	b515                	j	100258a <__spl_start+0x109a>
 1002768:	715d                	addi	sp,sp,-80
 100276a:	e486                	sd	ra,72(sp)
 100276c:	e0a2                	sd	s0,64(sp)
 100276e:	fc26                	sd	s1,56(sp)
 1002770:	f84a                	sd	s2,48(sp)
 1002772:	f44e                	sd	s3,40(sp)
 1002774:	7100                	ld	s0,32(a0)
 1002776:	e809                	bnez	s0,1002788 <__spl_start+0x1298>
 1002778:	00008517          	auipc	a0,0x8
 100277c:	a3850513          	addi	a0,a0,-1480 # 100a1b0 <__spl_start+0x8cc0>
 1002780:	715020ef          	jal	ra,1005694 <__spl_start+0x41a4>
 1002784:	157020ef          	jal	ra,10050da <__spl_start+0x3bea>
 1002788:	00008597          	auipc	a1,0x8
 100278c:	a5058593          	addi	a1,a1,-1456 # 100a1d8 <__spl_start+0x8ce8>
 1002790:	84aa                	mv	s1,a0
 1002792:	8522                	mv	a0,s0
 1002794:	585010ef          	jal	ra,1004518 <__spl_start+0x3028>
 1002798:	85aa                	mv	a1,a0
 100279a:	00055a63          	bgez	a0,10027ae <__spl_start+0x12be>
 100279e:	55b5                	li	a1,-19
 10027a0:	00008517          	auipc	a0,0x8
 10027a4:	a4850513          	addi	a0,a0,-1464 # 100a1e8 <__spl_start+0x8cf8>
 10027a8:	6ed020ef          	jal	ra,1005694 <__spl_start+0x41a4>
 10027ac:	bfe1                	j	1002784 <__spl_start+0x1294>
 10027ae:	8522                	mv	a0,s0
 10027b0:	6f0010ef          	jal	ra,1003ea0 <__spl_start+0x29b0>
 10027b4:	85aa                	mv	a1,a0
 10027b6:	00008917          	auipc	s2,0x8
 10027ba:	b5a90913          	addi	s2,s2,-1190 # 100a310 <__spl_start+0x8e20>
 10027be:	49c5                	li	s3,17
 10027c0:	fc05cfe3          	bltz	a1,100279e <__spl_start+0x12ae>
 10027c4:	4681                	li	a3,0
 10027c6:	864a                	mv	a2,s2
 10027c8:	8522                	mv	a0,s0
 10027ca:	e02e                	sd	a1,0(sp)
 10027cc:	43d010ef          	jal	ra,1004408 <__spl_start+0x2f18>
 10027d0:	6582                	ld	a1,0(sp)
 10027d2:	16050563          	beqz	a0,100293c <__spl_start+0x144c>
 10027d6:	236010ef          	jal	ra,1003a0c <__spl_start+0x251c>
 10027da:	6582                	ld	a1,0(sp)
 10027dc:	17351063          	bne	a0,s3,100293c <__spl_start+0x144c>
 10027e0:	7088                	ld	a0,32(s1)
 10027e2:	0830                	addi	a2,sp,24
 10027e4:	e432                	sd	a2,8(sp)
 10027e6:	30a010ef          	jal	ra,1003af0 <__spl_start+0x2600>
 10027ea:	6582                	ld	a1,0(sp)
 10027ec:	6622                	ld	a2,8(sp)
 10027ee:	c501                	beqz	a0,10027f6 <__spl_start+0x1306>
 10027f0:	7088                	ld	a0,32(s1)
 10027f2:	2f2010ef          	jal	ra,1003ae4 <__spl_start+0x25f4>
 10027f6:	0000a417          	auipc	s0,0xa
 10027fa:	8d243403          	ld	s0,-1838(s0) # 100c0c8 <__spl_start+0xabd8>
 10027fe:	04f00793          	li	a5,79
 1002802:	00f40023          	sb	a5,0(s0)
 1002806:	05300793          	li	a5,83
 100280a:	00f400a3          	sb	a5,1(s0)
 100280e:	04200793          	li	a5,66
 1002812:	00f40123          	sb	a5,2(s0)
 1002816:	04900793          	li	a5,73
 100281a:	00f401a3          	sb	a5,3(s0)
 100281e:	67e2                	ld	a5,24(sp)
 1002820:	4709                	li	a4,2
 1002822:	00e40423          	sb	a4,8(s0)
 1002826:	0087d693          	srli	a3,a5,0x8
 100282a:	00d408a3          	sb	a3,17(s0)
 100282e:	0107d693          	srli	a3,a5,0x10
 1002832:	00d40923          	sb	a3,18(s0)
 1002836:	0187d69b          	srliw	a3,a5,0x18
 100283a:	00d409a3          	sb	a3,19(s0)
 100283e:	0207d693          	srli	a3,a5,0x20
 1002842:	00d40a23          	sb	a3,20(s0)
 1002846:	0287d693          	srli	a3,a5,0x28
 100284a:	00f40823          	sb	a5,16(s0)
 100284e:	00d40aa3          	sb	a3,21(s0)
 1002852:	0307d693          	srli	a3,a5,0x30
 1002856:	93e1                	srli	a5,a5,0x38
 1002858:	00f40ba3          	sb	a5,23(s0)
 100285c:	4785                	li	a5,1
 100285e:	00d40b23          	sb	a3,22(s0)
 1002862:	00f40c23          	sb	a5,24(s0)
 1002866:	00040223          	sb	zero,4(s0)
 100286a:	000402a3          	sb	zero,5(s0)
 100286e:	00040323          	sb	zero,6(s0)
 1002872:	000403a3          	sb	zero,7(s0)
 1002876:	000404a3          	sb	zero,9(s0)
 100287a:	00040523          	sb	zero,10(s0)
 100287e:	000405a3          	sb	zero,11(s0)
 1002882:	00040623          	sb	zero,12(s0)
 1002886:	000406a3          	sb	zero,13(s0)
 100288a:	00040723          	sb	zero,14(s0)
 100288e:	000407a3          	sb	zero,15(s0)
 1002892:	00040ca3          	sb	zero,25(s0)
 1002896:	00040d23          	sb	zero,26(s0)
 100289a:	00040da3          	sb	zero,27(s0)
 100289e:	00040e23          	sb	zero,28(s0)
 10028a2:	00040ea3          	sb	zero,29(s0)
 10028a6:	00040f23          	sb	zero,30(s0)
 10028aa:	00040fa3          	sb	zero,31(s0)
 10028ae:	1401b783          	ld	a5,320(gp)
 10028b2:	02e40023          	sb	a4,32(s0)
 10028b6:	020400a3          	sb	zero,33(s0)
 10028ba:	0087d713          	srli	a4,a5,0x8
 10028be:	02e404a3          	sb	a4,41(s0)
 10028c2:	0107d713          	srli	a4,a5,0x10
 10028c6:	02e40523          	sb	a4,42(s0)
 10028ca:	0187d71b          	srliw	a4,a5,0x18
 10028ce:	02e405a3          	sb	a4,43(s0)
 10028d2:	0207d713          	srli	a4,a5,0x20
 10028d6:	02e40623          	sb	a4,44(s0)
 10028da:	0287d713          	srli	a4,a5,0x28
 10028de:	02f40423          	sb	a5,40(s0)
 10028e2:	02e406a3          	sb	a4,45(s0)
 10028e6:	0307d713          	srli	a4,a5,0x30
 10028ea:	93e1                	srli	a5,a5,0x38
 10028ec:	02040123          	sb	zero,34(s0)
 10028f0:	020401a3          	sb	zero,35(s0)
 10028f4:	02040223          	sb	zero,36(s0)
 10028f8:	020402a3          	sb	zero,37(s0)
 10028fc:	02040323          	sb	zero,38(s0)
 1002900:	020403a3          	sb	zero,39(s0)
 1002904:	02e40723          	sb	a4,46(s0)
 1002908:	02f407a3          	sb	a5,47(s0)
 100290c:	0184b903          	ld	s2,24(s1)
 1002910:	fb3fe0ef          	jal	ra,10018c2 <__spl_start+0x3d2>
 1002914:	708c                	ld	a1,32(s1)
 1002916:	6c88                	ld	a0,24(s1)
 1002918:	4685                	li	a3,1
 100291a:	8622                	mv	a2,s0
 100291c:	9c4ff0ef          	jal	ra,1001ae0 <__spl_start+0x5f0>
 1002920:	e60512e3          	bnez	a0,1002784 <__spl_start+0x1294>
 1002924:	708c                	ld	a1,32(s1)
 1002926:	1401b503          	ld	a0,320(gp)
 100292a:	8622                	mv	a2,s0
 100292c:	9902                	jalr	s2
 100292e:	60a6                	ld	ra,72(sp)
 1002930:	6406                	ld	s0,64(sp)
 1002932:	74e2                	ld	s1,56(sp)
 1002934:	7942                	ld	s2,48(sp)
 1002936:	79a2                	ld	s3,40(sp)
 1002938:	6161                	addi	sp,sp,80
 100293a:	8082                	ret
 100293c:	8522                	mv	a0,s0
 100293e:	582010ef          	jal	ra,1003ec0 <__spl_start+0x29d0>
 1002942:	85aa                	mv	a1,a0
 1002944:	bdb5                	j	10027c0 <__spl_start+0x12d0>
 1002946:	1141                	addi	sp,sp,-16
 1002948:	e022                	sd	s0,0(sp)
 100294a:	e406                	sd	ra,8(sp)
 100294c:	611c                	ld	a5,0(a0)
 100294e:	2581                	sext.w	a1,a1
 1002950:	8432                	mv	s0,a2
 1002952:	1887b503          	ld	a0,392(a5)
 1002956:	064040ef          	jal	ra,10069ba <__spl_start+0x54ca>
 100295a:	c111                	beqz	a0,100295e <__spl_start+0x146e>
 100295c:	4401                	li	s0,0
 100295e:	60a2                	ld	ra,8(sp)
 1002960:	8522                	mv	a0,s0
 1002962:	6402                	ld	s0,0(sp)
 1002964:	0141                	addi	sp,sp,16
 1002966:	8082                	ret
 1002968:	4501                	li	a0,0
 100296a:	8082                	ret
 100296c:	7159                	addi	sp,sp,-112
 100296e:	000f4637          	lui	a2,0xf4
 1002972:	eca6                	sd	s1,88(sp)
 1002974:	468d                	li	a3,3
 1002976:	84aa                	mv	s1,a0
 1002978:	24060613          	addi	a2,a2,576 # f4240 <_start-0xf0bdc0>
 100297c:	4581                	li	a1,0
 100297e:	4501                	li	a0,0
 1002980:	f486                	sd	ra,104(sp)
 1002982:	f0a2                	sd	s0,96(sp)
 1002984:	e8ca                	sd	s2,80(sp)
 1002986:	e4ce                	sd	s3,72(sp)
 1002988:	07c040ef          	jal	ra,1006a04 <__spl_start+0x5514>
 100298c:	ed19                	bnez	a0,10029aa <__spl_start+0x14ba>
 100298e:	00008517          	auipc	a0,0x8
 1002992:	99250513          	addi	a0,a0,-1646 # 100a320 <__spl_start+0x8e30>
 1002996:	60c000ef          	jal	ra,1002fa2 <__spl_start+0x1ab2>
 100299a:	5535                	li	a0,-19
 100299c:	70a6                	ld	ra,104(sp)
 100299e:	7406                	ld	s0,96(sp)
 10029a0:	64e6                	ld	s1,88(sp)
 10029a2:	6946                	ld	s2,80(sp)
 10029a4:	69a6                	ld	s3,72(sp)
 10029a6:	6165                	addi	sp,sp,112
 10029a8:	8082                	ret
 10029aa:	00009317          	auipc	t1,0x9
 10029ae:	77633303          	ld	t1,1910(t1) # 100c120 <__spl_start+0xac30>
 10029b2:	842a                	mv	s0,a0
 10029b4:	9302                	jalr	t1
 10029b6:	0005061b          	sext.w	a2,a0
 10029ba:	04000593          	li	a1,64
 10029be:	fc000513          	li	a0,-64
 10029c2:	e432                	sd	a2,8(sp)
 10029c4:	dd4ff0ef          	jal	ra,1001f98 <__spl_start+0xaa8>
 10029c8:	6622                	ld	a2,8(sp)
 10029ca:	892a                	mv	s2,a0
 10029cc:	0d81b503          	ld	a0,216(gp)
 10029d0:	00008597          	auipc	a1,0x8
 10029d4:	96858593          	addi	a1,a1,-1688 # 100a338 <__spl_start+0x8e48>
 10029d8:	564020ef          	jal	ra,1004f3c <__spl_start+0x3a4c>
 10029dc:	0005099b          	sext.w	s3,a0
 10029e0:	18843503          	ld	a0,392(s0)
 10029e4:	86ca                	mv	a3,s2
 10029e6:	04000613          	li	a2,64
 10029ea:	85ce                	mv	a1,s3
 10029ec:	7cf030ef          	jal	ra,10069ba <__spl_start+0x54ca>
 10029f0:	f555                	bnez	a0,100299c <__spl_start+0x14ac>
 10029f2:	00092703          	lw	a4,0(s2)
 10029f6:	00ff0637          	lui	a2,0xff0
 10029fa:	0187569b          	srliw	a3,a4,0x18
 10029fe:	0187179b          	slliw	a5,a4,0x18
 1002a02:	8fd5                	or	a5,a5,a3
 1002a04:	0087169b          	slliw	a3,a4,0x8
 1002a08:	8ef1                	and	a3,a3,a2
 1002a0a:	8fd5                	or	a5,a5,a3
 1002a0c:	66c1                	lui	a3,0x10
 1002a0e:	0087571b          	srliw	a4,a4,0x8
 1002a12:	f0068693          	addi	a3,a3,-256 # ff00 <_start-0xff0100>
 1002a16:	8f75                	and	a4,a4,a3
 1002a18:	8fd9                	or	a5,a5,a4
 1002a1a:	d00e0737          	lui	a4,0xd00e0
 1002a1e:	2781                	sext.w	a5,a5
 1002a20:	eed70713          	addi	a4,a4,-275 # ffffffffd00dfeed <__soc_ctrl_scratch1+0xffffffffce0dfed5>
 1002a24:	02e79563          	bne	a5,a4,1002a4e <__spl_start+0x155e>
 1002a28:	4785                	li	a5,1
 1002a2a:	02099613          	slli	a2,s3,0x20
 1002a2e:	d43e                	sw	a5,40(sp)
 1002a30:	86ca                	mv	a3,s2
 1002a32:	00000797          	auipc	a5,0x0
 1002a36:	f1478793          	addi	a5,a5,-236 # 1002946 <__spl_start+0x1456>
 1002a3a:	9201                	srli	a2,a2,0x20
 1002a3c:	082c                	addi	a1,sp,24
 1002a3e:	8526                	mv	a0,s1
 1002a40:	ec22                	sd	s0,24(sp)
 1002a42:	f002                	sd	zero,32(sp)
 1002a44:	f802                	sd	zero,48(sp)
 1002a46:	fc3e                	sd	a5,56(sp)
 1002a48:	a67ff0ef          	jal	ra,10024ae <__spl_start+0xfbe>
 1002a4c:	bf81                	j	100299c <__spl_start+0x14ac>
 1002a4e:	85ca                	mv	a1,s2
 1002a50:	8526                	mv	a0,s1
 1002a52:	d8aff0ef          	jal	ra,1001fdc <__spl_start+0xaec>
 1002a56:	f139                	bnez	a0,100299c <__spl_start+0x14ac>
 1002a58:	18843503          	ld	a0,392(s0)
 1002a5c:	7406                	ld	s0,96(sp)
 1002a5e:	6894                	ld	a3,16(s1)
 1002a60:	02c4e603          	lwu	a2,44(s1)
 1002a64:	70a6                	ld	ra,104(sp)
 1002a66:	64e6                	ld	s1,88(sp)
 1002a68:	6946                	ld	s2,80(sp)
 1002a6a:	85ce                	mv	a1,s3
 1002a6c:	69a6                	ld	s3,72(sp)
 1002a6e:	6165                	addi	sp,sp,112
 1002a70:	74b0306f          	j	10069ba <__spl_start+0x54ca>
 1002a74:	47a5                	li	a5,9
 1002a76:	07f2                	slli	a5,a5,0x1c
 1002a78:	1141                	addi	sp,sp,-16
 1002a7a:	95be                	add	a1,a1,a5
 1002a7c:	8536                	mv	a0,a3
 1002a7e:	e022                	sd	s0,0(sp)
 1002a80:	e406                	sd	ra,8(sp)
 1002a82:	8432                	mv	s0,a2
 1002a84:	bccff0ef          	jal	ra,1001e50 <__spl_start+0x960>
 1002a88:	60a2                	ld	ra,8(sp)
 1002a8a:	8522                	mv	a0,s0
 1002a8c:	6402                	ld	s0,0(sp)
 1002a8e:	0141                	addi	sp,sp,16
 1002a90:	8082                	ret
 1002a92:	7139                	addi	sp,sp,-64
 1002a94:	46a5                	li	a3,9
 1002a96:	fc06                	sd	ra,56(sp)
 1002a98:	f822                	sd	s0,48(sp)
 1002a9a:	06f2                	slli	a3,a3,0x1c
 1002a9c:	4298                	lw	a4,0(a3)
 1002a9e:	00ff05b7          	lui	a1,0xff0
 1002aa2:	0187561b          	srliw	a2,a4,0x18
 1002aa6:	0187179b          	slliw	a5,a4,0x18
 1002aaa:	8fd1                	or	a5,a5,a2
 1002aac:	0087161b          	slliw	a2,a4,0x8
 1002ab0:	8e6d                	and	a2,a2,a1
 1002ab2:	8fd1                	or	a5,a5,a2
 1002ab4:	6641                	lui	a2,0x10
 1002ab6:	0087571b          	srliw	a4,a4,0x8
 1002aba:	f0060613          	addi	a2,a2,-256 # ff00 <_start-0xff0100>
 1002abe:	8f71                	and	a4,a4,a2
 1002ac0:	8fd9                	or	a5,a5,a4
 1002ac2:	d00e0737          	lui	a4,0xd00e0
 1002ac6:	2781                	sext.w	a5,a5
 1002ac8:	eed70713          	addi	a4,a4,-275 # ffffffffd00dfeed <__soc_ctrl_scratch1+0xffffffffce0dfed5>
 1002acc:	02e79263          	bne	a5,a4,1002af0 <__spl_start+0x1600>
 1002ad0:	4785                	li	a5,1
 1002ad2:	cc3e                	sw	a5,24(sp)
 1002ad4:	4601                	li	a2,0
 1002ad6:	00000797          	auipc	a5,0x0
 1002ada:	f9e78793          	addi	a5,a5,-98 # 1002a74 <__spl_start+0x1584>
 1002ade:	002c                	addi	a1,sp,8
 1002ae0:	f43e                	sd	a5,40(sp)
 1002ae2:	9cdff0ef          	jal	ra,10024ae <__spl_start+0xfbe>
 1002ae6:	70e2                	ld	ra,56(sp)
 1002ae8:	7442                	ld	s0,48(sp)
 1002aea:	4501                	li	a0,0
 1002aec:	6121                	addi	sp,sp,64
 1002aee:	8082                	ret
 1002af0:	00009797          	auipc	a5,0x9
 1002af4:	6a07b783          	ld	a5,1696(a5) # 100c190 <__spl_start+0xaca0>
 1002af8:	638c                	ld	a1,0(a5)
 1002afa:	57fd                	li	a5,-1
 1002afc:	842a                	mv	s0,a0
 1002afe:	00f59963          	bne	a1,a5,1002b10 <__spl_start+0x1620>
 1002b02:	04000593          	li	a1,64
 1002b06:	fc000513          	li	a0,-64
 1002b0a:	c8eff0ef          	jal	ra,1001f98 <__spl_start+0xaa8>
 1002b0e:	85aa                	mv	a1,a0
 1002b10:	8522                	mv	a0,s0
 1002b12:	ccaff0ef          	jal	ra,1001fdc <__spl_start+0xaec>
 1002b16:	bfc1                	j	1002ae6 <__spl_start+0x15f6>
 1002b18:	81aa                	mv	gp,a0
 1002b1a:	8082                	ret
 1002b1c:	77f5                	lui	a5,0xffffd
 1002b1e:	d7078793          	addi	a5,a5,-656 # ffffffffffffcd70 <__soc_ctrl_scratch1+0xfffffffffdffcd58>
 1002b22:	953e                	add	a0,a0,a5
 1002b24:	9941                	andi	a0,a0,-16
 1002b26:	8082                	ret
 1002b28:	1141                	addi	sp,sp,-16
 1002b2a:	29000613          	li	a2,656
 1002b2e:	4581                	li	a1,0
 1002b30:	e406                	sd	ra,8(sp)
 1002b32:	e022                	sd	s0,0(sp)
 1002b34:	842a                	mv	s0,a0
 1002b36:	97aff0ef          	jal	ra,1001cb0 <__spl_start+0x7c0>
 1002b3a:	8522                	mv	a0,s0
 1002b3c:	00009317          	auipc	t1,0x9
 1002b40:	62c33303          	ld	t1,1580(t1) # 100c168 <__spl_start+0xac78>
 1002b44:	9302                	jalr	t1
 1002b46:	29040413          	addi	s0,s0,656
 1002b4a:	1281b023          	sd	s0,288(gp)
 1002b4e:	60a2                	ld	ra,8(sp)
 1002b50:	6402                	ld	s0,0(sp)
 1002b52:	0141                	addi	sp,sp,16
 1002b54:	8082                	ret
 1002b56:	7159                	addi	sp,sp,-112
 1002b58:	00006597          	auipc	a1,0x6
 1002b5c:	1b058593          	addi	a1,a1,432 # 1008d08 <__spl_start+0x7818>
 1002b60:	eca6                	sd	s1,88(sp)
 1002b62:	f486                	sd	ra,104(sp)
 1002b64:	f0a2                	sd	s0,96(sp)
 1002b66:	e8ca                	sd	s2,80(sp)
 1002b68:	e4ce                	sd	s3,72(sp)
 1002b6a:	e0d2                	sd	s4,64(sp)
 1002b6c:	fc56                	sd	s5,56(sp)
 1002b6e:	f85a                	sd	s6,48(sp)
 1002b70:	f45e                	sd	s7,40(sp)
 1002b72:	84aa                	mv	s1,a0
 1002b74:	1a5010ef          	jal	ra,1004518 <__spl_start+0x3028>
 1002b78:	06054d63          	bltz	a0,1002bf2 <__spl_start+0x1702>
 1002b7c:	01c10a93          	addi	s5,sp,28
 1002b80:	85aa                	mv	a1,a0
 1002b82:	86d6                	mv	a3,s5
 1002b84:	00006617          	auipc	a2,0x6
 1002b88:	19460613          	addi	a2,a2,404 # 1008d18 <__spl_start+0x7828>
 1002b8c:	e42a                	sd	a0,8(sp)
 1002b8e:	8526                	mv	a0,s1
 1002b90:	079010ef          	jal	ra,1004408 <__spl_start+0x2f18>
 1002b94:	65a2                	ld	a1,8(sp)
 1002b96:	89aa                	mv	s3,a0
 1002b98:	8526                	mv	a0,s1
 1002b9a:	306010ef          	jal	ra,1003ea0 <__spl_start+0x29b0>
 1002b9e:	842a                	mv	s0,a0
 1002ba0:	5979                	li	s2,-2
 1002ba2:	00006b17          	auipc	s6,0x6
 1002ba6:	17eb0b13          	addi	s6,s6,382 # 1008d20 <__spl_start+0x7830>
 1002baa:	00009b97          	auipc	s7,0x9
 1002bae:	61ebbb83          	ld	s7,1566(s7) # 100c1c8 <__spl_start+0xacd8>
 1002bb2:	00045e63          	bgez	s0,1002bce <__spl_start+0x16de>
 1002bb6:	70a6                	ld	ra,104(sp)
 1002bb8:	7406                	ld	s0,96(sp)
 1002bba:	64e6                	ld	s1,88(sp)
 1002bbc:	69a6                	ld	s3,72(sp)
 1002bbe:	6a06                	ld	s4,64(sp)
 1002bc0:	7ae2                	ld	s5,56(sp)
 1002bc2:	7b42                	ld	s6,48(sp)
 1002bc4:	7ba2                	ld	s7,40(sp)
 1002bc6:	854a                	mv	a0,s2
 1002bc8:	6946                	ld	s2,80(sp)
 1002bca:	6165                	addi	sp,sp,112
 1002bcc:	8082                	ret
 1002bce:	86d6                	mv	a3,s5
 1002bd0:	865a                	mv	a2,s6
 1002bd2:	85a2                	mv	a1,s0
 1002bd4:	8526                	mv	a0,s1
 1002bd6:	033010ef          	jal	ra,1004408 <__spl_start+0x2f18>
 1002bda:	8a2a                	mv	s4,a0
 1002bdc:	ed09                	bnez	a0,1002bf6 <__spl_start+0x1706>
 1002bde:	00006597          	auipc	a1,0x6
 1002be2:	bf258593          	addi	a1,a1,-1038 # 10087d0 <__spl_start+0x72e0>
 1002be6:	00006517          	auipc	a0,0x6
 1002bea:	14a50513          	addi	a0,a0,330 # 1008d30 <__spl_start+0x7840>
 1002bee:	2a7020ef          	jal	ra,1005694 <__spl_start+0x41a4>
 1002bf2:	5929                	li	s2,-22
 1002bf4:	b7c9                	j	1002bb6 <__spl_start+0x16c6>
 1002bf6:	00098d63          	beqz	s3,1002c10 <__spl_start+0x1720>
 1002bfa:	85a2                	mv	a1,s0
 1002bfc:	4601                	li	a2,0
 1002bfe:	8526                	mv	a0,s1
 1002c00:	5ae010ef          	jal	ra,10041ae <__spl_start+0x2cbe>
 1002c04:	85aa                	mv	a1,a0
 1002c06:	854e                	mv	a0,s3
 1002c08:	570020ef          	jal	ra,1005178 <__spl_start+0x3c88>
 1002c0c:	e111                	bnez	a0,1002c10 <__spl_start+0x1720>
 1002c0e:	8922                	mv	s2,s0
 1002c10:	8552                	mv	a0,s4
 1002c12:	9b82                	jalr	s7
 1002c14:	c519                	beqz	a0,1002c22 <__spl_start+0x1732>
 1002c16:	85a2                	mv	a1,s0
 1002c18:	8526                	mv	a0,s1
 1002c1a:	2a6010ef          	jal	ra,1003ec0 <__spl_start+0x29d0>
 1002c1e:	842a                	mv	s0,a0
 1002c20:	bf49                	j	1002bb2 <__spl_start+0x16c2>
 1002c22:	8922                	mv	s2,s0
 1002c24:	bf49                	j	1002bb6 <__spl_start+0x16c6>
 1002c26:	7179                	addi	sp,sp,-48
 1002c28:	ec26                	sd	s1,24(sp)
 1002c2a:	e84a                	sd	s2,16(sp)
 1002c2c:	e44e                	sd	s3,8(sp)
 1002c2e:	f406                	sd	ra,40(sp)
 1002c30:	f022                	sd	s0,32(sp)
 1002c32:	892a                	mv	s2,a0
 1002c34:	89ae                	mv	s3,a1
 1002c36:	84b2                	mv	s1,a2
 1002c38:	666010ef          	jal	ra,100429e <__spl_start+0x2dae>
 1002c3c:	57fd                	li	a5,-1
 1002c3e:	00f51763          	bne	a0,a5,1002c4c <__spl_start+0x175c>
 1002c42:	8626                	mv	a2,s1
 1002c44:	85ce                	mv	a1,s3
 1002c46:	854a                	mv	a0,s2
 1002c48:	0c4020ef          	jal	ra,1004d0c <__spl_start+0x381c>
 1002c4c:	842a                	mv	s0,a0
 1002c4e:	02055063          	bgez	a0,1002c6e <__spl_start+0x177e>
 1002c52:	0e7010ef          	jal	ra,1004538 <__spl_start+0x3048>
 1002c56:	86aa                	mv	a3,a0
 1002c58:	8626                	mv	a2,s1
 1002c5a:	00006597          	auipc	a1,0x6
 1002c5e:	bce58593          	addi	a1,a1,-1074 # 1008828 <__spl_start+0x7338>
 1002c62:	00006517          	auipc	a0,0x6
 1002c66:	f5650513          	addi	a0,a0,-170 # 1008bb8 <__spl_start+0x76c8>
 1002c6a:	22b020ef          	jal	ra,1005694 <__spl_start+0x41a4>
 1002c6e:	70a2                	ld	ra,40(sp)
 1002c70:	8522                	mv	a0,s0
 1002c72:	7402                	ld	s0,32(sp)
 1002c74:	64e2                	ld	s1,24(sp)
 1002c76:	6942                	ld	s2,16(sp)
 1002c78:	69a2                	ld	s3,8(sp)
 1002c7a:	6145                	addi	sp,sp,48
 1002c7c:	8082                	ret
 1002c7e:	7159                	addi	sp,sp,-112
 1002c80:	eca6                	sd	s1,88(sp)
 1002c82:	e8ca                	sd	s2,80(sp)
 1002c84:	e4ce                	sd	s3,72(sp)
 1002c86:	e0d2                	sd	s4,64(sp)
 1002c88:	fc56                	sd	s5,56(sp)
 1002c8a:	f85a                	sd	s6,48(sp)
 1002c8c:	f45e                	sd	s7,40(sp)
 1002c8e:	f486                	sd	ra,104(sp)
 1002c90:	f0a2                	sd	s0,96(sp)
 1002c92:	f062                	sd	s8,32(sp)
 1002c94:	89aa                	mv	s3,a0
 1002c96:	8bb2                	mv	s7,a2
 1002c98:	8b36                	mv	s6,a3
 1002c9a:	893a                	mv	s2,a4
 1002c9c:	84be                	mv	s1,a5
 1002c9e:	8ac2                	mv	s5,a6
 1002ca0:	8a46                	mv	s4,a7
 1002ca2:	77f000ef          	jal	ra,1003c20 <__spl_start+0x2730>
 1002ca6:	02055d63          	bgez	a0,1002ce0 <__spl_start+0x17f0>
 1002caa:	842a                	mv	s0,a0
 1002cac:	08d010ef          	jal	ra,1004538 <__spl_start+0x3048>
 1002cb0:	862a                	mv	a2,a0
 1002cb2:	00006597          	auipc	a1,0x6
 1002cb6:	b5e58593          	addi	a1,a1,-1186 # 1008810 <__spl_start+0x7320>
 1002cba:	00006517          	auipc	a0,0x6
 1002cbe:	f6650513          	addi	a0,a0,-154 # 1008c20 <__spl_start+0x7730>
 1002cc2:	1d3020ef          	jal	ra,1005694 <__spl_start+0x41a4>
 1002cc6:	70a6                	ld	ra,104(sp)
 1002cc8:	8522                	mv	a0,s0
 1002cca:	7406                	ld	s0,96(sp)
 1002ccc:	64e6                	ld	s1,88(sp)
 1002cce:	6946                	ld	s2,80(sp)
 1002cd0:	69a6                	ld	s3,72(sp)
 1002cd2:	6a06                	ld	s4,64(sp)
 1002cd4:	7ae2                	ld	s5,56(sp)
 1002cd6:	7b42                	ld	s6,48(sp)
 1002cd8:	7ba2                	ld	s7,40(sp)
 1002cda:	7c02                	ld	s8,32(sp)
 1002cdc:	6165                	addi	sp,sp,112
 1002cde:	8082                	ret
 1002ce0:	00006617          	auipc	a2,0x6
 1002ce4:	f9060613          	addi	a2,a2,-112 # 1008c70 <__spl_start+0x7780>
 1002ce8:	4581                	li	a1,0
 1002cea:	854e                	mv	a0,s3
 1002cec:	f3bff0ef          	jal	ra,1002c26 <__spl_start+0x1736>
 1002cf0:	842a                	mv	s0,a0
 1002cf2:	fc054ae3          	bltz	a0,1002cc6 <__spl_start+0x17d6>
 1002cf6:	85aa                	mv	a1,a0
 1002cf8:	865e                	mv	a2,s7
 1002cfa:	854e                	mv	a0,s3
 1002cfc:	f2bff0ef          	jal	ra,1002c26 <__spl_start+0x1736>
 1002d00:	842a                	mv	s0,a0
 1002d02:	fc0542e3          	bltz	a0,1002cc6 <__spl_start+0x17d6>
 1002d06:	018b571b          	srliw	a4,s6,0x18
 1002d0a:	018b179b          	slliw	a5,s6,0x18
 1002d0e:	8fd9                	or	a5,a5,a4
 1002d10:	00ff0bb7          	lui	s7,0xff0
 1002d14:	008b171b          	slliw	a4,s6,0x8
 1002d18:	420b5693          	srai	a3,s6,0x20
 1002d1c:	01777733          	and	a4,a4,s7
 1002d20:	0186d61b          	srliw	a2,a3,0x18
 1002d24:	8fd9                	or	a5,a5,a4
 1002d26:	0186971b          	slliw	a4,a3,0x18
 1002d2a:	8f51                	or	a4,a4,a2
 1002d2c:	6c41                	lui	s8,0x10
 1002d2e:	0086961b          	slliw	a2,a3,0x8
 1002d32:	f00c0c13          	addi	s8,s8,-256 # ff00 <_start-0xff0100>
 1002d36:	01767633          	and	a2,a2,s7
 1002d3a:	0086d69b          	srliw	a3,a3,0x8
 1002d3e:	8f51                	or	a4,a4,a2
 1002d40:	0186f6b3          	and	a3,a3,s8
 1002d44:	008b5b1b          	srliw	s6,s6,0x8
 1002d48:	8f55                	or	a4,a4,a3
 1002d4a:	018b7b33          	and	s6,s6,s8
 1002d4e:	0167e7b3          	or	a5,a5,s6
 1002d52:	1702                	slli	a4,a4,0x20
 1002d54:	9301                	srli	a4,a4,0x20
 1002d56:	1782                	slli	a5,a5,0x20
 1002d58:	8fd9                	or	a5,a5,a4
 1002d5a:	0834                	addi	a3,sp,24
 1002d5c:	85aa                	mv	a1,a0
 1002d5e:	4721                	li	a4,8
 1002d60:	00006617          	auipc	a2,0x6
 1002d64:	f2060613          	addi	a2,a2,-224 # 1008c80 <__spl_start+0x7790>
 1002d68:	854e                	mv	a0,s3
 1002d6a:	ec3e                	sd	a5,24(sp)
 1002d6c:	e436                	sd	a3,8(sp)
 1002d6e:	697010ef          	jal	ra,1004c04 <__spl_start+0x3714>
 1002d72:	57fd                	li	a5,-1
 1002d74:	66a2                	ld	a3,8(sp)
 1002d76:	06f48163          	beq	s1,a5,1002dd8 <__spl_start+0x18e8>
 1002d7a:	0184d71b          	srliw	a4,s1,0x18
 1002d7e:	0184979b          	slliw	a5,s1,0x18
 1002d82:	8fd9                	or	a5,a5,a4
 1002d84:	0084971b          	slliw	a4,s1,0x8
 1002d88:	4204d613          	srai	a2,s1,0x20
 1002d8c:	01777733          	and	a4,a4,s7
 1002d90:	0186559b          	srliw	a1,a2,0x18
 1002d94:	8fd9                	or	a5,a5,a4
 1002d96:	0186171b          	slliw	a4,a2,0x18
 1002d9a:	8f4d                	or	a4,a4,a1
 1002d9c:	0086159b          	slliw	a1,a2,0x8
 1002da0:	0175f5b3          	and	a1,a1,s7
 1002da4:	0086561b          	srliw	a2,a2,0x8
 1002da8:	8f4d                	or	a4,a4,a1
 1002daa:	01867633          	and	a2,a2,s8
 1002dae:	0084d49b          	srliw	s1,s1,0x8
 1002db2:	8f51                	or	a4,a4,a2
 1002db4:	0184f4b3          	and	s1,s1,s8
 1002db8:	8fc5                	or	a5,a5,s1
 1002dba:	1702                	slli	a4,a4,0x20
 1002dbc:	9301                	srli	a4,a4,0x20
 1002dbe:	1782                	slli	a5,a5,0x20
 1002dc0:	8fd9                	or	a5,a5,a4
 1002dc2:	00006617          	auipc	a2,0x6
 1002dc6:	ec660613          	addi	a2,a2,-314 # 1008c88 <__spl_start+0x7798>
 1002dca:	4721                	li	a4,8
 1002dcc:	85a2                	mv	a1,s0
 1002dce:	854e                	mv	a0,s3
 1002dd0:	ec3e                	sd	a5,24(sp)
 1002dd2:	633010ef          	jal	ra,1004c04 <__spl_start+0x3714>
 1002dd6:	66a2                	ld	a3,8(sp)
 1002dd8:	0189571b          	srliw	a4,s2,0x18
 1002ddc:	0189179b          	slliw	a5,s2,0x18
 1002de0:	8fd9                	or	a5,a5,a4
 1002de2:	00ff0637          	lui	a2,0xff0
 1002de6:	0089171b          	slliw	a4,s2,0x8
 1002dea:	8f71                	and	a4,a4,a2
 1002dec:	8fd9                	or	a5,a5,a4
 1002dee:	6741                	lui	a4,0x10
 1002df0:	f0070713          	addi	a4,a4,-256 # ff00 <_start-0xff0100>
 1002df4:	0089591b          	srliw	s2,s2,0x8
 1002df8:	00e97933          	and	s2,s2,a4
 1002dfc:	0127e7b3          	or	a5,a5,s2
 1002e00:	4711                	li	a4,4
 1002e02:	00006617          	auipc	a2,0x6
 1002e06:	13e60613          	addi	a2,a2,318 # 1008f40 <__spl_start+0x7a50>
 1002e0a:	85a2                	mv	a1,s0
 1002e0c:	854e                	mv	a0,s3
 1002e0e:	cc3e                	sw	a5,24(sp)
 1002e10:	5f5010ef          	jal	ra,1004c04 <__spl_start+0x3714>
 1002e14:	020a8063          	beqz	s5,1002e34 <__spl_start+0x1944>
 1002e18:	8556                	mv	a0,s5
 1002e1a:	396020ef          	jal	ra,10051b0 <__spl_start+0x3cc0>
 1002e1e:	0015071b          	addiw	a4,a0,1
 1002e22:	86d6                	mv	a3,s5
 1002e24:	00007617          	auipc	a2,0x7
 1002e28:	4e460613          	addi	a2,a2,1252 # 100a308 <__spl_start+0x8e18>
 1002e2c:	85a2                	mv	a1,s0
 1002e2e:	854e                	mv	a0,s3
 1002e30:	5d5010ef          	jal	ra,1004c04 <__spl_start+0x3714>
 1002e34:	e80a09e3          	beqz	s4,1002cc6 <__spl_start+0x17d6>
 1002e38:	8552                	mv	a0,s4
 1002e3a:	376020ef          	jal	ra,10051b0 <__spl_start+0x3cc0>
 1002e3e:	0015071b          	addiw	a4,a0,1
 1002e42:	86d2                	mv	a3,s4
 1002e44:	00007617          	auipc	a2,0x7
 1002e48:	4cc60613          	addi	a2,a2,1228 # 100a310 <__spl_start+0x8e20>
 1002e4c:	85a2                	mv	a1,s0
 1002e4e:	854e                	mv	a0,s3
 1002e50:	5b5010ef          	jal	ra,1004c04 <__spl_start+0x3714>
 1002e54:	bd8d                	j	1002cc6 <__spl_start+0x17d6>
 1002e56:	0e050b63          	beqz	a0,1002f4c <__spl_start+0x1a5c>
 1002e5a:	715d                	addi	sp,sp,-80
 1002e5c:	e0a2                	sd	s0,64(sp)
 1002e5e:	fc26                	sd	s1,56(sp)
 1002e60:	f84a                	sd	s2,48(sp)
 1002e62:	f44e                	sd	s3,40(sp)
 1002e64:	f052                	sd	s4,32(sp)
 1002e66:	842e                	mv	s0,a1
 1002e68:	e486                	sd	ra,72(sp)
 1002e6a:	84aa                	mv	s1,a0
 1002e6c:	2c0010ef          	jal	ra,100412c <__spl_start+0x2c3c>
 1002e70:	892a                	mv	s2,a0
 1002e72:	4581                	li	a1,0
 1002e74:	01810993          	addi	s3,sp,24
 1002e78:	01010a13          	addi	s4,sp,16
 1002e7c:	0125c463          	blt	a1,s2,1002e84 <__spl_start+0x1994>
 1002e80:	4601                	li	a2,0
 1002e82:	a839                	j	1002ea0 <__spl_start+0x19b0>
 1002e84:	86ce                	mv	a3,s3
 1002e86:	8652                	mv	a2,s4
 1002e88:	8526                	mv	a0,s1
 1002e8a:	e42e                	sd	a1,8(sp)
 1002e8c:	1ea010ef          	jal	ra,1004076 <__spl_start+0x2b86>
 1002e90:	67c2                	ld	a5,16(sp)
 1002e92:	65a2                	ld	a1,8(sp)
 1002e94:	0af49063          	bne	s1,a5,1002f34 <__spl_start+0x1a44>
 1002e98:	8526                	mv	a0,s1
 1002e9a:	44d010ef          	jal	ra,1004ae6 <__spl_start+0x35f6>
 1002e9e:	4605                	li	a2,1
 1002ea0:	44d8                	lw	a4,12(s1)
 1002ea2:	00ff0837          	lui	a6,0xff0
 1002ea6:	509c                	lw	a5,32(s1)
 1002ea8:	0187559b          	srliw	a1,a4,0x18
 1002eac:	0187169b          	slliw	a3,a4,0x18
 1002eb0:	8ecd                	or	a3,a3,a1
 1002eb2:	0087159b          	slliw	a1,a4,0x8
 1002eb6:	0105f5b3          	and	a1,a1,a6
 1002eba:	8ecd                	or	a3,a3,a1
 1002ebc:	65c1                	lui	a1,0x10
 1002ebe:	f0058593          	addi	a1,a1,-256 # ff00 <_start-0xff0100>
 1002ec2:	0087571b          	srliw	a4,a4,0x8
 1002ec6:	8f6d                	and	a4,a4,a1
 1002ec8:	8f55                	or	a4,a4,a3
 1002eca:	6685                	lui	a3,0x1
 1002ecc:	04f6869b          	addiw	a3,a3,79
 1002ed0:	03449513          	slli	a0,s1,0x34
 1002ed4:	9151                	srli	a0,a0,0x34
 1002ed6:	9c35                	addw	s0,s0,a3
 1002ed8:	9c29                	addw	s0,s0,a0
 1002eda:	0187d69b          	srliw	a3,a5,0x18
 1002ede:	9c39                	addw	s0,s0,a4
 1002ee0:	0187971b          	slliw	a4,a5,0x18
 1002ee4:	8f55                	or	a4,a4,a3
 1002ee6:	0087969b          	slliw	a3,a5,0x8
 1002eea:	0106f6b3          	and	a3,a3,a6
 1002eee:	0087d79b          	srliw	a5,a5,0x8
 1002ef2:	8f55                	or	a4,a4,a3
 1002ef4:	8fed                	and	a5,a5,a1
 1002ef6:	8fd9                	or	a5,a5,a4
 1002ef8:	9c3d                	addw	s0,s0,a5
 1002efa:	77fd                	lui	a5,0xfffff
 1002efc:	8c7d                	and	s0,s0,a5
 1002efe:	9c09                	subw	s0,s0,a0
 1002f00:	0184571b          	srliw	a4,s0,0x18
 1002f04:	0184179b          	slliw	a5,s0,0x18
 1002f08:	8fd9                	or	a5,a5,a4
 1002f0a:	0084171b          	slliw	a4,s0,0x8
 1002f0e:	01077733          	and	a4,a4,a6
 1002f12:	8fd9                	or	a5,a5,a4
 1002f14:	0084571b          	srliw	a4,s0,0x8
 1002f18:	8f6d                	and	a4,a4,a1
 1002f1a:	8fd9                	or	a5,a5,a4
 1002f1c:	c0dc                	sw	a5,4(s1)
 1002f1e:	ee09                	bnez	a2,1002f38 <__spl_start+0x1a48>
 1002f20:	0004051b          	sext.w	a0,s0
 1002f24:	60a6                	ld	ra,72(sp)
 1002f26:	6406                	ld	s0,64(sp)
 1002f28:	74e2                	ld	s1,56(sp)
 1002f2a:	7942                	ld	s2,48(sp)
 1002f2c:	79a2                	ld	s3,40(sp)
 1002f2e:	7a02                	ld	s4,32(sp)
 1002f30:	6161                	addi	sp,sp,80
 1002f32:	8082                	ret
 1002f34:	2585                	addiw	a1,a1,1
 1002f36:	b799                	j	1002e7c <__spl_start+0x198c>
 1002f38:	02041613          	slli	a2,s0,0x20
 1002f3c:	9201                	srli	a2,a2,0x20
 1002f3e:	85a6                	mv	a1,s1
 1002f40:	8526                	mv	a0,s1
 1002f42:	29f010ef          	jal	ra,10049e0 <__spl_start+0x34f0>
 1002f46:	fc055de3          	bgez	a0,1002f20 <__spl_start+0x1a30>
 1002f4a:	bfe9                	j	1002f24 <__spl_start+0x1a34>
 1002f4c:	4501                	li	a0,0
 1002f4e:	8082                	ret
 1002f50:	4789                	li	a5,2
 1002f52:	00a7cb63          	blt	a5,a0,1002f68 <__spl_start+0x1a78>
 1002f56:	050e                	slli	a0,a0,0x3
 1002f58:	00009797          	auipc	a5,0x9
 1002f5c:	2407b783          	ld	a5,576(a5) # 100c198 <__spl_start+0xaca8>
 1002f60:	97aa                	add	a5,a5,a0
 1002f62:	6388                	ld	a0,0(a5)
 1002f64:	7d1c                	ld	a5,56(a0)
 1002f66:	8782                	jr	a5
 1002f68:	8082                	ret
 1002f6a:	85aa                	mv	a1,a0
 1002f6c:	00018d63          	beqz	gp,1002f86 <__spl_start+0x1a96>
 1002f70:	0381b703          	ld	a4,56(gp)
 1002f74:	cb09                	beqz	a4,1002f86 <__spl_start+0x1a96>
 1002f76:	0081b783          	ld	a5,8(gp)
 1002f7a:	8b89                	andi	a5,a5,2
 1002f7c:	c399                	beqz	a5,1002f82 <__spl_start+0x1a92>
 1002f7e:	4505                	li	a0,1
 1002f80:	bfc1                	j	1002f50 <__spl_start+0x1a60>
 1002f82:	4460406f          	j	10073c8 <__spl_start+0x5ed8>
 1002f86:	8082                	ret
 1002f88:	4789                	li	a5,2
 1002f8a:	00a7cb63          	blt	a5,a0,1002fa0 <__spl_start+0x1ab0>
 1002f8e:	050e                	slli	a0,a0,0x3
 1002f90:	00009797          	auipc	a5,0x9
 1002f94:	2087b783          	ld	a5,520(a5) # 100c198 <__spl_start+0xaca8>
 1002f98:	97aa                	add	a5,a5,a0
 1002f9a:	6388                	ld	a0,0(a5)
 1002f9c:	613c                	ld	a5,64(a0)
 1002f9e:	8782                	jr	a5
 1002fa0:	8082                	ret
 1002fa2:	85aa                	mv	a1,a0
 1002fa4:	00018d63          	beqz	gp,1002fbe <__spl_start+0x1ace>
 1002fa8:	0381b703          	ld	a4,56(gp)
 1002fac:	cb09                	beqz	a4,1002fbe <__spl_start+0x1ace>
 1002fae:	0081b783          	ld	a5,8(gp)
 1002fb2:	8b89                	andi	a5,a5,2
 1002fb4:	c399                	beqz	a5,1002fba <__spl_start+0x1aca>
 1002fb6:	4505                	li	a0,1
 1002fb8:	bfc1                	j	1002f88 <__spl_start+0x1a98>
 1002fba:	41c0406f          	j	10073d6 <__spl_start+0x5ee6>
 1002fbe:	8082                	ret
 1002fc0:	1101                	addi	sp,sp,-32
 1002fc2:	e04a                	sd	s2,0(sp)
 1002fc4:	00009917          	auipc	s2,0x9
 1002fc8:	1f493903          	ld	s2,500(s2) # 100c1b8 <__spl_start+0xacc8>
 1002fcc:	e426                	sd	s1,8(sp)
 1002fce:	00093483          	ld	s1,0(s2)
 1002fd2:	e822                	sd	s0,16(sp)
 1002fd4:	ec06                	sd	ra,24(sp)
 1002fd6:	00950433          	add	s0,a0,s1
 1002fda:	00055863          	bgez	a0,1002fea <__spl_start+0x1afa>
 1002fde:	40a00633          	neg	a2,a0
 1002fe2:	4581                	li	a1,0
 1002fe4:	8522                	mv	a0,s0
 1002fe6:	ccbfe0ef          	jal	ra,1001cb0 <__spl_start+0x7c0>
 1002fea:	00009797          	auipc	a5,0x9
 1002fee:	1867b783          	ld	a5,390(a5) # 100c170 <__spl_start+0xac80>
 1002ff2:	639c                	ld	a5,0(a5)
 1002ff4:	557d                	li	a0,-1
 1002ff6:	00f46c63          	bltu	s0,a5,100300e <__spl_start+0x1b1e>
 1002ffa:	00009797          	auipc	a5,0x9
 1002ffe:	11e7b783          	ld	a5,286(a5) # 100c118 <__spl_start+0xac28>
 1003002:	639c                	ld	a5,0(a5)
 1003004:	0087e563          	bltu	a5,s0,100300e <__spl_start+0x1b1e>
 1003008:	00893023          	sd	s0,0(s2)
 100300c:	8526                	mv	a0,s1
 100300e:	60e2                	ld	ra,24(sp)
 1003010:	6442                	ld	s0,16(sp)
 1003012:	64a2                	ld	s1,8(sp)
 1003014:	6902                	ld	s2,0(sp)
 1003016:	6105                	addi	sp,sp,32
 1003018:	8082                	ret
 100301a:	00009717          	auipc	a4,0x9
 100301e:	15673703          	ld	a4,342(a4) # 100c170 <__spl_start+0xac80>
 1003022:	e308                	sd	a0,0(a4)
 1003024:	00b506b3          	add	a3,a0,a1
 1003028:	00009717          	auipc	a4,0x9
 100302c:	0f073703          	ld	a4,240(a4) # 100c118 <__spl_start+0xac28>
 1003030:	e314                	sd	a3,0(a4)
 1003032:	862e                	mv	a2,a1
 1003034:	00009717          	auipc	a4,0x9
 1003038:	18473703          	ld	a4,388(a4) # 100c1b8 <__spl_start+0xacc8>
 100303c:	4581                	li	a1,0
 100303e:	e308                	sd	a0,0(a4)
 1003040:	c71fe06f          	j	1001cb0 <__spl_start+0x7c0>
 1003044:	1101                	addi	sp,sp,-32
 1003046:	e04a                	sd	s2,0(sp)
 1003048:	00008917          	auipc	s2,0x8
 100304c:	42890913          	addi	s2,s2,1064 # 100b470 <__spl_start+0x9f80>
 1003050:	01093783          	ld	a5,16(s2)
 1003054:	e822                	sd	s0,16(sp)
 1003056:	ec06                	sd	ra,24(sp)
 1003058:	e426                	sd	s1,8(sp)
 100305a:	6784                	ld	s1,8(a5)
 100305c:	6705                	lui	a4,0x1
 100305e:	fdf70793          	addi	a5,a4,-33 # fdf <_start-0xfff021>
 1003062:	98f1                	andi	s1,s1,-4
 1003064:	40a78433          	sub	s0,a5,a0
 1003068:	9426                	add	s0,s0,s1
 100306a:	8031                	srli	s0,s0,0xc
 100306c:	147d                	addi	s0,s0,-1
 100306e:	0432                	slli	s0,s0,0xc
 1003070:	00e45963          	bge	s0,a4,1003082 <__spl_start+0x1b92>
 1003074:	4501                	li	a0,0
 1003076:	60e2                	ld	ra,24(sp)
 1003078:	6442                	ld	s0,16(sp)
 100307a:	64a2                	ld	s1,8(sp)
 100307c:	6902                	ld	s2,0(sp)
 100307e:	6105                	addi	sp,sp,32
 1003080:	8082                	ret
 1003082:	4501                	li	a0,0
 1003084:	f3dff0ef          	jal	ra,1002fc0 <__spl_start+0x1ad0>
 1003088:	01093783          	ld	a5,16(s2)
 100308c:	97a6                	add	a5,a5,s1
 100308e:	fef513e3          	bne	a0,a5,1003074 <__spl_start+0x1b84>
 1003092:	40800533          	neg	a0,s0
 1003096:	f2bff0ef          	jal	ra,1002fc0 <__spl_start+0x1ad0>
 100309a:	57fd                	li	a5,-1
 100309c:	02f51963          	bne	a0,a5,10030ce <__spl_start+0x1bde>
 10030a0:	4501                	li	a0,0
 10030a2:	f1fff0ef          	jal	ra,1002fc0 <__spl_start+0x1ad0>
 10030a6:	01093703          	ld	a4,16(s2)
 10030aa:	46fd                	li	a3,31
 10030ac:	40e507b3          	sub	a5,a0,a4
 10030b0:	fcf6d2e3          	bge	a3,a5,1003074 <__spl_start+0x1b84>
 10030b4:	00009697          	auipc	a3,0x9
 10030b8:	bcc6b683          	ld	a3,-1076(a3) # 100bc80 <__spl_start+0xa790>
 10030bc:	8d15                	sub	a0,a0,a3
 10030be:	0017e793          	ori	a5,a5,1
 10030c2:	00016697          	auipc	a3,0x16
 10030c6:	44a6af23          	sw	a0,1118(a3) # 1019520 <__spl_src_start+0xc438>
 10030ca:	e71c                	sd	a5,8(a4)
 10030cc:	b765                	j	1003074 <__spl_start+0x1b84>
 10030ce:	01093783          	ld	a5,16(s2)
 10030d2:	8c81                	sub	s1,s1,s0
 10030d4:	00016717          	auipc	a4,0x16
 10030d8:	44c70713          	addi	a4,a4,1100 # 1019520 <__spl_src_start+0xc438>
 10030dc:	0014e493          	ori	s1,s1,1
 10030e0:	e784                	sd	s1,8(a5)
 10030e2:	431c                	lw	a5,0(a4)
 10030e4:	4505                	li	a0,1
 10030e6:	9f81                	subw	a5,a5,s0
 10030e8:	c31c                	sw	a5,0(a4)
 10030ea:	b771                	j	1003076 <__spl_start+0x1b86>
 10030ec:	0081b783          	ld	a5,8(gp)
 10030f0:	2007f793          	andi	a5,a5,512
 10030f4:	14078763          	beqz	a5,1003242 <__spl_start+0x1d52>
 10030f8:	14050563          	beqz	a0,1003242 <__spl_start+0x1d52>
 10030fc:	ff853803          	ld	a6,-8(a0)
 1003100:	ff050693          	addi	a3,a0,-16
 1003104:	00008617          	auipc	a2,0x8
 1003108:	36c60613          	addi	a2,a2,876 # 100b470 <__spl_start+0x9f80>
 100310c:	ffe87793          	andi	a5,a6,-2
 1003110:	00f685b3          	add	a1,a3,a5
 1003114:	6598                	ld	a4,8(a1)
 1003116:	01063883          	ld	a7,16(a2)
 100311a:	00187813          	andi	a6,a6,1
 100311e:	9b71                	andi	a4,a4,-4
 1003120:	03159c63          	bne	a1,a7,1003158 <__spl_start+0x1c68>
 1003124:	973e                	add	a4,a4,a5
 1003126:	00081a63          	bnez	a6,100313a <__spl_start+0x1c4a>
 100312a:	ff053783          	ld	a5,-16(a0)
 100312e:	8e9d                	sub	a3,a3,a5
 1003130:	6a8c                	ld	a1,16(a3)
 1003132:	973e                	add	a4,a4,a5
 1003134:	6e9c                	ld	a5,24(a3)
 1003136:	ed9c                	sd	a5,24(a1)
 1003138:	eb8c                	sd	a1,16(a5)
 100313a:	00176793          	ori	a5,a4,1
 100313e:	e69c                	sd	a5,8(a3)
 1003140:	ea14                	sd	a3,16(a2)
 1003142:	00009797          	auipc	a5,0x9
 1003146:	b467b783          	ld	a5,-1210(a5) # 100bc88 <__spl_start+0xa798>
 100314a:	0ef76c63          	bltu	a4,a5,1003242 <__spl_start+0x1d52>
 100314e:	00016517          	auipc	a0,0x16
 1003152:	42253503          	ld	a0,1058(a0) # 1019570 <__spl_src_start+0xc488>
 1003156:	b5fd                	j	1003044 <__spl_start+0x1b54>
 1003158:	e598                	sd	a4,8(a1)
 100315a:	4881                	li	a7,0
 100315c:	02081363          	bnez	a6,1003182 <__spl_start+0x1c92>
 1003160:	ff053503          	ld	a0,-16(a0)
 1003164:	00008817          	auipc	a6,0x8
 1003168:	31c80813          	addi	a6,a6,796 # 100b480 <__spl_start+0x9f90>
 100316c:	8e89                	sub	a3,a3,a0
 100316e:	97aa                	add	a5,a5,a0
 1003170:	6a88                	ld	a0,16(a3)
 1003172:	09050063          	beq	a0,a6,10031f2 <__spl_start+0x1d02>
 1003176:	0186b803          	ld	a6,24(a3)
 100317a:	01053c23          	sd	a6,24(a0)
 100317e:	00a83823          	sd	a0,16(a6)
 1003182:	00e58533          	add	a0,a1,a4
 1003186:	6508                	ld	a0,8(a0)
 1003188:	8905                	andi	a0,a0,1
 100318a:	e105                	bnez	a0,10031aa <__spl_start+0x1cba>
 100318c:	97ba                	add	a5,a5,a4
 100318e:	6998                	ld	a4,16(a1)
 1003190:	06089363          	bnez	a7,10031f6 <__spl_start+0x1d06>
 1003194:	00008517          	auipc	a0,0x8
 1003198:	2ec50513          	addi	a0,a0,748 # 100b480 <__spl_start+0x9f90>
 100319c:	04a71d63          	bne	a4,a0,10031f6 <__spl_start+0x1d06>
 10031a0:	f614                	sd	a3,40(a2)
 10031a2:	f214                	sd	a3,32(a2)
 10031a4:	ee98                	sd	a4,24(a3)
 10031a6:	ea98                	sd	a4,16(a3)
 10031a8:	4885                	li	a7,1
 10031aa:	0017e713          	ori	a4,a5,1
 10031ae:	e698                	sd	a4,8(a3)
 10031b0:	00f68733          	add	a4,a3,a5
 10031b4:	e31c                	sd	a5,0(a4)
 10031b6:	08089663          	bnez	a7,1003242 <__spl_start+0x1d52>
 10031ba:	1ff00713          	li	a4,511
 10031be:	04f76063          	bltu	a4,a5,10031fe <__spl_start+0x1d0e>
 10031c2:	838d                	srli	a5,a5,0x3
 10031c4:	4027d59b          	sraiw	a1,a5,0x2
 10031c8:	4705                	li	a4,1
 10031ca:	00b7173b          	sllw	a4,a4,a1
 10031ce:	660c                	ld	a1,8(a2)
 10031d0:	1702                	slli	a4,a4,0x20
 10031d2:	2785                	addiw	a5,a5,1
 10031d4:	9301                	srli	a4,a4,0x20
 10031d6:	0017979b          	slliw	a5,a5,0x1
 10031da:	8f4d                	or	a4,a4,a1
 10031dc:	078e                	slli	a5,a5,0x3
 10031de:	e618                	sd	a4,8(a2)
 10031e0:	97b2                	add	a5,a5,a2
 10031e2:	6398                	ld	a4,0(a5)
 10031e4:	ff078613          	addi	a2,a5,-16
 10031e8:	ee90                	sd	a2,24(a3)
 10031ea:	ea98                	sd	a4,16(a3)
 10031ec:	e394                	sd	a3,0(a5)
 10031ee:	ef14                	sd	a3,24(a4)
 10031f0:	8082                	ret
 10031f2:	4885                	li	a7,1
 10031f4:	b779                	j	1003182 <__spl_start+0x1c92>
 10031f6:	6d8c                	ld	a1,24(a1)
 10031f8:	ef0c                	sd	a1,24(a4)
 10031fa:	e998                	sd	a4,16(a1)
 10031fc:	b77d                	j	10031aa <__spl_start+0x1cba>
 10031fe:	0097d593          	srli	a1,a5,0x9
 1003202:	4711                	li	a4,4
 1003204:	04b76063          	bltu	a4,a1,1003244 <__spl_start+0x1d54>
 1003208:	0067d713          	srli	a4,a5,0x6
 100320c:	0387071b          	addiw	a4,a4,56
 1003210:	0017059b          	addiw	a1,a4,1
 1003214:	0015959b          	slliw	a1,a1,0x1
 1003218:	058e                	slli	a1,a1,0x3
 100321a:	95b2                	add	a1,a1,a2
 100321c:	ff058513          	addi	a0,a1,-16
 1003220:	618c                	ld	a1,0(a1)
 1003222:	06b51763          	bne	a0,a1,1003290 <__spl_start+0x1da0>
 1003226:	4027571b          	sraiw	a4,a4,0x2
 100322a:	4785                	li	a5,1
 100322c:	00e797bb          	sllw	a5,a5,a4
 1003230:	6618                	ld	a4,8(a2)
 1003232:	1782                	slli	a5,a5,0x20
 1003234:	9381                	srli	a5,a5,0x20
 1003236:	8fd9                	or	a5,a5,a4
 1003238:	e61c                	sd	a5,8(a2)
 100323a:	ee88                	sd	a0,24(a3)
 100323c:	ea8c                	sd	a1,16(a3)
 100323e:	e914                	sd	a3,16(a0)
 1003240:	ed94                	sd	a3,24(a1)
 1003242:	8082                	ret
 1003244:	4751                	li	a4,20
 1003246:	00b76563          	bltu	a4,a1,1003250 <__spl_start+0x1d60>
 100324a:	05b5871b          	addiw	a4,a1,91
 100324e:	b7c9                	j	1003210 <__spl_start+0x1d20>
 1003250:	05400713          	li	a4,84
 1003254:	00b76763          	bltu	a4,a1,1003262 <__spl_start+0x1d72>
 1003258:	00c7d713          	srli	a4,a5,0xc
 100325c:	06e7071b          	addiw	a4,a4,110
 1003260:	bf45                	j	1003210 <__spl_start+0x1d20>
 1003262:	15400713          	li	a4,340
 1003266:	00b76763          	bltu	a4,a1,1003274 <__spl_start+0x1d84>
 100326a:	00f7d713          	srli	a4,a5,0xf
 100326e:	0777071b          	addiw	a4,a4,119
 1003272:	bf79                	j	1003210 <__spl_start+0x1d20>
 1003274:	55400513          	li	a0,1364
 1003278:	07e00713          	li	a4,126
 100327c:	f8b56ae3          	bltu	a0,a1,1003210 <__spl_start+0x1d20>
 1003280:	0127d713          	srli	a4,a5,0x12
 1003284:	07c7071b          	addiw	a4,a4,124
 1003288:	b761                	j	1003210 <__spl_start+0x1d20>
 100328a:	698c                	ld	a1,16(a1)
 100328c:	00b50663          	beq	a0,a1,1003298 <__spl_start+0x1da8>
 1003290:	6598                	ld	a4,8(a1)
 1003292:	9b71                	andi	a4,a4,-4
 1003294:	fee7ebe3          	bltu	a5,a4,100328a <__spl_start+0x1d9a>
 1003298:	6d88                	ld	a0,24(a1)
 100329a:	b745                	j	100323a <__spl_start+0x1d4a>
 100329c:	0081b703          	ld	a4,8(gp)
 10032a0:	20077713          	andi	a4,a4,512
 10032a4:	e311                	bnez	a4,10032a8 <__spl_start+0x1db8>
 10032a6:	a71d                	j	10039cc <__spl_start+0x24dc>
 10032a8:	00009717          	auipc	a4,0x9
 10032ac:	ec873703          	ld	a4,-312(a4) # 100c170 <__spl_start+0xac80>
 10032b0:	00009697          	auipc	a3,0x9
 10032b4:	e686b683          	ld	a3,-408(a3) # 100c118 <__spl_start+0xac28>
 10032b8:	6318                	ld	a4,0(a4)
 10032ba:	6294                	ld	a3,0(a3)
 10032bc:	8f55                	or	a4,a4,a3
 10032be:	e319                	bnez	a4,10032c4 <__spl_start+0x1dd4>
 10032c0:	4501                	li	a0,0
 10032c2:	8082                	ret
 10032c4:	fe054ee3          	bltz	a0,10032c0 <__spl_start+0x1dd0>
 10032c8:	715d                	addi	sp,sp,-80
 10032ca:	f84a                	sd	s2,48(sp)
 10032cc:	e486                	sd	ra,72(sp)
 10032ce:	e0a2                	sd	s0,64(sp)
 10032d0:	fc26                	sd	s1,56(sp)
 10032d2:	f44e                	sd	s3,40(sp)
 10032d4:	f052                	sd	s4,32(sp)
 10032d6:	ec56                	sd	s5,24(sp)
 10032d8:	e85a                	sd	s6,16(sp)
 10032da:	e45e                	sd	s7,8(sp)
 10032dc:	e062                	sd	s8,0(sp)
 10032de:	01750793          	addi	a5,a0,23
 10032e2:	02e00713          	li	a4,46
 10032e6:	00008917          	auipc	s2,0x8
 10032ea:	18a90913          	addi	s2,s2,394 # 100b470 <__spl_start+0x9f80>
 10032ee:	04f75663          	bge	a4,a5,100333a <__spl_start+0x1e4a>
 10032f2:	ff07f493          	andi	s1,a5,-16
 10032f6:	1f700793          	li	a5,503
 10032fa:	0497e363          	bltu	a5,s1,1003340 <__spl_start+0x1e50>
 10032fe:	0034d713          	srli	a4,s1,0x3
 1003302:	0007079b          	sext.w	a5,a4
 1003306:	2705                	addiw	a4,a4,1
 1003308:	0017171b          	slliw	a4,a4,0x1
 100330c:	070e                	slli	a4,a4,0x3
 100330e:	974a                	add	a4,a4,s2
 1003310:	6708                	ld	a0,8(a4)
 1003312:	ff070693          	addi	a3,a4,-16
 1003316:	00d51663          	bne	a0,a3,1003322 <__spl_start+0x1e32>
 100331a:	6f08                	ld	a0,24(a4)
 100331c:	2789                	addiw	a5,a5,2
 100331e:	06a70163          	beq	a4,a0,1003380 <__spl_start+0x1e90>
 1003322:	651c                	ld	a5,8(a0)
 1003324:	6d18                	ld	a4,24(a0)
 1003326:	6914                	ld	a3,16(a0)
 1003328:	9bf1                	andi	a5,a5,-4
 100332a:	97aa                	add	a5,a5,a0
 100332c:	ee98                	sd	a4,24(a3)
 100332e:	eb14                	sd	a3,16(a4)
 1003330:	6798                	ld	a4,8(a5)
 1003332:	00176713          	ori	a4,a4,1
 1003336:	e798                	sd	a4,8(a5)
 1003338:	a059                	j	10033be <__spl_start+0x1ece>
 100333a:	02000493          	li	s1,32
 100333e:	b7c1                	j	10032fe <__spl_start+0x1e0e>
 1003340:	0094d713          	srli	a4,s1,0x9
 1003344:	03f00793          	li	a5,63
 1003348:	cb01                	beqz	a4,1003358 <__spl_start+0x1e68>
 100334a:	4791                	li	a5,4
 100334c:	08e7e663          	bltu	a5,a4,10033d8 <__spl_start+0x1ee8>
 1003350:	0064d793          	srli	a5,s1,0x6
 1003354:	0387879b          	addiw	a5,a5,56
 1003358:	0017871b          	addiw	a4,a5,1
 100335c:	0017171b          	slliw	a4,a4,0x1
 1003360:	070e                	slli	a4,a4,0x3
 1003362:	974a                	add	a4,a4,s2
 1003364:	6708                	ld	a0,8(a4)
 1003366:	ff070593          	addi	a1,a4,-16
 100336a:	487d                	li	a6,31
 100336c:	00a58963          	beq	a1,a0,100337e <__spl_start+0x1e8e>
 1003370:	6518                	ld	a4,8(a0)
 1003372:	9b71                	andi	a4,a4,-4
 1003374:	40970633          	sub	a2,a4,s1
 1003378:	0ac85363          	bge	a6,a2,100341e <__spl_start+0x1f2e>
 100337c:	37fd                	addiw	a5,a5,-1
 100337e:	2785                	addiw	a5,a5,1
 1003380:	02093503          	ld	a0,32(s2)
 1003384:	00008597          	auipc	a1,0x8
 1003388:	0fc58593          	addi	a1,a1,252 # 100b480 <__spl_start+0x9f90>
 100338c:	0eb50e63          	beq	a0,a1,1003488 <__spl_start+0x1f98>
 1003390:	6518                	ld	a4,8(a0)
 1003392:	46fd                	li	a3,31
 1003394:	9b71                	andi	a4,a4,-4
 1003396:	40970633          	sub	a2,a4,s1
 100339a:	08c6dd63          	bge	a3,a2,1003434 <__spl_start+0x1f44>
 100339e:	0014e793          	ori	a5,s1,1
 10033a2:	e51c                	sd	a5,8(a0)
 10033a4:	009506b3          	add	a3,a0,s1
 10033a8:	02d93423          	sd	a3,40(s2)
 10033ac:	02d93023          	sd	a3,32(s2)
 10033b0:	00166793          	ori	a5,a2,1
 10033b4:	ee8c                	sd	a1,24(a3)
 10033b6:	ea8c                	sd	a1,16(a3)
 10033b8:	e69c                	sd	a5,8(a3)
 10033ba:	972a                	add	a4,a4,a0
 10033bc:	e310                	sd	a2,0(a4)
 10033be:	0541                	addi	a0,a0,16
 10033c0:	60a6                	ld	ra,72(sp)
 10033c2:	6406                	ld	s0,64(sp)
 10033c4:	74e2                	ld	s1,56(sp)
 10033c6:	7942                	ld	s2,48(sp)
 10033c8:	79a2                	ld	s3,40(sp)
 10033ca:	7a02                	ld	s4,32(sp)
 10033cc:	6ae2                	ld	s5,24(sp)
 10033ce:	6b42                	ld	s6,16(sp)
 10033d0:	6ba2                	ld	s7,8(sp)
 10033d2:	6c02                	ld	s8,0(sp)
 10033d4:	6161                	addi	sp,sp,80
 10033d6:	8082                	ret
 10033d8:	47d1                	li	a5,20
 10033da:	00e7e563          	bltu	a5,a4,10033e4 <__spl_start+0x1ef4>
 10033de:	05b7079b          	addiw	a5,a4,91
 10033e2:	bf9d                	j	1003358 <__spl_start+0x1e68>
 10033e4:	05400793          	li	a5,84
 10033e8:	00e7e763          	bltu	a5,a4,10033f6 <__spl_start+0x1f06>
 10033ec:	00c4d793          	srli	a5,s1,0xc
 10033f0:	06e7879b          	addiw	a5,a5,110
 10033f4:	b795                	j	1003358 <__spl_start+0x1e68>
 10033f6:	15400793          	li	a5,340
 10033fa:	00e7e763          	bltu	a5,a4,1003408 <__spl_start+0x1f18>
 10033fe:	00f4d793          	srli	a5,s1,0xf
 1003402:	0777879b          	addiw	a5,a5,119
 1003406:	bf89                	j	1003358 <__spl_start+0x1e68>
 1003408:	55400693          	li	a3,1364
 100340c:	07e00793          	li	a5,126
 1003410:	f4e6e4e3          	bltu	a3,a4,1003358 <__spl_start+0x1e68>
 1003414:	0124d793          	srli	a5,s1,0x12
 1003418:	07c7879b          	addiw	a5,a5,124
 100341c:	bf35                	j	1003358 <__spl_start+0x1e68>
 100341e:	6d14                	ld	a3,24(a0)
 1003420:	00064863          	bltz	a2,1003430 <__spl_start+0x1f40>
 1003424:	691c                	ld	a5,16(a0)
 1003426:	ef94                	sd	a3,24(a5)
 1003428:	ea9c                	sd	a5,16(a3)
 100342a:	00e507b3          	add	a5,a0,a4
 100342e:	b709                	j	1003330 <__spl_start+0x1e40>
 1003430:	8536                	mv	a0,a3
 1003432:	bf2d                	j	100336c <__spl_start+0x1e7c>
 1003434:	02b93423          	sd	a1,40(s2)
 1003438:	02b93023          	sd	a1,32(s2)
 100343c:	00064863          	bltz	a2,100344c <__spl_start+0x1f5c>
 1003440:	972a                	add	a4,a4,a0
 1003442:	671c                	ld	a5,8(a4)
 1003444:	0017e793          	ori	a5,a5,1
 1003448:	e71c                	sd	a5,8(a4)
 100344a:	bf95                	j	10033be <__spl_start+0x1ece>
 100344c:	1ff00693          	li	a3,511
 1003450:	00893883          	ld	a7,8(s2)
 1003454:	14e6e163          	bltu	a3,a4,1003596 <__spl_start+0x20a6>
 1003458:	830d                	srli	a4,a4,0x3
 100345a:	4027561b          	sraiw	a2,a4,0x2
 100345e:	4685                	li	a3,1
 1003460:	00c696bb          	sllw	a3,a3,a2
 1003464:	1682                	slli	a3,a3,0x20
 1003466:	2705                	addiw	a4,a4,1
 1003468:	9281                	srli	a3,a3,0x20
 100346a:	0017171b          	slliw	a4,a4,0x1
 100346e:	00d8e6b3          	or	a3,a7,a3
 1003472:	070e                	slli	a4,a4,0x3
 1003474:	974a                	add	a4,a4,s2
 1003476:	00d93423          	sd	a3,8(s2)
 100347a:	6314                	ld	a3,0(a4)
 100347c:	ff070613          	addi	a2,a4,-16
 1003480:	ed10                	sd	a2,24(a0)
 1003482:	e914                	sd	a3,16(a0)
 1003484:	e308                	sd	a0,0(a4)
 1003486:	ee88                	sd	a0,24(a3)
 1003488:	4027d69b          	sraiw	a3,a5,0x2
 100348c:	4705                	li	a4,1
 100348e:	00d7173b          	sllw	a4,a4,a3
 1003492:	02071313          	slli	t1,a4,0x20
 1003496:	00893703          	ld	a4,8(s2)
 100349a:	02035313          	srli	t1,t1,0x20
 100349e:	06676063          	bltu	a4,t1,10034fe <__spl_start+0x200e>
 10034a2:	00e376b3          	and	a3,t1,a4
 10034a6:	e699                	bnez	a3,10034b4 <__spl_start+0x1fc4>
 10034a8:	9bf1                	andi	a5,a5,-4
 10034aa:	0306                	slli	t1,t1,0x1
 10034ac:	006776b3          	and	a3,a4,t1
 10034b0:	2791                	addiw	a5,a5,4
 10034b2:	dee5                	beqz	a3,10034aa <__spl_start+0x1fba>
 10034b4:	4e7d                	li	t3,31
 10034b6:	0017871b          	addiw	a4,a5,1
 10034ba:	0017171b          	slliw	a4,a4,0x1
 10034be:	070e                	slli	a4,a4,0x3
 10034c0:	1741                	addi	a4,a4,-16
 10034c2:	974a                	add	a4,a4,s2
 10034c4:	883a                	mv	a6,a4
 10034c6:	863e                	mv	a2,a5
 10034c8:	01883503          	ld	a0,24(a6)
 10034cc:	16a81863          	bne	a6,a0,100363c <__spl_start+0x214c>
 10034d0:	2605                	addiw	a2,a2,1
 10034d2:	00367693          	andi	a3,a2,3
 10034d6:	0841                	addi	a6,a6,16
 10034d8:	fae5                	bnez	a3,10034c8 <__spl_start+0x1fd8>
 10034da:	0037f693          	andi	a3,a5,3
 10034de:	1a069963          	bnez	a3,1003690 <__spl_start+0x21a0>
 10034e2:	00893783          	ld	a5,8(s2)
 10034e6:	fff34713          	not	a4,t1
 10034ea:	8ff9                	and	a5,a5,a4
 10034ec:	00f93423          	sd	a5,8(s2)
 10034f0:	00893683          	ld	a3,8(s2)
 10034f4:	0306                	slli	t1,t1,0x1
 10034f6:	0066e463          	bltu	a3,t1,10034fe <__spl_start+0x200e>
 10034fa:	1a031763          	bnez	t1,10036a8 <__spl_start+0x21b8>
 10034fe:	01093a83          	ld	s5,16(s2)
 1003502:	47fd                	li	a5,31
 1003504:	008aba03          	ld	s4,8(s5)
 1003508:	ffca7a13          	andi	s4,s4,-4
 100350c:	409a0733          	sub	a4,s4,s1
 1003510:	22e7c063          	blt	a5,a4,1003730 <__spl_start+0x2240>
 1003514:	00008c17          	auipc	s8,0x8
 1003518:	76cc0c13          	addi	s8,s8,1900 # 100bc80 <__spl_start+0xa790>
 100351c:	000c3703          	ld	a4,0(s8)
 1003520:	00016417          	auipc	s0,0x16
 1003524:	05043403          	ld	s0,80(s0) # 1019570 <__spl_src_start+0xc488>
 1003528:	57fd                	li	a5,-1
 100352a:	014a8b33          	add	s6,s5,s4
 100352e:	9426                	add	s0,s0,s1
 1003530:	16f71e63          	bne	a4,a5,10036ac <__spl_start+0x21bc>
 1003534:	02040413          	addi	s0,s0,32
 1003538:	8522                	mv	a0,s0
 100353a:	a87ff0ef          	jal	ra,1002fc0 <__spl_start+0x1ad0>
 100353e:	57fd                	li	a5,-1
 1003540:	89aa                	mv	s3,a0
 1003542:	1cf50e63          	beq	a0,a5,100371e <__spl_start+0x222e>
 1003546:	01657463          	bgeu	a0,s6,100354e <__spl_start+0x205e>
 100354a:	1d2a9a63          	bne	s5,s2,100371e <__spl_start+0x222e>
 100354e:	00016b97          	auipc	s7,0x16
 1003552:	fd2b8b93          	addi	s7,s7,-46 # 1019520 <__spl_src_start+0xc438>
 1003556:	000ba783          	lw	a5,0(s7)
 100355a:	9fa1                	addw	a5,a5,s0
 100355c:	00fba023          	sw	a5,0(s7)
 1003560:	153b1c63          	bne	s6,s3,10036b8 <__spl_start+0x21c8>
 1003564:	01093783          	ld	a5,16(s2)
 1003568:	9452                	add	s0,s0,s4
 100356a:	00146413          	ori	s0,s0,1
 100356e:	e780                	sd	s0,8(a5)
 1003570:	00016717          	auipc	a4,0x16
 1003574:	fd870713          	addi	a4,a4,-40 # 1019548 <__spl_src_start+0xc460>
 1003578:	000ba783          	lw	a5,0(s7)
 100357c:	6314                	ld	a3,0(a4)
 100357e:	00f6f363          	bgeu	a3,a5,1003584 <__spl_start+0x2094>
 1003582:	e31c                	sd	a5,0(a4)
 1003584:	00016717          	auipc	a4,0x16
 1003588:	fcc70713          	addi	a4,a4,-52 # 1019550 <__spl_src_start+0xc468>
 100358c:	6314                	ld	a3,0(a4)
 100358e:	18f6f863          	bgeu	a3,a5,100371e <__spl_start+0x222e>
 1003592:	e31c                	sd	a5,0(a4)
 1003594:	a269                	j	100371e <__spl_start+0x222e>
 1003596:	00975613          	srli	a2,a4,0x9
 100359a:	4691                	li	a3,4
 100359c:	04c6e363          	bltu	a3,a2,10035e2 <__spl_start+0x20f2>
 10035a0:	00675693          	srli	a3,a4,0x6
 10035a4:	0386869b          	addiw	a3,a3,56
 10035a8:	0016861b          	addiw	a2,a3,1
 10035ac:	0016161b          	slliw	a2,a2,0x1
 10035b0:	060e                	slli	a2,a2,0x3
 10035b2:	964a                	add	a2,a2,s2
 10035b4:	ff060813          	addi	a6,a2,-16
 10035b8:	6210                	ld	a2,0(a2)
 10035ba:	06c81a63          	bne	a6,a2,100362e <__spl_start+0x213e>
 10035be:	4026d69b          	sraiw	a3,a3,0x2
 10035c2:	4705                	li	a4,1
 10035c4:	00d7173b          	sllw	a4,a4,a3
 10035c8:	1702                	slli	a4,a4,0x20
 10035ca:	9301                	srli	a4,a4,0x20
 10035cc:	00e8e733          	or	a4,a7,a4
 10035d0:	00e93423          	sd	a4,8(s2)
 10035d4:	01053c23          	sd	a6,24(a0)
 10035d8:	e910                	sd	a2,16(a0)
 10035da:	00a83823          	sd	a0,16(a6)
 10035de:	ee08                	sd	a0,24(a2)
 10035e0:	b565                	j	1003488 <__spl_start+0x1f98>
 10035e2:	46d1                	li	a3,20
 10035e4:	00c6e563          	bltu	a3,a2,10035ee <__spl_start+0x20fe>
 10035e8:	05b6069b          	addiw	a3,a2,91
 10035ec:	bf75                	j	10035a8 <__spl_start+0x20b8>
 10035ee:	05400693          	li	a3,84
 10035f2:	00c6e763          	bltu	a3,a2,1003600 <__spl_start+0x2110>
 10035f6:	00c75693          	srli	a3,a4,0xc
 10035fa:	06e6869b          	addiw	a3,a3,110
 10035fe:	b76d                	j	10035a8 <__spl_start+0x20b8>
 1003600:	15400693          	li	a3,340
 1003604:	00c6e763          	bltu	a3,a2,1003612 <__spl_start+0x2122>
 1003608:	00f75693          	srli	a3,a4,0xf
 100360c:	0776869b          	addiw	a3,a3,119
 1003610:	bf61                	j	10035a8 <__spl_start+0x20b8>
 1003612:	55400813          	li	a6,1364
 1003616:	07e00693          	li	a3,126
 100361a:	f8c867e3          	bltu	a6,a2,10035a8 <__spl_start+0x20b8>
 100361e:	01275693          	srli	a3,a4,0x12
 1003622:	07c6869b          	addiw	a3,a3,124
 1003626:	b749                	j	10035a8 <__spl_start+0x20b8>
 1003628:	6a10                	ld	a2,16(a2)
 100362a:	00c80663          	beq	a6,a2,1003636 <__spl_start+0x2146>
 100362e:	6614                	ld	a3,8(a2)
 1003630:	9af1                	andi	a3,a3,-4
 1003632:	fed76be3          	bltu	a4,a3,1003628 <__spl_start+0x2138>
 1003636:	01863803          	ld	a6,24(a2)
 100363a:	bf69                	j	10035d4 <__spl_start+0x20e4>
 100363c:	6514                	ld	a3,8(a0)
 100363e:	9af1                	andi	a3,a3,-4
 1003640:	409688b3          	sub	a7,a3,s1
 1003644:	031e5863          	bge	t3,a7,1003674 <__spl_start+0x2184>
 1003648:	0014e793          	ori	a5,s1,1
 100364c:	e51c                	sd	a5,8(a0)
 100364e:	6910                	ld	a2,16(a0)
 1003650:	6d1c                	ld	a5,24(a0)
 1003652:	00950733          	add	a4,a0,s1
 1003656:	96aa                	add	a3,a3,a0
 1003658:	ee1c                	sd	a5,24(a2)
 100365a:	eb90                	sd	a2,16(a5)
 100365c:	02e93423          	sd	a4,40(s2)
 1003660:	02e93023          	sd	a4,32(s2)
 1003664:	0018e793          	ori	a5,a7,1
 1003668:	ef0c                	sd	a1,24(a4)
 100366a:	eb0c                	sd	a1,16(a4)
 100366c:	e71c                	sd	a5,8(a4)
