
bootrom-spl.elf:     file format elf64-littleriscv


Disassembly of section .text:

0000000001000000 <_start>:
 1000000:	f14022f3          	csrr	t0,mhartid
 1000004:	02029a63          	bnez	t0,1000038 <_snitch_bl_start>
 1000008:	0040006f          	j	100000c <_cva6_bl_start>

000000000100000c <_cva6_bl_start>:
 100000c:	00000297          	auipc	t0,0x0
 1000010:	01828293          	addi	t0,t0,24 # 1000024 <_cva6_exception>
 1000014:	30529073          	csrw	mtvec,t0
 1000018:	0210011b          	addiw	sp,zero,33
 100001c:	01a11113          	slli	sp,sp,0x1a
 1000020:	1240c0ef          	jal	ra,100c144 <main>

0000000001000024 <_cva6_exception>:
 1000024:	00000013          	nop
 1000028:	00000013          	nop
 100002c:	00000013          	nop
 1000030:	00000013          	nop
 1000034:	ff1ff06f          	j	1000024 <_cva6_exception>

0000000001000038 <_snitch_bl_start>:
 1000038:	00000297          	auipc	t0,0x0
 100003c:	02028293          	addi	t0,t0,32 # 1000058 <_snitch_resume>
 1000040:	30529073          	csrw	mtvec,t0
 1000044:	30046073          	csrsi	mstatus,8
 1000048:	30446073          	csrsi	mie,8
 100004c:	000802b7          	lui	t0,0x80
 1000050:	3042a073          	csrs	mie,t0
 1000054:	10500073          	wfi

0000000001000058 <_snitch_resume>:
 1000058:	30047073          	csrci	mstatus,8
 100005c:	30447073          	csrci	mie,8
 1000060:	000802b7          	lui	t0,0x80
 1000064:	3042b073          	csrc	mie,t0
 1000068:	0000100f          	fence.i
 100006c:	01000297          	auipc	t0,0x1000
 1000070:	fa828293          	addi	t0,t0,-88 # 2000014 <__soc_ctrl_scratch0>
 1000074:	0002a283          	lw	t0,0(t0)
 1000078:	01000597          	auipc	a1,0x1000
 100007c:	fa058593          	addi	a1,a1,-96 # 2000018 <__soc_ctrl_scratch1>
 1000080:	0005a583          	lw	a1,0(a1)
 1000084:	f1402573          	csrr	a0,mhartid
 1000088:	000280e7          	jalr	t0
 100008c:	fadff06f          	j	1000038 <_snitch_bl_start>

0000000001000090 <device_tree>:
 1000090:	0dd0                	addi	a2,sp,724
 1000092:	edfe                	sd	t6,216(sp)
 1000094:	0000                	unimp
 1000096:	5606                	lw	a2,96(sp)
 1000098:	0000                	unimp
 100009a:	3800                	fld	fs0,48(s0)
 100009c:	0000                	unimp
 100009e:	2c05                	addiw	s8,s8,1
 10000a0:	0000                	unimp
 10000a2:	2800                	fld	fs0,16(s0)
 10000a4:	0000                	unimp
 10000a6:	1100                	addi	s0,sp,160
 10000a8:	0000                	unimp
 10000aa:	1000                	addi	s0,sp,32
 10000ac:	0000                	unimp
 10000ae:	0000                	unimp
 10000b0:	0000                	unimp
 10000b2:	2a01                	sext.w	s4,s4
 10000b4:	0000                	unimp
 10000b6:	f404                	sd	s1,40(s0)
	...
 10000c8:	0000                	unimp
 10000ca:	0100                	addi	s0,sp,128
 10000cc:	0000                	unimp
 10000ce:	0000                	unimp
 10000d0:	0000                	unimp
 10000d2:	0300                	addi	s0,sp,384
 10000d4:	0000                	unimp
 10000d6:	0400                	addi	s0,sp,512
 10000d8:	0000                	unimp
 10000da:	0000                	unimp
 10000dc:	0000                	unimp
 10000de:	0200                	addi	s0,sp,256
 10000e0:	0000                	unimp
 10000e2:	0300                	addi	s0,sp,384
 10000e4:	0000                	unimp
 10000e6:	0400                	addi	s0,sp,512
 10000e8:	0000                	unimp
 10000ea:	0f00                	addi	s0,sp,912
 10000ec:	0000                	unimp
 10000ee:	0200                	addi	s0,sp,256
 10000f0:	0000                	unimp
 10000f2:	0300                	addi	s0,sp,384
 10000f4:	0000                	unimp
 10000f6:	0f00                	addi	s0,sp,912
 10000f8:	0000                	unimp
 10000fa:	1b00                	addi	s0,sp,432
 10000fc:	7465                	lui	s0,0xffff9
 10000fe:	2c68                	fld	fa0,216(s0)
 1000100:	6163636f          	jal	t1,1036716 <__spl_src_start+0x2a436>
 1000104:	796d                	lui	s2,0xffffb
 1000106:	642d                	lui	s0,0xb
 1000108:	7665                	lui	a2,0xffff9
 100010a:	0000                	unimp
 100010c:	0000                	unimp
 100010e:	0300                	addi	s0,sp,384
 1000110:	0000                	unimp
 1000112:	0b00                	addi	s0,sp,400
 1000114:	0000                	unimp
 1000116:	2600                	fld	fs0,8(a2)
 1000118:	7465                	lui	s0,0xffff9
 100011a:	2c68                	fld	fa0,216(s0)
 100011c:	6163636f          	jal	t1,1036732 <__spl_src_start+0x2a452>
 1000120:	796d                	lui	s2,0xffffb
 1000122:	0000                	unimp
 1000124:	0000                	unimp
 1000126:	0100                	addi	s0,sp,128
 1000128:	736f6863          	bltu	t5,s6,1000858 <__spl_start+0x170>
 100012c:	6e65                	lui	t3,0x19
 100012e:	0000                	unimp
 1000130:	0000                	unimp
 1000132:	0300                	addi	s0,sp,384
 1000134:	0000                	unimp
 1000136:	0600                	addi	s0,sp,768
 1000138:	0000                	unimp
 100013a:	2c00                	fld	fs0,24(s0)
 100013c:	6974682f          	0x6974682f
 1000140:	0066                	c.slli	zero,0x19
 1000142:	0000                	unimp
 1000144:	0000                	unimp
 1000146:	0200                	addi	s0,sp,256
 1000148:	0000                	unimp
 100014a:	0100                	addi	s0,sp,128
 100014c:	656d                	lui	a0,0x1b
 100014e:	6f6d                	lui	t5,0x1b
 1000150:	7972                	ld	s2,312(sp)
 1000152:	3840                	fld	fs0,176(s0)
 1000154:	3030                	fld	fa2,96(s0)
 1000156:	3030                	fld	fa2,96(s0)
 1000158:	3030                	fld	fa2,96(s0)
 100015a:	0030                	addi	a2,sp,8
 100015c:	0000                	unimp
 100015e:	0300                	addi	s0,sp,384
 1000160:	0000                	unimp
 1000162:	0700                	addi	s0,sp,896
 1000164:	0000                	unimp
 1000166:	3800                	fld	fs0,48(s0)
 1000168:	656d                	lui	a0,0x1b
 100016a:	6f6d                	lui	t5,0x1b
 100016c:	7972                	ld	s2,312(sp)
 100016e:	0000                	unimp
 1000170:	0000                	unimp
 1000172:	0300                	addi	s0,sp,384
 1000174:	0000                	unimp
 1000176:	1000                	addi	s0,sp,32
 1000178:	0000                	unimp
 100017a:	4400                	lw	s0,8(s0)
 100017c:	0000                	unimp
 100017e:	0000                	unimp
 1000180:	0080                	addi	s0,sp,64
 1000182:	0000                	unimp
 1000184:	0000                	unimp
 1000186:	0000                	unimp
 1000188:	0040                	addi	s0,sp,4
 100018a:	0000                	unimp
 100018c:	0000                	unimp
 100018e:	0200                	addi	s0,sp,256
 1000190:	0000                	unimp
 1000192:	0100                	addi	s0,sp,128
 1000194:	73757063          	bgeu	a0,s7,10008b4 <__spl_start+0x1cc>
 1000198:	0000                	unimp
 100019a:	0000                	unimp
 100019c:	0000                	unimp
 100019e:	0300                	addi	s0,sp,384
 10001a0:	0000                	unimp
 10001a2:	0400                	addi	s0,sp,512
 10001a4:	0000                	unimp
 10001a6:	0000                	unimp
 10001a8:	0000                	unimp
 10001aa:	0100                	addi	s0,sp,128
 10001ac:	0000                	unimp
 10001ae:	0300                	addi	s0,sp,384
 10001b0:	0000                	unimp
 10001b2:	0400                	addi	s0,sp,512
 10001b4:	0000                	unimp
 10001b6:	0f00                	addi	s0,sp,912
 10001b8:	0000                	unimp
 10001ba:	0000                	unimp
 10001bc:	0000                	unimp
 10001be:	0300                	addi	s0,sp,384
 10001c0:	0000                	unimp
 10001c2:	0400                	addi	s0,sp,512
 10001c4:	0000                	unimp
 10001c6:	4800                	lw	s0,16(s0)
 10001c8:	7d01                	lui	s10,0xfffe0
 10001ca:	4078                	lw	a4,68(s0)
 10001cc:	0000                	unimp
 10001ce:	0100                	addi	s0,sp,128
 10001d0:	40757063          	bgeu	a0,t2,10005d0 <device_tree+0x540>
 10001d4:	0030                	addi	a2,sp,8
 10001d6:	0000                	unimp
 10001d8:	0000                	unimp
 10001da:	0300                	addi	s0,sp,384
 10001dc:	0000                	unimp
 10001de:	0400                	addi	s0,sp,512
 10001e0:	0000                	unimp
 10001e2:	3800                	fld	fs0,48(s0)
 10001e4:	00757063          	bgeu	a0,t2,10001e4 <device_tree+0x154>
 10001e8:	0000                	unimp
 10001ea:	0300                	addi	s0,sp,384
 10001ec:	0000                	unimp
 10001ee:	0500                	addi	s0,sp,640
 10001f0:	0000                	unimp
 10001f2:	5b00                	lw	s0,48(a4)
 10001f4:	79616b6f          	jal	s6,101698a <__spl_src_start+0xa6aa>
 10001f8:	0000                	unimp
 10001fa:	0000                	unimp
 10001fc:	0000                	unimp
 10001fe:	0300                	addi	s0,sp,384
 1000200:	0000                	unimp
 1000202:	1100                	addi	s0,sp,160
 1000204:	0000                	unimp
 1000206:	1b00                	addi	s0,sp,432
 1000208:	6972                	ld	s2,280(sp)
 100020a:	00766373          	csrrsi	t1,0x7,12
 100020e:	7465                	lui	s0,0xffff9
 1000210:	2c68                	fld	fa0,216(s0)
 1000212:	7261                	lui	tp,0xffff8
 1000214:	6169                	addi	sp,sp,208
 1000216:	656e                	ld	a0,216(sp)
 1000218:	0000                	unimp
 100021a:	0000                	unimp
 100021c:	0000                	unimp
 100021e:	0300                	addi	s0,sp,384
 1000220:	0000                	unimp
 1000222:	0400                	addi	s0,sp,512
 1000224:	0000                	unimp
 1000226:	6200                	ld	s0,0(a2)
 1000228:	fa02                	sd	zero,304(sp)
 100022a:	80f0                	0x80f0
 100022c:	0000                	unimp
 100022e:	0300                	addi	s0,sp,384
 1000230:	0000                	unimp
 1000232:	0b00                	addi	s0,sp,400
 1000234:	0000                	unimp
 1000236:	7200                	ld	s0,32(a2)
 1000238:	7672                	ld	a2,312(sp)
 100023a:	3436                	fld	fs0,360(sp)
 100023c:	6966                	ld	s2,88(sp)
 100023e:	616d                	addi	sp,sp,240
 1000240:	6466                	ld	s0,88(sp)
 1000242:	0000                	unimp
 1000244:	0000                	unimp
 1000246:	0300                	addi	s0,sp,384
 1000248:	0000                	unimp
 100024a:	0b00                	addi	s0,sp,400
 100024c:	0000                	unimp
 100024e:	7c00                	ld	s0,56(s0)
 1000250:	6972                	ld	s2,280(sp)
 1000252:	2c766373          	csrrsi	t1,0x2c7,12
 1000256:	39337673          	csrrci	a2,0x393,6
 100025a:	0000                	unimp
 100025c:	0000                	unimp
 100025e:	0300                	addi	s0,sp,384
 1000260:	0000                	unimp
 1000262:	0000                	unimp
 1000264:	0000                	unimp
 1000266:	8500                	0x8500
 1000268:	0000                	unimp
 100026a:	0300                	addi	s0,sp,384
 100026c:	0000                	unimp
 100026e:	0400                	addi	s0,sp,512
 1000270:	0000                	unimp
 1000272:	4400                	lw	s0,8(s0)
 1000274:	0000                	unimp
 1000276:	0000                	unimp
 1000278:	0000                	unimp
 100027a:	0100                	addi	s0,sp,128
 100027c:	6e69                	lui	t3,0x1a
 100027e:	6574                	ld	a3,200(a0)
 1000280:	7272                	ld	tp,312(sp)
 1000282:	7075                	c.lui	zero,0xffffd
 1000284:	2d74                	fld	fa3,216(a0)
 1000286:	746e6f63          	bltu	t3,t1,10009e4 <__spl_start+0x2fc>
 100028a:	6f72                	ld	t5,280(sp)
 100028c:	6c6c                	ld	a1,216(s0)
 100028e:	7265                	lui	tp,0xffff9
 1000290:	0000                	unimp
 1000292:	0000                	unimp
 1000294:	0000                	unimp
 1000296:	0300                	addi	s0,sp,384
 1000298:	0000                	unimp
 100029a:	0400                	addi	s0,sp,512
 100029c:	0000                	unimp
 100029e:	8f00                	0x8f00
 10002a0:	0000                	unimp
 10002a2:	0100                	addi	s0,sp,128
 10002a4:	0000                	unimp
 10002a6:	0300                	addi	s0,sp,384
 10002a8:	0000                	unimp
 10002aa:	0000                	unimp
 10002ac:	0000                	unimp
 10002ae:	a000                	fsd	fs0,0(s0)
 10002b0:	0000                	unimp
 10002b2:	0300                	addi	s0,sp,384
 10002b4:	0000                	unimp
 10002b6:	0f00                	addi	s0,sp,912
 10002b8:	0000                	unimp
 10002ba:	1b00                	addi	s0,sp,432
 10002bc:	6972                	ld	s2,280(sp)
 10002be:	2c766373          	csrrsi	t1,0x2c7,12
 10002c2:	2d757063          	bgeu	a0,s7,1000582 <device_tree+0x4f2>
 10002c6:	6e69                	lui	t3,0x1a
 10002c8:	6374                	ld	a3,192(a4)
 10002ca:	0000                	unimp
 10002cc:	0000                	unimp
 10002ce:	0300                	addi	s0,sp,384
 10002d0:	0000                	unimp
 10002d2:	0400                	addi	s0,sp,512
 10002d4:	0000                	unimp
 10002d6:	b500                	fsd	fs0,40(a0)
 10002d8:	0000                	unimp
 10002da:	0100                	addi	s0,sp,128
 10002dc:	0000                	unimp
 10002de:	0200                	addi	s0,sp,256
 10002e0:	0000                	unimp
 10002e2:	0200                	addi	s0,sp,256
 10002e4:	0000                	unimp
 10002e6:	0200                	addi	s0,sp,256
 10002e8:	0000                	unimp
 10002ea:	0100                	addi	s0,sp,128
 10002ec:	00636f73          	csrrsi	t5,0x6,6
 10002f0:	0000                	unimp
 10002f2:	0300                	addi	s0,sp,384
 10002f4:	0000                	unimp
 10002f6:	0400                	addi	s0,sp,512
 10002f8:	0000                	unimp
 10002fa:	0000                	unimp
 10002fc:	0000                	unimp
 10002fe:	0200                	addi	s0,sp,256
 1000300:	0000                	unimp
 1000302:	0300                	addi	s0,sp,384
 1000304:	0000                	unimp
 1000306:	0400                	addi	s0,sp,512
 1000308:	0000                	unimp
 100030a:	0f00                	addi	s0,sp,912
 100030c:	0000                	unimp
 100030e:	0200                	addi	s0,sp,256
 1000310:	0000                	unimp
 1000312:	0300                	addi	s0,sp,384
 1000314:	0000                	unimp
 1000316:	0b00                	addi	s0,sp,400
 1000318:	0000                	unimp
 100031a:	1b00                	addi	s0,sp,432
 100031c:	706d6973          	csrrsi	s2,0x706,26
 1000320:	656c                	ld	a1,200(a0)
 1000322:	622d                	lui	tp,0xb
 1000324:	7375                	lui	t1,0xffffd
 1000326:	0000                	unimp
 1000328:	0000                	unimp
 100032a:	0300                	addi	s0,sp,384
 100032c:	0000                	unimp
 100032e:	0000                	unimp
 1000330:	0000                	unimp
 1000332:	bd00                	fsd	fs0,56(a0)
 1000334:	0000                	unimp
 1000336:	0100                	addi	s0,sp,128
 1000338:	6564                	ld	s1,200(a0)
 100033a:	7562                	ld	a0,56(sp)
 100033c:	00304067          	0x304067
 1000340:	0000                	unimp
 1000342:	0300                	addi	s0,sp,384
 1000344:	0000                	unimp
 1000346:	1000                	addi	s0,sp,32
 1000348:	0000                	unimp
 100034a:	1b00                	addi	s0,sp,432
 100034c:	6972                	ld	s2,280(sp)
 100034e:	2c766373          	csrrsi	t1,0x2c7,12
 1000352:	6564                	ld	s1,200(a0)
 1000354:	7562                	ld	a0,56(sp)
 1000356:	31302d67          	0x31302d67
 100035a:	00000033          	add	zero,zero,zero
 100035e:	0300                	addi	s0,sp,384
 1000360:	0000                	unimp
 1000362:	0800                	addi	s0,sp,16
 1000364:	0000                	unimp
 1000366:	c400                	sw	s0,8(s0)
 1000368:	0000                	unimp
 100036a:	0100                	addi	s0,sp,128
 100036c:	0000                	unimp
 100036e:	ffff                	0xffff
 1000370:	0000                	unimp
 1000372:	0300                	addi	s0,sp,384
 1000374:	0000                	unimp
 1000376:	0800                	addi	s0,sp,16
 1000378:	0000                	unimp
 100037a:	d800                	sw	s0,48(s0)
 100037c:	746e6f63          	bltu	t3,t1,1000ada <__spl_start+0x3f2>
 1000380:	6f72                	ld	t5,280(sp)
 1000382:	006c                	addi	a1,sp,12
 1000384:	0000                	unimp
 1000386:	0300                	addi	s0,sp,384
 1000388:	0000                	unimp
 100038a:	1000                	addi	s0,sp,32
 100038c:	0000                	unimp
 100038e:	4400                	lw	s0,8(s0)
	...
 100039c:	0000                	unimp
 100039e:	0010                	0x10
 10003a0:	0000                	unimp
 10003a2:	0200                	addi	s0,sp,256
 10003a4:	0000                	unimp
 10003a6:	0100                	addi	s0,sp,128
 10003a8:	69726573          	csrrsi	a0,0x697,4
 10003ac:	6c61                	lui	s8,0x18
 10003ae:	3240                	fld	fs0,160(a2)
 10003b0:	3030                	fld	fa2,96(s0)
 10003b2:	3032                	fld	ft0,296(sp)
 10003b4:	3030                	fld	fa2,96(s0)
 10003b6:	0000                	unimp
 10003b8:	0000                	unimp
 10003ba:	0300                	addi	s0,sp,384
 10003bc:	0000                	unimp
 10003be:	0f00                	addi	s0,sp,912
 10003c0:	0000                	unimp
 10003c2:	1b00                	addi	s0,sp,432
 10003c4:	6f6c                	ld	a1,216(a4)
 10003c6:	73697277          	0x73697277
 10003ca:	65732c63          	0x65732c63
 10003ce:	6972                	ld	s2,280(sp)
 10003d0:	6c61                	lui	s8,0x18
 10003d2:	0000                	unimp
 10003d4:	0000                	unimp
 10003d6:	0300                	addi	s0,sp,384
 10003d8:	0000                	unimp
 10003da:	0400                	addi	s0,sp,512
 10003dc:	0000                	unimp
 10003de:	6200                	ld	s0,0(a2)
 10003e0:	fa02                	sd	zero,304(sp)
 10003e2:	80f0                	0x80f0
 10003e4:	0000                	unimp
 10003e6:	0300                	addi	s0,sp,384
 10003e8:	0000                	unimp
 10003ea:	0400                	addi	s0,sp,512
 10003ec:	0000                	unimp
 10003ee:	e200                	sd	s0,0(a2)
 10003f0:	0100                	addi	s0,sp,128
 10003f2:	00c2                	slli	ra,ra,0x10
 10003f4:	0000                	unimp
 10003f6:	0300                	addi	s0,sp,384
 10003f8:	0000                	unimp
 10003fa:	0400                	addi	s0,sp,512
 10003fc:	0000                	unimp
 10003fe:	f000                	sd	s0,32(s0)
 1000400:	0000                	unimp
 1000402:	0200                	addi	s0,sp,256
 1000404:	0000                	unimp
 1000406:	0300                	addi	s0,sp,384
 1000408:	0000                	unimp
 100040a:	0400                	addi	s0,sp,512
 100040c:	0000                	unimp
 100040e:	0101                	addi	sp,sp,0
 1000410:	0000                	unimp
 1000412:	0100                	addi	s0,sp,128
 1000414:	0000                	unimp
 1000416:	0300                	addi	s0,sp,384
 1000418:	0000                	unimp
 100041a:	1000                	addi	s0,sp,32
 100041c:	0000                	unimp
 100041e:	4400                	lw	s0,8(s0)
 1000420:	0000                	unimp
 1000422:	0000                	unimp
 1000424:	0002                	c.slli64	zero
 1000426:	0020                	addi	s0,sp,8
 1000428:	0000                	unimp
 100042a:	0000                	unimp
 100042c:	0000                	unimp
 100042e:	0010                	0x10
 1000430:	0000                	unimp
 1000432:	0200                	addi	s0,sp,256
 1000434:	0000                	unimp
 1000436:	0100                	addi	s0,sp,128
 1000438:	6e69                	lui	t3,0x1a
 100043a:	6574                	ld	a3,200(a0)
 100043c:	7272                	ld	tp,312(sp)
 100043e:	7075                	c.lui	zero,0xffffd
 1000440:	2d74                	fld	fa3,216(a0)
 1000442:	746e6f63          	bltu	t3,t1,1000ba0 <__spl_start+0x4b8>
 1000446:	6f72                	ld	t5,280(sp)
 1000448:	6c6c                	ld	a1,216(s0)
 100044a:	7265                	lui	tp,0xffff9
 100044c:	6340                	ld	s0,128(a4)
 100044e:	3030                	fld	fa2,96(s0)
 1000450:	3030                	fld	fa2,96(s0)
 1000452:	3030                	fld	fa2,96(s0)
 1000454:	0000                	unimp
 1000456:	0000                	unimp
 1000458:	0000                	unimp
 100045a:	0300                	addi	s0,sp,384
 100045c:	0000                	unimp
 100045e:	0c00                	addi	s0,sp,528
 1000460:	0000                	unimp
 1000462:	1b00                	addi	s0,sp,432
 1000464:	6972                	ld	s2,280(sp)
 1000466:	2c766373          	csrrsi	t1,0x2c7,12
 100046a:	6c70                	ld	a2,216(s0)
 100046c:	6369                	lui	t1,0x1a
 100046e:	0030                	addi	a2,sp,8
 1000470:	0000                	unimp
 1000472:	0300                	addi	s0,sp,384
 1000474:	0000                	unimp
 1000476:	0400                	addi	s0,sp,512
	...
 1000480:	0000                	unimp
 1000482:	0300                	addi	s0,sp,384
 1000484:	0000                	unimp
 1000486:	0400                	addi	s0,sp,512
 1000488:	0000                	unimp
 100048a:	8f00                	0x8f00
 100048c:	0000                	unimp
 100048e:	0100                	addi	s0,sp,128
 1000490:	0000                	unimp
 1000492:	0300                	addi	s0,sp,384
 1000494:	0000                	unimp
 1000496:	0000                	unimp
 1000498:	0000                	unimp
 100049a:	a000                	fsd	fs0,0(s0)
 100049c:	0000                	unimp
 100049e:	0300                	addi	s0,sp,384
 10004a0:	0000                	unimp
 10004a2:	1000                	addi	s0,sp,32
 10004a4:	0000                	unimp
 10004a6:	c400                	sw	s0,8(s0)
 10004a8:	0000                	unimp
 10004aa:	0100                	addi	s0,sp,128
 10004ac:	0000                	unimp
 10004ae:	0b00                	addi	s0,sp,400
 10004b0:	0000                	unimp
 10004b2:	0100                	addi	s0,sp,128
 10004b4:	0000                	unimp
 10004b6:	0900                	addi	s0,sp,144
 10004b8:	0000                	unimp
 10004ba:	0300                	addi	s0,sp,384
 10004bc:	0000                	unimp
 10004be:	0400                	addi	s0,sp,512
 10004c0:	0000                	unimp
 10004c2:	0c01                	addi	s8,s8,0
 10004c4:	0000                	unimp
 10004c6:	0700                	addi	s0,sp,896
 10004c8:	0000                	unimp
 10004ca:	0300                	addi	s0,sp,384
 10004cc:	0000                	unimp
 10004ce:	0400                	addi	s0,sp,512
 10004d0:	0000                	unimp
 10004d2:	1f01                	addi	t5,t5,-32
 10004d4:	0000                	unimp
 10004d6:	4900                	lw	s0,16(a0)
 10004d8:	0000                	unimp
 10004da:	0300                	addi	s0,sp,384
 10004dc:	0000                	unimp
 10004de:	1000                	addi	s0,sp,32
 10004e0:	0000                	unimp
 10004e2:	4400                	lw	s0,8(s0)
 10004e4:	0000                	unimp
 10004e6:	0000                	unimp
 10004e8:	000c                	0xc
 10004ea:	0000                	unimp
 10004ec:	0000                	unimp
 10004ee:	0000                	unimp
 10004f0:	0004                	0x4
 10004f2:	0000                	unimp
 10004f4:	0000                	unimp
 10004f6:	0300                	addi	s0,sp,384
 10004f8:	0000                	unimp
 10004fa:	0400                	addi	s0,sp,512
 10004fc:	0000                	unimp
 10004fe:	b500                	fsd	fs0,40(a0)
 1000500:	0000                	unimp
 1000502:	0200                	addi	s0,sp,256
 1000504:	0000                	unimp
 1000506:	0200                	addi	s0,sp,256
 1000508:	0000                	unimp
 100050a:	0100                	addi	s0,sp,128
 100050c:	6e696c63          	bltu	s2,t1,1000c04 <__spl_start+0x51c>
 1000510:	4074                	lw	a3,68(s0)
 1000512:	3034                	fld	fa3,96(s0)
 1000514:	3030                	fld	fa2,96(s0)
 1000516:	3030                	fld	fa2,96(s0)
 1000518:	0030                	addi	a2,sp,8
 100051a:	0000                	unimp
 100051c:	0000                	unimp
 100051e:	0300                	addi	s0,sp,384
 1000520:	0000                	unimp
 1000522:	0d00                	addi	s0,sp,656
 1000524:	0000                	unimp
 1000526:	1b00                	addi	s0,sp,432
 1000528:	6972                	ld	s2,280(sp)
 100052a:	2c766373          	csrrsi	t1,0x2c7,12
 100052e:	6e696c63          	bltu	s2,t1,1000c26 <__spl_start+0x53e>
 1000532:	3074                	fld	fa3,224(s0)
 1000534:	0000                	unimp
 1000536:	0000                	unimp
 1000538:	0000                	unimp
 100053a:	0300                	addi	s0,sp,384
 100053c:	0000                	unimp
 100053e:	1000                	addi	s0,sp,32
 1000540:	0000                	unimp
 1000542:	c400                	sw	s0,8(s0)
 1000544:	0000                	unimp
 1000546:	0100                	addi	s0,sp,128
 1000548:	0000                	unimp
 100054a:	0300                	addi	s0,sp,384
 100054c:	0000                	unimp
 100054e:	0100                	addi	s0,sp,128
 1000550:	0000                	unimp
 1000552:	0700                	addi	s0,sp,896
 1000554:	0000                	unimp
 1000556:	0300                	addi	s0,sp,384
 1000558:	0000                	unimp
 100055a:	0800                	addi	s0,sp,16
 100055c:	0000                	unimp
 100055e:	d800                	sw	s0,48(s0)
 1000560:	746e6f63          	bltu	t3,t1,1000cbe <__spl_start+0x5d6>
 1000564:	6f72                	ld	t5,280(sp)
 1000566:	006c                	addi	a1,sp,12
 1000568:	0000                	unimp
 100056a:	0300                	addi	s0,sp,384
 100056c:	0000                	unimp
 100056e:	1000                	addi	s0,sp,32
 1000570:	0000                	unimp
 1000572:	4400                	lw	s0,8(s0)
 1000574:	0000                	unimp
 1000576:	0000                	unimp
 1000578:	0004                	0x4
 100057a:	0000                	unimp
 100057c:	0000                	unimp
 100057e:	0000                	unimp
 1000580:	1000                	addi	s0,sp,32
 1000582:	0000                	unimp
 1000584:	0000                	unimp
 1000586:	0200                	addi	s0,sp,256
 1000588:	0000                	unimp
 100058a:	0200                	addi	s0,sp,256
 100058c:	0000                	unimp
 100058e:	0100                	addi	s0,sp,128
 1000590:	7468                	ld	a0,232(s0)
 1000592:	6669                	lui	a2,0x1a
 1000594:	0000                	unimp
 1000596:	0000                	unimp
 1000598:	0000                	unimp
 100059a:	0300                	addi	s0,sp,384
 100059c:	0000                	unimp
 100059e:	0a00                	addi	s0,sp,272
 10005a0:	0000                	unimp
 10005a2:	1b00                	addi	s0,sp,432
 10005a4:	6375                	lui	t1,0x1d
 10005a6:	2c62                	fld	fs8,24(sp)
 10005a8:	7468                	ld	a0,232(s0)
 10005aa:	6669                	lui	a2,0x1a
 10005ac:	0030                	addi	a2,sp,8
 10005ae:	0000                	unimp
 10005b0:	0000                	unimp
 10005b2:	0200                	addi	s0,sp,256
 10005b4:	0000                	unimp
 10005b6:	0200                	addi	s0,sp,256
 10005b8:	0000                	unimp
 10005ba:	0900                	addi	s0,sp,144
 10005bc:	64646123          	0x64646123
 10005c0:	6572                	ld	a0,280(sp)
 10005c2:	632d7373          	csrrci	t1,0x632,26
 10005c6:	6c65                	lui	s8,0x19
 10005c8:	736c                	ld	a1,224(a4)
 10005ca:	2300                	fld	fs0,0(a4)
 10005cc:	657a6973          	csrrsi	s2,0x657,20
 10005d0:	632d                	lui	t1,0xb
 10005d2:	6c65                	lui	s8,0x19
 10005d4:	736c                	ld	a1,224(a4)
 10005d6:	6300                	ld	s0,0(a4)
 10005d8:	61706d6f          	jal	s10,10073ee <__spl_start+0x6d06>
 10005dc:	6974                	ld	a3,208(a0)
 10005de:	6c62                	ld	s8,24(sp)
 10005e0:	0065                	c.nop	25
 10005e2:	6f6d                	lui	t5,0x1b
 10005e4:	6564                	ld	s1,200(a0)
 10005e6:	006c                	addi	a1,sp,12
 10005e8:	6f647473          	csrrci	s0,0x6f6,8
 10005ec:	7475                	lui	s0,0xffffd
 10005ee:	702d                	c.lui	zero,0xfffeb
 10005f0:	7461                	lui	s0,0xffff8
 10005f2:	0068                	addi	a0,sp,12
 10005f4:	6564                	ld	s1,200(a0)
 10005f6:	6976                	ld	s2,344(sp)
 10005f8:	745f6563          	bltu	t5,t0,1000d42 <__spl_start+0x65a>
 10005fc:	7079                	c.lui	zero,0xffffe
 10005fe:	0065                	c.nop	25
 1000600:	6572                	ld	a0,280(sp)
 1000602:	69740067          	jr	1687(s0) # ffffffffffff8697 <__soc_ctrl_scratch1+0xfffffffffdff867f>
 1000606:	656d                	lui	a0,0x1b
 1000608:	6162                	ld	sp,24(sp)
 100060a:	662d6573          	csrrsi	a0,0x662,26
 100060e:	6572                	ld	a0,280(sp)
 1000610:	7571                	lui	a0,0xffffc
 1000612:	6e65                	lui	t3,0x19
 1000614:	73007963          	bgeu	zero,a6,1000d46 <__spl_start+0x65e>
 1000618:	6174                	ld	a3,192(a0)
 100061a:	7574                	ld	a3,232(a0)
 100061c:	6c630073          	0x6c630073
 1000620:	2d6b636f          	jal	t1,10b68f6 <__spl_src_start+0xaa616>
 1000624:	7266                	ld	tp,120(sp)
 1000626:	7165                	addi	sp,sp,-400
 1000628:	6575                	lui	a0,0x1d
 100062a:	636e                	ld	t1,216(sp)
 100062c:	0079                	c.nop	30
 100062e:	6972                	ld	s2,280(sp)
 1000630:	2c766373          	csrrsi	t1,0x2c7,12
 1000634:	7369                	lui	t1,0xffffa
 1000636:	0061                	c.nop	24
 1000638:	6d6d                	lui	s10,0x1b
 100063a:	2d75                	addiw	s10,s10,29
 100063c:	7974                	ld	a3,240(a0)
 100063e:	6570                	ld	a2,200(a0)
 1000640:	7400                	ld	s0,40(s0)
 1000642:	626c                	ld	a1,192(a2)
 1000644:	732d                	lui	t1,0xfffeb
 1000646:	6c70                	ld	a2,216(s0)
 1000648:	7469                	lui	s0,0xffffa
 100064a:	2300                	fld	fs0,0(a4)
 100064c:	6e69                	lui	t3,0x1a
 100064e:	6574                	ld	a3,200(a0)
 1000650:	7272                	ld	tp,312(sp)
 1000652:	7075                	c.lui	zero,0xffffd
 1000654:	2d74                	fld	fa3,216(a0)
 1000656:	6c6c6563          	bltu	s8,t1,1000d20 <__spl_start+0x638>
 100065a:	6e690073          	0x6e690073
 100065e:	6574                	ld	a3,200(a0)
 1000660:	7272                	ld	tp,312(sp)
 1000662:	7075                	c.lui	zero,0xffffd
 1000664:	2d74                	fld	fa3,216(a0)
 1000666:	746e6f63          	bltu	t3,t1,1000dc4 <__spl_start+0x6dc>
 100066a:	6f72                	ld	t5,280(sp)
 100066c:	6c6c                	ld	a1,216(s0)
 100066e:	7265                	lui	tp,0xffff9
 1000670:	7000                	ld	s0,32(s0)
 1000672:	6168                	ld	a0,192(a0)
 1000674:	646e                	ld	s0,216(sp)
 1000676:	656c                	ld	a1,200(a0)
 1000678:	7200                	ld	s0,32(a2)
 100067a:	6e61                	lui	t3,0x18
 100067c:	00736567          	0x736567
 1000680:	6e69                	lui	t3,0x1a
 1000682:	6574                	ld	a3,200(a0)
 1000684:	7272                	ld	tp,312(sp)
 1000686:	7075                	c.lui	zero,0xffffd
 1000688:	7374                	ld	a3,224(a4)
 100068a:	652d                	lui	a0,0xb
 100068c:	7478                	ld	a4,232(s0)
 100068e:	6e65                	lui	t3,0x19
 1000690:	6564                	ld	s1,200(a0)
 1000692:	0064                	addi	s1,sp,12
 1000694:	6572                	ld	a0,280(sp)
 1000696:	616e2d67          	0x616e2d67
 100069a:	656d                	lui	a0,0x1b
 100069c:	75630073          	0x75630073
 10006a0:	7272                	ld	tp,312(sp)
 10006a2:	6e65                	lui	t3,0x19
 10006a4:	2d74                	fld	fa3,216(a0)
 10006a6:	65657073          	csrci	0x656,10
 10006aa:	0064                	addi	s1,sp,12
 10006ac:	6e69                	lui	t3,0x1a
 10006ae:	6574                	ld	a3,200(a0)
 10006b0:	7272                	ld	tp,312(sp)
 10006b2:	7075                	c.lui	zero,0xffffd
 10006b4:	2d74                	fld	fa3,216(a0)
 10006b6:	6170                	ld	a2,192(a0)
 10006b8:	6572                	ld	a0,280(sp)
 10006ba:	746e                	ld	s0,248(sp)
 10006bc:	6900                	ld	s0,16(a0)
 10006be:	746e                	ld	s0,248(sp)
 10006c0:	7265                	lui	tp,0xffff9
 10006c2:	7572                	ld	a0,312(sp)
 10006c4:	7470                	ld	a2,232(s0)
 10006c6:	69720073          	0x69720073
 10006ca:	2c766373          	csrrsi	t1,0x2c7,12
 10006ce:	616d                	addi	sp,sp,240
 10006d0:	2d78                	fld	fa4,216(a0)
 10006d2:	7270                	ld	a2,224(a2)
 10006d4:	6f69                	lui	t5,0x1a
 10006d6:	6972                	ld	s2,280(sp)
 10006d8:	7974                	ld	a3,240(a0)
 10006da:	7200                	ld	s0,32(a2)
 10006dc:	7369                	lui	t1,0xffffa
 10006de:	6e2c7663          	bgeu	s8,sp,1000dca <__spl_start+0x6e2>
 10006e2:	6564                	ld	s1,200(a0)
 10006e4:	0076                	c.slli	zero,0x1d
	...

00000000010006e8 <__spl_start>:
 10006e8:	f1402573          	csrr	a0,mhartid
 10006ec:	822a                	mv	tp,a0
 10006ee:	84ae                	mv	s1,a1
 10006f0:	00000193          	li	gp,0
 10006f4:	0000b297          	auipc	t0,0xb
 10006f8:	c8c2b283          	ld	t0,-884(t0) # 100b380 <__spl_start+0xac98>
 10006fc:	30529073          	csrw	mtvec,t0
 1000700:	30401073          	csrw	mie,zero
 1000704:	42a1                	li	t0,8
 1000706:	22525c63          	bge	tp,t0,100093e <__spl_start+0x256>
 100070a:	42a1                	li	t0,8
 100070c:	3042a073          	csrs	mie,t0
 1000710:	52c1                	li	t0,-16
 1000712:	70018337          	lui	t1,0x70018
 1000716:	00537133          	and	sp,t1,t0
 100071a:	850a                	mv	a0,sp
 100071c:	5f8010ef          	jal	ra,1001d14 <__spl_start+0x162c>
 1000720:	842a                	mv	s0,a0
 1000722:	00e21293          	slli	t0,tp,0xe
 1000726:	40550133          	sub	sp,a0,t0
 100072a:	2f2000ef          	jal	ra,1000a1c <__spl_start+0x334>
 100072e:	0000b297          	auipc	t0,0xb
 1000732:	cb22b283          	ld	t0,-846(t0) # 100b3e0 <__spl_start+0xacf8>
 1000736:	4305                	li	t1,1
 1000738:	0862a92f          	amoswap.w	s2,t1,(t0)
 100073c:	02091463          	bnez	s2,1000764 <__spl_start+0x7c>
 1000740:	0000b297          	auipc	t0,0xb
 1000744:	c782b283          	ld	t0,-904(t0) # 100b3b8 <__spl_start+0xacd0>
 1000748:	0092b023          	sd	s1,0(t0)
 100074c:	5d4010ef          	jal	ra,1001d20 <__spl_start+0x1638>
 1000750:	1491b423          	sd	s1,328(gp)
 1000754:	1441b023          	sd	tp,320(gp)
 1000758:	0000b297          	auipc	t0,0xb
 100075c:	b882b283          	ld	t0,-1144(t0) # 100b2e0 <__spl_start+0xabf8>
 1000760:	0a02a02f          	amoswap.w.rl	zero,zero,(t0)
 1000764:	0000b297          	auipc	t0,0xb
 1000768:	b7c2b283          	ld	t0,-1156(t0) # 100b2e0 <__spl_start+0xabf8>
 100076c:	4305                	li	t1,1
 100076e:	0c62a32f          	amoswap.w.aq	t1,t1,(t0)
 1000772:	fe031ee3          	bnez	t1,100076e <__spl_start+0x86>
 1000776:	81a2                	mv	gp,s0
 1000778:	4305                	li	t1,1
 100077a:	00431333          	sll	t1,t1,tp
 100077e:	2581b383          	ld	t2,600(gp)
 1000782:	0063e3b3          	or	t2,t2,t1
 1000786:	2471bc23          	sd	t2,600(gp)
 100078a:	0a02a02f          	amoswap.w.rl	zero,zero,(t0)
 100078e:	1c091063          	bnez	s2,100094e <__spl_start+0x266>
 1000792:	332000ef          	jal	ra,1000ac4 <__spl_start+0x3dc>
 1000796:	330000ef          	jal	ra,1000ac6 <__spl_start+0x3de>
 100079a:	00000513          	li	a0,0
 100079e:	0000bf17          	auipc	t5,0xb
 10007a2:	bfaf3f03          	ld	t5,-1030(t5) # 100b398 <__spl_start+0xacb0>
 10007a6:	9f02                	jalr	t5
 10007a8:	0000b297          	auipc	t0,0xb
 10007ac:	bd02b283          	ld	t0,-1072(t0) # 100b378 <__spl_start+0xac90>
 10007b0:	0000b317          	auipc	t1,0xb
 10007b4:	b9033303          	ld	t1,-1136(t1) # 100b340 <__spl_start+0xac58>
 10007b8:	00628763          	beq	t0,t1,10007c6 <__spl_start+0xde>
 10007bc:	0002b023          	sd	zero,0(t0)
 10007c0:	02a1                	addi	t0,t0,8
 10007c2:	fe62cde3          	blt	t0,t1,10007bc <__spl_start+0xd4>
 10007c6:	457000ef          	jal	ra,100141c <__spl_start+0xd34>
 10007ca:	c91d                	beqz	a0,1000800 <__spl_start+0x118>
 10007cc:	842a                	mv	s0,a0
 10007ce:	00e21293          	slli	t0,tp,0xe
 10007d2:	40540133          	sub	sp,s0,t0
 10007d6:	0000b517          	auipc	a0,0xb
 10007da:	ada53503          	ld	a0,-1318(a0) # 100b2b0 <__spl_start+0xabc8>
 10007de:	85a2                	mv	a1,s0
 10007e0:	8622                	mv	a2,s0
 10007e2:	00000693          	li	a3,0
 10007e6:	4f2000ef          	jal	ra,1000cd8 <__spl_start+0x5f0>
 10007ea:	c911                	beqz	a0,10007fe <__spl_start+0x116>
 10007ec:	85aa                	mv	a1,a0
 10007ee:	0000b517          	auipc	a0,0xb
 10007f2:	aba53503          	ld	a0,-1350(a0) # 100b2a8 <__spl_start+0xabc0>
 10007f6:	096040ef          	jal	ra,100488c <__spl_start+0x41a4>
 10007fa:	2d9030ef          	jal	ra,10042d2 <__spl_start+0x3bea>
 10007fe:	81a2                	mv	gp,s0
 1000800:	00000513          	li	a0,0
 1000804:	00000593          	li	a1,0
 1000808:	299000ef          	jal	ra,10012a0 <__spl_start+0xbb8>
 100080c:	892a                	mv	s2,a0
 100080e:	89ae                	mv	s3,a1
 1000810:	8a32                	mv	s4,a2
 1000812:	00e21293          	slli	t0,tp,0xe
 1000816:	40590133          	sub	sp,s2,t0
 100081a:	0000b297          	auipc	t0,0xb
 100081e:	b3e2b283          	ld	t0,-1218(t0) # 100b358 <__spl_start+0xac70>
 1000822:	405a0fb3          	sub	t6,s4,t0
 1000826:	0b428663          	beq	t0,s4,10008d2 <__spl_start+0x1ea>
 100082a:	8352                	mv	t1,s4
 100082c:	0000be17          	auipc	t3,0xb
 1000830:	b4ce3e03          	ld	t3,-1204(t3) # 100b378 <__spl_start+0xac90>
 1000834:	405e0e33          	sub	t3,t3,t0
 1000838:	01c283b3          	add	t2,t0,t3
 100083c:	0002bf03          	ld	t5,0(t0)
 1000840:	02a1                	addi	t0,t0,8
 1000842:	01e33023          	sd	t5,0(t1)
 1000846:	0321                	addi	t1,t1,8
 1000848:	fe72cae3          	blt	t0,t2,100083c <__spl_start+0x154>
 100084c:	0000b317          	auipc	t1,0xb
 1000850:	a7c33303          	ld	t1,-1412(t1) # 100b2c8 <__spl_start+0xabe0>
 1000854:	0000b397          	auipc	t2,0xb
 1000858:	b7c3b383          	ld	t2,-1156(t2) # 100b3d0 <__spl_start+0xace8>
 100085c:	06730b63          	beq	t1,t2,10008d2 <__spl_start+0x1ea>
 1000860:	937e                	add	t1,t1,t6
 1000862:	93fe                	add	t2,t2,t6
 1000864:	a8a9                	j	10008be <__spl_start+0x1d6>
 1000866:	ff033f03          	ld	t5,-16(t1)
 100086a:	4e0d                	li	t3,3
 100086c:	01cf1b63          	bne	t5,t3,1000882 <__spl_start+0x19a>
 1000870:	fe833e03          	ld	t3,-24(t1)
 1000874:	ff833f03          	ld	t5,-8(t1)
 1000878:	9f7e                	add	t5,t5,t6
 100087a:	9e7e                	add	t3,t3,t6
 100087c:	01ee3023          	sd	t5,0(t3)
 1000880:	a83d                	j	10008be <__spl_start+0x1d6>
 1000882:	0000be97          	auipc	t4,0xb
 1000886:	b56ebe83          	ld	t4,-1194(t4) # 100b3d8 <__spl_start+0xacf0>
 100088a:	9efe                	add	t4,t4,t6
 100088c:	ff033f03          	ld	t5,-16(t1)
 1000890:	020f5293          	srli	t0,t5,0x20
 1000894:	0fff7f13          	andi	t5,t5,255
 1000898:	4e09                	li	t3,2
 100089a:	03cf1263          	bne	t5,t3,10008be <__spl_start+0x1d6>
 100089e:	fe833e03          	ld	t3,-24(t1)
 10008a2:	4f61                	li	t5,24
 10008a4:	03e282b3          	mul	t0,t0,t5
 10008a8:	005e8ab3          	add	s5,t4,t0
 10008ac:	ff833283          	ld	t0,-8(t1)
 10008b0:	008abf03          	ld	t5,8(s5)
 10008b4:	9f16                	add	t5,t5,t0
 10008b6:	9f7e                	add	t5,t5,t6
 10008b8:	9e7e                	add	t3,t3,t6
 10008ba:	01ee3023          	sd	t5,0(t3)
 10008be:	0361                	addi	t1,t1,24
 10008c0:	fa63d3e3          	bge	t2,t1,1000866 <__spl_start+0x17e>
 10008c4:	0000b297          	auipc	t0,0xb
 10008c8:	abc2b283          	ld	t0,-1348(t0) # 100b380 <__spl_start+0xac98>
 10008cc:	92fe                	add	t0,t0,t6
 10008ce:	30529073          	csrw	mtvec,t0
 10008d2:	0000b297          	auipc	t0,0xb
 10008d6:	aa62b283          	ld	t0,-1370(t0) # 100b378 <__spl_start+0xac90>
 10008da:	92fe                	add	t0,t0,t6
 10008dc:	0000b317          	auipc	t1,0xb
 10008e0:	a6433303          	ld	t1,-1436(t1) # 100b340 <__spl_start+0xac58>
 10008e4:	937e                	add	t1,t1,t6
 10008e6:	00628763          	beq	t0,t1,10008f4 <__spl_start+0x20c>
 10008ea:	0002b023          	sd	zero,0(t0)
 10008ee:	02a1                	addi	t0,t0,8
 10008f0:	fe62cde3          	blt	t0,t1,10008ea <__spl_start+0x202>
 10008f4:	0000b297          	auipc	t0,0xb
 10008f8:	9bc2b283          	ld	t0,-1604(t0) # 100b2b0 <__spl_start+0xabc8>
 10008fc:	01f28533          	add	a0,t0,t6
 1000900:	8afe                	mv	s5,t6
 1000902:	85ca                	mv	a1,s2
 1000904:	864e                	mv	a2,s3
 1000906:	00000693          	li	a3,0
 100090a:	3ce000ef          	jal	ra,1000cd8 <__spl_start+0x5f0>
 100090e:	c911                	beqz	a0,1000922 <__spl_start+0x23a>
 1000910:	85aa                	mv	a1,a0
 1000912:	0000b517          	auipc	a0,0xb
 1000916:	99653503          	ld	a0,-1642(a0) # 100b2a8 <__spl_start+0xabc0>
 100091a:	773030ef          	jal	ra,100488c <__spl_start+0x41a4>
 100091e:	1b5030ef          	jal	ra,10042d2 <__spl_start+0x3bea>
 1000922:	8fd6                	mv	t6,s5
 1000924:	196000ef          	jal	ra,1000aba <__spl_start+0x3d2>
 1000928:	198000ef          	jal	ra,1000ac0 <__spl_start+0x3d8>
 100092c:	0000b297          	auipc	t0,0xb
 1000930:	a1c2b283          	ld	t0,-1508(t0) # 100b348 <__spl_start+0xac60>
 1000934:	01f28eb3          	add	t4,t0,t6
 1000938:	854e                	mv	a0,s3
 100093a:	85d2                	mv	a1,s4
 100093c:	8e82                	jr	t4
 100093e:	10500073          	wfi
 1000942:	bff5                	j	100093e <__spl_start+0x256>
 1000944:	00e21293          	slli	t0,tp,0xe
 1000948:	40558133          	sub	sp,a1,t0
 100094c:	81b2                	mv	gp,a2
 100094e:	10500073          	wfi
 1000952:	344022f3          	csrr	t0,mip
 1000956:	0082f293          	andi	t0,t0,8
 100095a:	fe028ae3          	beqz	t0,100094e <__spl_start+0x266>
 100095e:	8512                	mv	a0,tp
 1000960:	2ec000ef          	jal	ra,1000c4c <__spl_start+0x564>
 1000964:	b7ed                	j	100094e <__spl_start+0x266>
 1000966:	8082                	ret
 1000968:	7139                	addi	sp,sp,-64
 100096a:	fc06                	sd	ra,56(sp)
 100096c:	f822                	sd	s0,48(sp)
 100096e:	5c7060ef          	jal	ra,1007734 <__spl_start+0x704c>
 1000972:	e14d                	bnez	a0,1000a14 <__spl_start+0x32c>
 1000974:	0020                	addi	s0,sp,8
 1000976:	85a2                	mv	a1,s0
 1000978:	456d                	li	a0,27
 100097a:	255040ef          	jal	ra,10053ce <__spl_start+0x4ce6>
 100097e:	6522                	ld	a0,8(sp)
 1000980:	e939                	bnez	a0,10009d6 <__spl_start+0x2ee>
 1000982:	85a2                	mv	a1,s0
 1000984:	456d                	li	a0,27
 1000986:	249040ef          	jal	ra,10053ce <__spl_start+0x4ce6>
 100098a:	6522                	ld	a0,8(sp)
 100098c:	e53d                	bnez	a0,10009fa <__spl_start+0x312>
 100098e:	3063d073          	csrwi	mcounteren,7
 1000992:	456d                	li	a0,27
 1000994:	85a2                	mv	a1,s0
 1000996:	239040ef          	jal	ra,10053ce <__spl_start+0x4ce6>
 100099a:	6522                	ld	a0,8(sp)
 100099c:	cd19                	beqz	a0,10009ba <__spl_start+0x2d2>
 100099e:	02000613          	li	a2,32
 10009a2:	080c                	addi	a1,sp,16
 10009a4:	629060ef          	jal	ra,10077cc <__spl_start+0x70e4>
 10009a8:	e909                	bnez	a0,10009ba <__spl_start+0x2d2>
 10009aa:	07300593          	li	a1,115
 10009ae:	0848                	addi	a0,sp,20
 10009b0:	1e1030ef          	jal	ra,1004390 <__spl_start+0x3ca8>
 10009b4:	c119                	beqz	a0,10009ba <__spl_start+0x2d2>
 10009b6:	18005073          	csrwi	satp,0
 10009ba:	10e000ef          	jal	ra,1000ac8 <__spl_start+0x3e0>
 10009be:	e939                	bnez	a0,1000a14 <__spl_start+0x32c>
 10009c0:	7442                	ld	s0,48(sp)
 10009c2:	70e2                	ld	ra,56(sp)
 10009c4:	4681                	li	a3,0
 10009c6:	4601                	li	a2,0
 10009c8:	4581                	li	a1,0
 10009ca:	00000517          	auipc	a0,0x0
 10009ce:	f9c50513          	addi	a0,a0,-100 # 1000966 <__spl_start+0x27e>
 10009d2:	6121                	addi	sp,sp,64
 10009d4:	a611                	j	1000cd8 <__spl_start+0x5f0>
 10009d6:	02000613          	li	a2,32
 10009da:	080c                	addi	a1,sp,16
 10009dc:	5f1060ef          	jal	ra,10077cc <__spl_start+0x70e4>
 10009e0:	f14d                	bnez	a0,1000982 <__spl_start+0x29a>
 10009e2:	06400593          	li	a1,100
 10009e6:	0848                	addi	a0,sp,20
 10009e8:	1a9030ef          	jal	ra,1004390 <__spl_start+0x3ca8>
 10009ec:	d959                	beqz	a0,1000982 <__spl_start+0x29a>
 10009ee:	6799                	lui	a5,0x6
 10009f0:	3007a073          	csrs	mstatus,a5
 10009f4:	00305073          	csrwi	fcsr,0
 10009f8:	bf59                	j	100098e <__spl_start+0x2a6>
 10009fa:	02000613          	li	a2,32
 10009fe:	080c                	addi	a1,sp,16
 1000a00:	5cd060ef          	jal	ra,10077cc <__spl_start+0x70e4>
 1000a04:	f549                	bnez	a0,100098e <__spl_start+0x2a6>
 1000a06:	06600593          	li	a1,102
 1000a0a:	0848                	addi	a0,sp,20
 1000a0c:	185030ef          	jal	ra,1004390 <__spl_start+0x3ca8>
 1000a10:	fd79                	bnez	a0,10009ee <__spl_start+0x306>
 1000a12:	bfb5                	j	100098e <__spl_start+0x2a6>
 1000a14:	70e2                	ld	ra,56(sp)
 1000a16:	7442                	ld	s0,48(sp)
 1000a18:	6121                	addi	sp,sp,64
 1000a1a:	8082                	ret
 1000a1c:	8082                	ret
 1000a1e:	0000                	unimp
 1000a20:	7111                	addi	sp,sp,-256
 1000a22:	e406                	sd	ra,8(sp)
 1000a24:	e80a                	sd	sp,16(sp)
 1000a26:	ec0e                	sd	gp,24(sp)
 1000a28:	f012                	sd	tp,32(sp)
 1000a2a:	f416                	sd	t0,40(sp)
 1000a2c:	f81a                	sd	t1,48(sp)
 1000a2e:	fc1e                	sd	t2,56(sp)
 1000a30:	e0a2                	sd	s0,64(sp)
 1000a32:	e4a6                	sd	s1,72(sp)
 1000a34:	e8aa                	sd	a0,80(sp)
 1000a36:	ecae                	sd	a1,88(sp)
 1000a38:	f0b2                	sd	a2,96(sp)
 1000a3a:	f4b6                	sd	a3,104(sp)
 1000a3c:	f8ba                	sd	a4,112(sp)
 1000a3e:	fcbe                	sd	a5,120(sp)
 1000a40:	e142                	sd	a6,128(sp)
 1000a42:	e546                	sd	a7,136(sp)
 1000a44:	e94a                	sd	s2,144(sp)
 1000a46:	ed4e                	sd	s3,152(sp)
 1000a48:	f152                	sd	s4,160(sp)
 1000a4a:	f556                	sd	s5,168(sp)
 1000a4c:	f95a                	sd	s6,176(sp)
 1000a4e:	fd5e                	sd	s7,184(sp)
 1000a50:	e1e2                	sd	s8,192(sp)
 1000a52:	e5e6                	sd	s9,200(sp)
 1000a54:	e9ea                	sd	s10,208(sp)
 1000a56:	edee                	sd	s11,216(sp)
 1000a58:	f1f2                	sd	t3,224(sp)
 1000a5a:	f5f6                	sd	t4,232(sp)
 1000a5c:	f9fa                	sd	t5,240(sp)
 1000a5e:	fdfe                	sd	t6,248(sp)
 1000a60:	34202573          	csrr	a0,mcause
 1000a64:	341025f3          	csrr	a1,mepc
 1000a68:	34302673          	csrr	a2,mtval
 1000a6c:	868a                	mv	a3,sp
 1000a6e:	15c000ef          	jal	ra,1000bca <__spl_start+0x4e2>
 1000a72:	34151073          	csrw	mepc,a0
 1000a76:	60a2                	ld	ra,8(sp)
 1000a78:	61e2                	ld	gp,24(sp)
 1000a7a:	7202                	ld	tp,32(sp)
 1000a7c:	72a2                	ld	t0,40(sp)
 1000a7e:	7342                	ld	t1,48(sp)
 1000a80:	73e2                	ld	t2,56(sp)
 1000a82:	6406                	ld	s0,64(sp)
 1000a84:	64a6                	ld	s1,72(sp)
 1000a86:	6546                	ld	a0,80(sp)
 1000a88:	65e6                	ld	a1,88(sp)
 1000a8a:	7606                	ld	a2,96(sp)
 1000a8c:	76a6                	ld	a3,104(sp)
 1000a8e:	7746                	ld	a4,112(sp)
 1000a90:	77e6                	ld	a5,120(sp)
 1000a92:	680a                	ld	a6,128(sp)
 1000a94:	68aa                	ld	a7,136(sp)
 1000a96:	694a                	ld	s2,144(sp)
 1000a98:	69ea                	ld	s3,152(sp)
 1000a9a:	7a0a                	ld	s4,160(sp)
 1000a9c:	7aaa                	ld	s5,168(sp)
 1000a9e:	7b4a                	ld	s6,176(sp)
 1000aa0:	7bea                	ld	s7,184(sp)
 1000aa2:	6c0e                	ld	s8,192(sp)
 1000aa4:	6cae                	ld	s9,200(sp)
 1000aa6:	6d4e                	ld	s10,208(sp)
 1000aa8:	6dee                	ld	s11,216(sp)
 1000aaa:	7e0e                	ld	t3,224(sp)
 1000aac:	7eae                	ld	t4,232(sp)
 1000aae:	7f4e                	ld	t5,240(sp)
 1000ab0:	7fee                	ld	t6,248(sp)
 1000ab2:	6142                	ld	sp,16(sp)
 1000ab4:	6111                	addi	sp,sp,256
 1000ab6:	30200073          	mret
 1000aba:	0000100f          	fence.i
 1000abe:	8082                	ret
 1000ac0:	8082                	ret
 1000ac2:	8082                	ret
 1000ac4:	8082                	ret
 1000ac6:	8082                	ret
 1000ac8:	7179                	addi	sp,sp,-48
 1000aca:	0030                	addi	a2,sp,8
 1000acc:	0000b597          	auipc	a1,0xb
 1000ad0:	81c5b583          	ld	a1,-2020(a1) # 100b2e8 <__spl_start+0xac00>
 1000ad4:	06300513          	li	a0,99
 1000ad8:	f022                	sd	s0,32(sp)
 1000ada:	f406                	sd	ra,40(sp)
 1000adc:	ec26                	sd	s1,24(sp)
 1000ade:	285040ef          	jal	ra,1005562 <__spl_start+0x4e7a>
 1000ae2:	842a                	mv	s0,a0
 1000ae4:	e919                	bnez	a0,1000afa <__spl_start+0x412>
 1000ae6:	6522                	ld	a0,8(sp)
 1000ae8:	848e                	mv	s1,gp
 1000aea:	32a040ef          	jal	ra,1004e14 <__spl_start+0x472c>
 1000aee:	14a4b823          	sd	a0,336(s1)
 1000af2:	1501b783          	ld	a5,336(gp)
 1000af6:	e391                	bnez	a5,1000afa <__spl_start+0x412>
 1000af8:	5429                	li	s0,-22
 1000afa:	70a2                	ld	ra,40(sp)
 1000afc:	8522                	mv	a0,s0
 1000afe:	7402                	ld	s0,32(sp)
 1000b00:	64e2                	ld	s1,24(sp)
 1000b02:	6145                	addi	sp,sp,48
 1000b04:	8082                	ret
 1000b06:	1501b783          	ld	a5,336(gp)
 1000b0a:	0025151b          	slliw	a0,a0,0x2
 1000b0e:	97aa                	add	a5,a5,a0
 1000b10:	0550000f          	fence	ow,ow
 1000b14:	4705                	li	a4,1
 1000b16:	c398                	sw	a4,0(a5)
 1000b18:	4501                	li	a0,0
 1000b1a:	8082                	ret
 1000b1c:	1501b783          	ld	a5,336(gp)
 1000b20:	0025151b          	slliw	a0,a0,0x2
 1000b24:	97aa                	add	a5,a5,a0
 1000b26:	0550000f          	fence	ow,ow
 1000b2a:	4501                	li	a0,0
 1000b2c:	0007a023          	sw	zero,0(a5) # 6000 <_start-0xffa000>
 1000b30:	8082                	ret
 1000b32:	1501b783          	ld	a5,336(gp)
 1000b36:	0025151b          	slliw	a0,a0,0x2
 1000b3a:	97aa                	add	a5,a5,a0
 1000b3c:	439c                	lw	a5,0(a5)
 1000b3e:	0aa0000f          	fence	ir,ir
 1000b42:	4501                	li	a0,0
 1000b44:	c19c                	sw	a5,0(a1)
 1000b46:	8082                	ret
 1000b48:	1101                	addi	sp,sp,-32
 1000b4a:	e822                	sd	s0,16(sp)
 1000b4c:	e426                	sd	s1,8(sp)
 1000b4e:	e04a                	sd	s2,0(sp)
 1000b50:	ec06                	sd	ra,24(sp)
 1000b52:	47bd                	li	a5,15
 1000b54:	842e                	mv	s0,a1
 1000b56:	8932                	mv	s2,a2
 1000b58:	84b6                	mv	s1,a3
 1000b5a:	06a7e063          	bltu	a5,a0,1000bba <__spl_start+0x4d2>
 1000b5e:	050e                	slli	a0,a0,0x3
 1000b60:	0000a797          	auipc	a5,0xa
 1000b64:	9e878793          	addi	a5,a5,-1560 # 100a548 <__spl_start+0x9e60>
 1000b68:	97aa                	add	a5,a5,a0
 1000b6a:	638c                	ld	a1,0(a5)
 1000b6c:	00007517          	auipc	a0,0x7
 1000b70:	00450513          	addi	a0,a0,4 # 1007b70 <__spl_start+0x7488>
 1000b74:	519030ef          	jal	ra,100488c <__spl_start+0x41a4>
 1000b78:	6490                	ld	a2,8(s1)
 1000b7a:	86ca                	mv	a3,s2
 1000b7c:	85a2                	mv	a1,s0
 1000b7e:	00007517          	auipc	a0,0x7
 1000b82:	03250513          	addi	a0,a0,50 # 1007bb0 <__spl_start+0x74c8>
 1000b86:	507030ef          	jal	ra,100488c <__spl_start+0x41a4>
 1000b8a:	02018263          	beqz	gp,1000bae <__spl_start+0x4c6>
 1000b8e:	0081b703          	ld	a4,8(gp)
 1000b92:	8b05                	andi	a4,a4,1
 1000b94:	cf09                	beqz	a4,1000bae <__spl_start+0x4c6>
 1000b96:	0981b583          	ld	a1,152(gp)
 1000b9a:	6490                	ld	a2,8(s1)
 1000b9c:	00007517          	auipc	a0,0x7
 1000ba0:	03c50513          	addi	a0,a0,60 # 1007bd8 <__spl_start+0x74f0>
 1000ba4:	8e0d                	sub	a2,a2,a1
 1000ba6:	40b405b3          	sub	a1,s0,a1
 1000baa:	4e3030ef          	jal	ra,100488c <__spl_start+0x41a4>
 1000bae:	00007517          	auipc	a0,0x7
 1000bb2:	4aa50513          	addi	a0,a0,1194 # 1008058 <__spl_start+0x7970>
 1000bb6:	1b5030ef          	jal	ra,100456a <__spl_start+0x3e82>
 1000bba:	85aa                	mv	a1,a0
 1000bbc:	00007517          	auipc	a0,0x7
 1000bc0:	fd450513          	addi	a0,a0,-44 # 1007b90 <__spl_start+0x74a8>
 1000bc4:	bf45                	j	1000b74 <__spl_start+0x48c>
 1000bc6:	8082                	ret
 1000bc8:	8082                	ret
 1000bca:	1141                	addi	sp,sp,-16
 1000bcc:	e406                	sd	ra,8(sp)
 1000bce:	e022                	sd	s0,0(sp)
 1000bd0:	04055c63          	bgez	a0,1000c28 <__spl_start+0x540>
 1000bd4:	00151713          	slli	a4,a0,0x1
 1000bd8:	88b6                	mv	a7,a3
 1000bda:	8305                	srli	a4,a4,0x1
 1000bdc:	46a5                	li	a3,9
 1000bde:	842e                	mv	s0,a1
 1000be0:	02d70563          	beq	a4,a3,1000c0a <__spl_start+0x522>
 1000be4:	87aa                	mv	a5,a0
 1000be6:	8832                	mv	a6,a2
 1000be8:	00e6ee63          	bltu	a3,a4,1000c04 <__spl_start+0x51c>
 1000bec:	576d                	li	a4,-5
 1000bee:	8305                	srli	a4,a4,0x1
 1000bf0:	8f69                	and	a4,a4,a0
 1000bf2:	4695                	li	a3,5
 1000bf4:	02d71663          	bne	a4,a3,1000c20 <__spl_start+0x538>
 1000bf8:	4501                	li	a0,0
 1000bfa:	0000a317          	auipc	t1,0xa
 1000bfe:	7ae33303          	ld	t1,1966(t1) # 100b3a8 <__spl_start+0xacc0>
 1000c02:	a809                	j	1000c14 <__spl_start+0x52c>
 1000c04:	46ad                	li	a3,11
 1000c06:	00d71d63          	bne	a4,a3,1000c20 <__spl_start+0x538>
 1000c0a:	4501                	li	a0,0
 1000c0c:	0000a317          	auipc	t1,0xa
 1000c10:	6ec33303          	ld	t1,1772(t1) # 100b2f8 <__spl_start+0xac10>
 1000c14:	9302                	jalr	t1
 1000c16:	60a2                	ld	ra,8(sp)
 1000c18:	8522                	mv	a0,s0
 1000c1a:	6402                	ld	s0,0(sp)
 1000c1c:	0141                	addi	sp,sp,16
 1000c1e:	8082                	ret
 1000c20:	86c6                	mv	a3,a7
 1000c22:	8642                	mv	a2,a6
 1000c24:	85a2                	mv	a1,s0
 1000c26:	853e                	mv	a0,a5
 1000c28:	f21ff0ef          	jal	ra,1000b48 <__spl_start+0x460>
 1000c2c:	1141                	addi	sp,sp,-16
 1000c2e:	00007517          	auipc	a0,0x7
 1000c32:	14250513          	addi	a0,a0,322 # 1007d70 <__spl_start+0x7688>
 1000c36:	e406                	sd	ra,8(sp)
 1000c38:	455030ef          	jal	ra,100488c <__spl_start+0x41a4>
 1000c3c:	00007517          	auipc	a0,0x7
 1000c40:	14450513          	addi	a0,a0,324 # 1007d80 <__spl_start+0x7698>
 1000c44:	449030ef          	jal	ra,100488c <__spl_start+0x41a4>
 1000c48:	68a030ef          	jal	ra,10042d2 <__spl_start+0x3bea>
 1000c4c:	479d                	li	a5,7
 1000c4e:	08a7e463          	bltu	a5,a0,1000cd6 <__spl_start+0x5ee>
 1000c52:	7179                	addi	sp,sp,-48
 1000c54:	ec26                	sd	s1,24(sp)
 1000c56:	00b50493          	addi	s1,a0,11
 1000c5a:	0496                	slli	s1,s1,0x5
 1000c5c:	f022                	sd	s0,32(sp)
 1000c5e:	f406                	sd	ra,40(sp)
 1000c60:	e84a                	sd	s2,16(sp)
 1000c62:	e44e                	sd	s3,8(sp)
 1000c64:	009187b3          	add	a5,gp,s1
 1000c68:	4b9c                	lw	a5,16(a5)
 1000c6a:	842a                	mv	s0,a0
 1000c6c:	2781                	sext.w	a5,a5
 1000c6e:	0230000f          	fence	r,rw
 1000c72:	cbb9                	beqz	a5,1000cc8 <__spl_start+0x5e0>
 1000c74:	00551913          	slli	s2,a0,0x5
 1000c78:	003907b3          	add	a5,s2,gp
 1000c7c:	1587b983          	ld	s3,344(a5)
 1000c80:	e3bff0ef          	jal	ra,1000aba <__spl_start+0x3d2>
 1000c84:	0004051b          	sext.w	a0,s0
 1000c88:	e95ff0ef          	jal	ra,1000b1c <__spl_start+0x434>
 1000c8c:	862a                	mv	a2,a0
 1000c8e:	cd11                	beqz	a0,1000caa <__spl_start+0x5c2>
 1000c90:	85a2                	mv	a1,s0
 1000c92:	7402                	ld	s0,32(sp)
 1000c94:	70a2                	ld	ra,40(sp)
 1000c96:	64e2                	ld	s1,24(sp)
 1000c98:	6942                	ld	s2,16(sp)
 1000c9a:	69a2                	ld	s3,8(sp)
 1000c9c:	00007517          	auipc	a0,0x7
 1000ca0:	36450513          	addi	a0,a0,868 # 1008000 <__spl_start+0x7918>
 1000ca4:	6145                	addi	sp,sp,48
 1000ca6:	3e70306f          	j	100488c <__spl_start+0x41a4>
 1000caa:	012187b3          	add	a5,gp,s2
 1000cae:	948e                	add	s1,s1,gp
 1000cb0:	8522                	mv	a0,s0
 1000cb2:	7402                	ld	s0,32(sp)
 1000cb4:	6490                	ld	a2,8(s1)
 1000cb6:	1607b583          	ld	a1,352(a5)
 1000cba:	70a2                	ld	ra,40(sp)
 1000cbc:	64e2                	ld	s1,24(sp)
 1000cbe:	6942                	ld	s2,16(sp)
 1000cc0:	87ce                	mv	a5,s3
 1000cc2:	69a2                	ld	s3,8(sp)
 1000cc4:	6145                	addi	sp,sp,48
 1000cc6:	8782                	jr	a5
 1000cc8:	70a2                	ld	ra,40(sp)
 1000cca:	7402                	ld	s0,32(sp)
 1000ccc:	64e2                	ld	s1,24(sp)
 1000cce:	6942                	ld	s2,16(sp)
 1000cd0:	69a2                	ld	s3,8(sp)
 1000cd2:	6145                	addi	sp,sp,48
 1000cd4:	8082                	ret
 1000cd6:	8082                	ret
 1000cd8:	7175                	addi	sp,sp,-144
 1000cda:	fca6                	sd	s1,120(sp)
 1000cdc:	84aa                	mv	s1,a0
 1000cde:	00007517          	auipc	a0,0x7
 1000ce2:	49a50513          	addi	a0,a0,1178 # 1008178 <__spl_start+0x7a90>
 1000ce6:	f8ca                	sd	s2,112(sp)
 1000ce8:	f4ce                	sd	s3,104(sp)
 1000cea:	f0d2                	sd	s4,96(sp)
 1000cec:	e506                	sd	ra,136(sp)
 1000cee:	e122                	sd	s0,128(sp)
 1000cf0:	ecd6                	sd	s5,88(sp)
 1000cf2:	e8da                	sd	s6,80(sp)
 1000cf4:	e4de                	sd	s7,72(sp)
 1000cf6:	e0e2                	sd	s8,64(sp)
 1000cf8:	fc66                	sd	s9,56(sp)
 1000cfa:	f86a                	sd	s10,48(sp)
 1000cfc:	f46e                	sd	s11,40(sp)
 1000cfe:	892e                	mv	s2,a1
 1000d00:	89b2                	mv	s3,a2
 1000d02:	8a36                	mv	s4,a3
 1000d04:	3eb040ef          	jal	ra,10058ee <__spl_start+0x5206>
 1000d08:	02055963          	bgez	a0,1000d3a <__spl_start+0x652>
 1000d0c:	00007517          	auipc	a0,0x7
 1000d10:	47450513          	addi	a0,a0,1140 # 1008180 <__spl_start+0x7a98>
 1000d14:	379030ef          	jal	ra,100488c <__spl_start+0x41a4>
 1000d18:	57a9                	li	a5,-22
 1000d1a:	60aa                	ld	ra,136(sp)
 1000d1c:	640a                	ld	s0,128(sp)
 1000d1e:	74e6                	ld	s1,120(sp)
 1000d20:	7946                	ld	s2,112(sp)
 1000d22:	79a6                	ld	s3,104(sp)
 1000d24:	7a06                	ld	s4,96(sp)
 1000d26:	6ae6                	ld	s5,88(sp)
 1000d28:	6b46                	ld	s6,80(sp)
 1000d2a:	6ba6                	ld	s7,72(sp)
 1000d2c:	6c06                	ld	s8,64(sp)
 1000d2e:	7ce2                	ld	s9,56(sp)
 1000d30:	7d42                	ld	s10,48(sp)
 1000d32:	7da2                	ld	s11,40(sp)
 1000d34:	853e                	mv	a0,a5
 1000d36:	6149                	addi	sp,sp,144
 1000d38:	8082                	ret
 1000d3a:	0005059b          	sext.w	a1,a0
 1000d3e:	0d81b503          	ld	a0,216(gp)
 1000d42:	356020ef          	jal	ra,1003098 <__spl_start+0x29b0>
 1000d46:	0005041b          	sext.w	s0,a0
 1000d4a:	00055363          	bgez	a0,1000d50 <__spl_start+0x668>
 1000d4e:	547d                	li	s0,-1
 1000d50:	01810b13          	addi	s6,sp,24
 1000d54:	00007b97          	auipc	s7,0x7
 1000d58:	444b8b93          	addi	s7,s7,1092 # 1008198 <__spl_start+0x7ab0>
 1000d5c:	4c1d                	li	s8,7
 1000d5e:	4c85                	li	s9,1
 1000d60:	4a85                	li	s5,1
 1000d62:	01c10d13          	addi	s10,sp,28
 1000d66:	00007d97          	auipc	s11,0x7
 1000d6a:	43ad8d93          	addi	s11,s11,1082 # 10081a0 <__spl_start+0x7ab8>
 1000d6e:	57fd                	li	a5,-1
 1000d70:	00f41463          	bne	s0,a5,1000d78 <__spl_start+0x690>
 1000d74:	4781                	li	a5,0
 1000d76:	b755                	j	1000d1a <__spl_start+0x632>
 1000d78:	8522                	mv	a0,s0
 1000d7a:	3f5040ef          	jal	ra,100596e <__spl_start+0x5286>
 1000d7e:	c505                	beqz	a0,1000da6 <__spl_start+0x6be>
 1000d80:	865a                	mv	a2,s6
 1000d82:	85de                	mv	a1,s7
 1000d84:	8522                	mv	a0,s0
 1000d86:	2cd040ef          	jal	ra,1005852 <__spl_start+0x516a>
 1000d8a:	ed11                	bnez	a0,1000da6 <__spl_start+0x6be>
 1000d8c:	45e2                	lw	a1,24(sp)
 1000d8e:	1401b683          	ld	a3,320(gp)
 1000d92:	02059793          	slli	a5,a1,0x20
 1000d96:	9381                	srli	a5,a5,0x20
 1000d98:	00d78763          	beq	a5,a3,1000da6 <__spl_start+0x6be>
 1000d9c:	02bc7063          	bgeu	s8,a1,1000dbc <__spl_start+0x6d4>
 1000da0:	856e                	mv	a0,s11
 1000da2:	2eb030ef          	jal	ra,100488c <__spl_start+0x41a4>
 1000da6:	0d81b503          	ld	a0,216(gp)
 1000daa:	85a2                	mv	a1,s0
 1000dac:	30c020ef          	jal	ra,10030b8 <__spl_start+0x29d0>
 1000db0:	0005041b          	sext.w	s0,a0
 1000db4:	fa055de3          	bgez	a0,1000d6e <__spl_start+0x686>
 1000db8:	547d                	li	s0,-1
 1000dba:	bf55                	j	1000d6e <__spl_start+0x686>
 1000dbc:	2581b683          	ld	a3,600(gp)
 1000dc0:	00bc95bb          	sllw	a1,s9,a1
 1000dc4:	8df5                	and	a1,a1,a3
 1000dc6:	d1e5                	beqz	a1,1000da6 <__spl_start+0x6be>
 1000dc8:	00579693          	slli	a3,a5,0x5
 1000dcc:	07ad                	addi	a5,a5,11
 1000dce:	968e                	add	a3,a3,gp
 1000dd0:	0796                	slli	a5,a5,0x5
 1000dd2:	1496bc23          	sd	s1,344(a3)
 1000dd6:	1726b023          	sd	s2,352(a3)
 1000dda:	00f18733          	add	a4,gp,a5
 1000dde:	01373423          	sd	s3,8(a4)
 1000de2:	0310000f          	fence	rw,w
 1000de6:	4562                	lw	a0,24(sp)
 1000de8:	02051713          	slli	a4,a0,0x20
 1000dec:	01b75793          	srli	a5,a4,0x1b
 1000df0:	16078793          	addi	a5,a5,352
 1000df4:	978e                	add	a5,a5,gp
 1000df6:	0157a823          	sw	s5,16(a5)
 1000dfa:	d0dff0ef          	jal	ra,1000b06 <__spl_start+0x41e>
 1000dfe:	c919                	beqz	a0,1000e14 <__spl_start+0x72c>
 1000e00:	45e2                	lw	a1,24(sp)
 1000e02:	e42a                	sd	a0,8(sp)
 1000e04:	00007517          	auipc	a0,0x7
 1000e08:	3d450513          	addi	a0,a0,980 # 10081d8 <__spl_start+0x7af0>
 1000e0c:	281030ef          	jal	ra,100488c <__spl_start+0x41a4>
 1000e10:	67a2                	ld	a5,8(sp)
 1000e12:	b721                	j	1000d1a <__spl_start+0x632>
 1000e14:	f80a09e3          	beqz	s4,1000da6 <__spl_start+0x6be>
 1000e18:	ce56                	sw	s5,28(sp)
 1000e1a:	4562                	lw	a0,24(sp)
 1000e1c:	85ea                	mv	a1,s10
 1000e1e:	d15ff0ef          	jal	ra,1000b32 <__spl_start+0x44a>
 1000e22:	87aa                	mv	a5,a0
 1000e24:	ee051be3          	bnez	a0,1000d1a <__spl_start+0x632>
 1000e28:	47f2                	lw	a5,28(sp)
 1000e2a:	fbe5                	bnez	a5,1000e1a <__spl_start+0x732>
 1000e2c:	bfad                	j	1000da6 <__spl_start+0x6be>
 1000e2e:	1141                	addi	sp,sp,-16
 1000e30:	e406                	sd	ra,8(sp)
 1000e32:	404000ef          	jal	ra,1001236 <__spl_start+0xb4e>
 1000e36:	c901                	beqz	a0,1000e46 <__spl_start+0x75e>
 1000e38:	85aa                	mv	a1,a0
 1000e3a:	00007517          	auipc	a0,0x7
 1000e3e:	e0650513          	addi	a0,a0,-506 # 1007c40 <__spl_start+0x7558>
 1000e42:	728030ef          	jal	ra,100456a <__spl_start+0x3e82>
 1000e46:	b23ff0ef          	jal	ra,1000968 <__spl_start+0x280>
 1000e4a:	5aa000ef          	jal	ra,10013f4 <__spl_start+0xd0c>
 1000e4e:	0000a317          	auipc	t1,0xa
 1000e52:	4a233303          	ld	t1,1186(t1) # 100b2f0 <__spl_start+0xac08>
 1000e56:	9302                	jalr	t1
 1000e58:	85aa                	mv	a1,a0
 1000e5a:	c511                	beqz	a0,1000e66 <__spl_start+0x77e>
 1000e5c:	00007517          	auipc	a0,0x7
 1000e60:	e0450513          	addi	a0,a0,-508 # 1007c60 <__spl_start+0x7578>
 1000e64:	bff9                	j	1000e42 <__spl_start+0x75a>
 1000e66:	60a2                	ld	ra,8(sp)
 1000e68:	0141                	addi	sp,sp,16
 1000e6a:	8082                	ret
 1000e6c:	1101                	addi	sp,sp,-32
 1000e6e:	e822                	sd	s0,16(sp)
 1000e70:	ec06                	sd	ra,24(sp)
 1000e72:	e426                	sd	s1,8(sp)
 1000e74:	e04a                	sd	s2,0(sp)
 1000e76:	7104                	ld	s1,32(a0)
 1000e78:	01853903          	ld	s2,24(a0)
 1000e7c:	842a                	mv	s0,a0
 1000e7e:	c3dff0ef          	jal	ra,1000aba <__spl_start+0x3d2>
 1000e82:	6c08                	ld	a0,24(s0)
 1000e84:	4681                	li	a3,0
 1000e86:	4601                	li	a2,0
 1000e88:	85a6                	mv	a1,s1
 1000e8a:	e4fff0ef          	jal	ra,1000cd8 <__spl_start+0x5f0>
 1000e8e:	c119                	beqz	a0,1000e94 <__spl_start+0x7ac>
 1000e90:	442030ef          	jal	ra,10042d2 <__spl_start+0x3bea>
 1000e94:	1401b503          	ld	a0,320(gp)
 1000e98:	85a6                	mv	a1,s1
 1000e9a:	9902                	jalr	s2
	...
 1000ea8:	82aa                	mv	t0,a0
 1000eaa:	01063693          	sltiu	a3,a2,16
 1000eae:	e2f5                	bnez	a3,1000f92 <__spl_start+0x8aa>
 1000eb0:	00728693          	addi	a3,t0,7
 1000eb4:	9ae1                	andi	a3,a3,-8
 1000eb6:	00568a63          	beq	a3,t0,1000eca <__spl_start+0x7e2>
 1000eba:	40568733          	sub	a4,a3,t0
 1000ebe:	00b28023          	sb	a1,0(t0)
 1000ec2:	0285                	addi	t0,t0,1
 1000ec4:	fed2ede3          	bltu	t0,a3,1000ebe <__spl_start+0x7d6>
 1000ec8:	8e19                	sub	a2,a2,a4
 1000eca:	0ff5f593          	andi	a1,a1,255
 1000ece:	00859693          	slli	a3,a1,0x8
 1000ed2:	8dd5                	or	a1,a1,a3
 1000ed4:	01059693          	slli	a3,a1,0x10
 1000ed8:	8dd5                	or	a1,a1,a3
 1000eda:	02059693          	slli	a3,a1,0x20
 1000ede:	8dd5                	or	a1,a1,a3
 1000ee0:	ff867713          	andi	a4,a2,-8
 1000ee4:	00e286b3          	add	a3,t0,a4
 1000ee8:	0f877713          	andi	a4,a4,248
 1000eec:	cf11                	beqz	a4,1000f08 <__spl_start+0x820>
 1000eee:	40e00733          	neg	a4,a4
 1000ef2:	10070713          	addi	a4,a4,256
 1000ef6:	40e282b3          	sub	t0,t0,a4
 1000efa:	0000a797          	auipc	a5,0xa
 1000efe:	3be7b783          	ld	a5,958(a5) # 100b2b8 <__spl_start+0xabd0>
 1000f02:	8305                	srli	a4,a4,0x1
 1000f04:	97ba                	add	a5,a5,a4
 1000f06:	8782                	jr	a5
 1000f08:	00b2b023          	sd	a1,0(t0)
 1000f0c:	00b2b423          	sd	a1,8(t0)
 1000f10:	00b2b823          	sd	a1,16(t0)
 1000f14:	00b2bc23          	sd	a1,24(t0)
 1000f18:	02b2b023          	sd	a1,32(t0)
 1000f1c:	02b2b423          	sd	a1,40(t0)
 1000f20:	02b2b823          	sd	a1,48(t0)
 1000f24:	02b2bc23          	sd	a1,56(t0)
 1000f28:	04b2b023          	sd	a1,64(t0)
 1000f2c:	04b2b423          	sd	a1,72(t0)
 1000f30:	04b2b823          	sd	a1,80(t0)
 1000f34:	04b2bc23          	sd	a1,88(t0)
 1000f38:	06b2b023          	sd	a1,96(t0)
 1000f3c:	06b2b423          	sd	a1,104(t0)
 1000f40:	06b2b823          	sd	a1,112(t0)
 1000f44:	06b2bc23          	sd	a1,120(t0)
 1000f48:	08b2b023          	sd	a1,128(t0)
 1000f4c:	08b2b423          	sd	a1,136(t0)
 1000f50:	08b2b823          	sd	a1,144(t0)
 1000f54:	08b2bc23          	sd	a1,152(t0)
 1000f58:	0ab2b023          	sd	a1,160(t0)
 1000f5c:	0ab2b423          	sd	a1,168(t0)
 1000f60:	0ab2b823          	sd	a1,176(t0)
 1000f64:	0ab2bc23          	sd	a1,184(t0)
 1000f68:	0cb2b023          	sd	a1,192(t0)
 1000f6c:	0cb2b423          	sd	a1,200(t0)
 1000f70:	0cb2b823          	sd	a1,208(t0)
 1000f74:	0cb2bc23          	sd	a1,216(t0)
 1000f78:	0eb2b023          	sd	a1,224(t0)
 1000f7c:	0eb2b423          	sd	a1,232(t0)
 1000f80:	0eb2b823          	sd	a1,240(t0)
 1000f84:	0eb2bc23          	sd	a1,248(t0)
 1000f88:	10028293          	addi	t0,t0,256
 1000f8c:	f6d2eee3          	bltu	t0,a3,1000f08 <__spl_start+0x820>
 1000f90:	8a1d                	andi	a2,a2,7
 1000f92:	ca01                	beqz	a2,1000fa2 <__spl_start+0x8ba>
 1000f94:	00c286b3          	add	a3,t0,a2
 1000f98:	00b28023          	sb	a1,0(t0)
 1000f9c:	0285                	addi	t0,t0,1
 1000f9e:	fed2ede3          	bltu	t0,a3,1000f98 <__spl_start+0x8b0>
 1000fa2:	8082                	ret
	...
 1000fb8:	40b502b3          	sub	t0,a0,a1
 1000fbc:	00c2e363          	bltu	t0,a2,1000fc2 <__spl_start+0x8da>
 1000fc0:	a061                	j	1001048 <__spl_start+0x960>
 1000fc2:	82aa                	mv	t0,a0
 1000fc4:	9532                	add	a0,a0,a2
 1000fc6:	95b2                	add	a1,a1,a2
 1000fc8:	46c1                	li	a3,16
 1000fca:	02d66b63          	bltu	a2,a3,1001000 <__spl_start+0x918>
 1000fce:	ff857613          	andi	a2,a0,-8
 1000fd2:	00c50a63          	beq	a0,a2,1000fe6 <__spl_start+0x8fe>
 1000fd6:	15fd                	addi	a1,a1,-1
 1000fd8:	00058783          	lb	a5,0(a1)
 1000fdc:	157d                	addi	a0,a0,-1
 1000fde:	00f50023          	sb	a5,0(a0)
 1000fe2:	fec51ae3          	bne	a0,a2,1000fd6 <__spl_start+0x8ee>
 1000fe6:	0075f693          	andi	a3,a1,7
 1000fea:	e69d                	bnez	a3,1001018 <__spl_start+0x930>
 1000fec:	029d                	addi	t0,t0,7
 1000fee:	00a2f863          	bgeu	t0,a0,1000ffe <__spl_start+0x916>
 1000ff2:	15e1                	addi	a1,a1,-8
 1000ff4:	619c                	ld	a5,0(a1)
 1000ff6:	1561                	addi	a0,a0,-8
 1000ff8:	e11c                	sd	a5,0(a0)
 1000ffa:	fea2ece3          	bltu	t0,a0,1000ff2 <__spl_start+0x90a>
 1000ffe:	12e5                	addi	t0,t0,-7
 1001000:	00550a63          	beq	a0,t0,1001014 <__spl_start+0x92c>
 1001004:	15fd                	addi	a1,a1,-1
 1001006:	00058783          	lb	a5,0(a1)
 100100a:	157d                	addi	a0,a0,-1
 100100c:	00f50023          	sb	a5,0(a0)
 1001010:	fe551ae3          	bne	a0,t0,1001004 <__spl_start+0x91c>
 1001014:	8516                	mv	a0,t0
 1001016:	8082                	ret
 1001018:	00369e13          	slli	t3,a3,0x3
 100101c:	41c00eb3          	neg	t4,t3
 1001020:	99e1                	andi	a1,a1,-8
 1001022:	619c                	ld	a5,0(a1)
 1001024:	029d                	addi	t0,t0,7
 1001026:	01d79733          	sll	a4,a5,t4
 100102a:	15e1                	addi	a1,a1,-8
 100102c:	619c                	ld	a5,0(a1)
 100102e:	01c7d633          	srl	a2,a5,t3
 1001032:	8e59                	or	a2,a2,a4
 1001034:	1561                	addi	a0,a0,-8
 1001036:	e110                	sd	a2,0(a0)
 1001038:	fea2e7e3          	bltu	t0,a0,1001026 <__spl_start+0x93e>
 100103c:	12e5                	addi	t0,t0,-7
 100103e:	95b6                	add	a1,a1,a3
 1001040:	b7c1                	j	1001000 <__spl_start+0x918>
 1001042:	0000                	unimp
 1001044:	0000                	unimp
 1001046:	0000                	unimp
 1001048:	8faa                	mv	t6,a0
 100104a:	00c502b3          	add	t0,a0,a2
 100104e:	46c1                	li	a3,16
 1001050:	0ad66763          	bltu	a2,a3,10010fe <__spl_start+0xa16>
 1001054:	00750613          	addi	a2,a0,7
 1001058:	9a61                	andi	a2,a2,-8
 100105a:	00c50a63          	beq	a0,a2,100106e <__spl_start+0x986>
 100105e:	00058783          	lb	a5,0(a1)
 1001062:	0585                	addi	a1,a1,1
 1001064:	00f50023          	sb	a5,0(a0)
 1001068:	0505                	addi	a0,a0,1
 100106a:	fec51ae3          	bne	a0,a2,100105e <__spl_start+0x976>
 100106e:	0075f693          	andi	a3,a1,7
 1001072:	e2d5                	bnez	a3,1001116 <__spl_start+0xa2e>
 1001074:	f8128293          	addi	t0,t0,-127
 1001078:	06557863          	bgeu	a0,t0,10010e8 <__spl_start+0xa00>
 100107c:	6190                	ld	a2,0(a1)
 100107e:	6594                	ld	a3,8(a1)
 1001080:	6998                	ld	a4,16(a1)
 1001082:	6d9c                	ld	a5,24(a1)
 1001084:	0205b803          	ld	a6,32(a1)
 1001088:	0285b883          	ld	a7,40(a1)
 100108c:	0305b303          	ld	t1,48(a1)
 1001090:	0385b383          	ld	t2,56(a1)
 1001094:	0405be03          	ld	t3,64(a1)
 1001098:	0485be83          	ld	t4,72(a1)
 100109c:	0505bf03          	ld	t5,80(a1)
 10010a0:	e110                	sd	a2,0(a0)
 10010a2:	e514                	sd	a3,8(a0)
 10010a4:	e918                	sd	a4,16(a0)
 10010a6:	ed1c                	sd	a5,24(a0)
 10010a8:	03053023          	sd	a6,32(a0)
 10010ac:	03153423          	sd	a7,40(a0)
 10010b0:	02653823          	sd	t1,48(a0)
 10010b4:	02753c23          	sd	t2,56(a0)
 10010b8:	05c53023          	sd	t3,64(a0)
 10010bc:	05d53423          	sd	t4,72(a0)
 10010c0:	05e53823          	sd	t5,80(a0)
 10010c4:	6db0                	ld	a2,88(a1)
 10010c6:	71b4                	ld	a3,96(a1)
 10010c8:	75b8                	ld	a4,104(a1)
 10010ca:	79bc                	ld	a5,112(a1)
 10010cc:	0785b803          	ld	a6,120(a1)
 10010d0:	08058593          	addi	a1,a1,128
 10010d4:	ed30                	sd	a2,88(a0)
 10010d6:	f134                	sd	a3,96(a0)
 10010d8:	f538                	sd	a4,104(a0)
 10010da:	f93c                	sd	a5,112(a0)
 10010dc:	07053c23          	sd	a6,120(a0)
 10010e0:	08050513          	addi	a0,a0,128
 10010e4:	f8556ce3          	bltu	a0,t0,100107c <__spl_start+0x994>
 10010e8:	07828293          	addi	t0,t0,120
 10010ec:	00557863          	bgeu	a0,t0,10010fc <__spl_start+0xa14>
 10010f0:	619c                	ld	a5,0(a1)
 10010f2:	05a1                	addi	a1,a1,8
 10010f4:	e11c                	sd	a5,0(a0)
 10010f6:	0521                	addi	a0,a0,8
 10010f8:	fe556ce3          	bltu	a0,t0,10010f0 <__spl_start+0xa08>
 10010fc:	029d                	addi	t0,t0,7
 10010fe:	00550a63          	beq	a0,t0,1001112 <__spl_start+0xa2a>
 1001102:	00058783          	lb	a5,0(a1)
 1001106:	0585                	addi	a1,a1,1
 1001108:	00f50023          	sb	a5,0(a0)
 100110c:	0505                	addi	a0,a0,1
 100110e:	fe551ae3          	bne	a0,t0,1001102 <__spl_start+0xa1a>
 1001112:	857e                	mv	a0,t6
 1001114:	8082                	ret
 1001116:	00369e13          	slli	t3,a3,0x3
 100111a:	41c00eb3          	neg	t4,t3
 100111e:	99e1                	andi	a1,a1,-8
 1001120:	619c                	ld	a5,0(a1)
 1001122:	12e5                	addi	t0,t0,-7
 1001124:	01c7d733          	srl	a4,a5,t3
 1001128:	659c                	ld	a5,8(a1)
 100112a:	05a1                	addi	a1,a1,8
 100112c:	01d79633          	sll	a2,a5,t4
 1001130:	8e59                	or	a2,a2,a4
 1001132:	e110                	sd	a2,0(a0)
 1001134:	0521                	addi	a0,a0,8
 1001136:	fe5567e3          	bltu	a0,t0,1001124 <__spl_start+0xa3c>
 100113a:	029d                	addi	t0,t0,7
 100113c:	95b6                	add	a1,a1,a3
 100113e:	b7c1                	j	10010fe <__spl_start+0xa16>
	...
 100114c:	4501                	li	a0,0
 100114e:	8082                	ret
 1001150:	4521                	li	a0,8
 1001152:	8082                	ret
 1001154:	4501                	li	a0,0
 1001156:	8082                	ret
 1001158:	8082                	ret
 100115a:	1141                	addi	sp,sp,-16
 100115c:	e406                	sd	ra,8(sp)
 100115e:	670d                	lui	a4,0x3
 1001160:	12e1b423          	sd	a4,296(gp)
 1001164:	0a400513          	li	a0,164
 1001168:	0000a317          	auipc	t1,0xa
 100116c:	1b833303          	ld	t1,440(t1) # 100b320 <__spl_start+0xac38>
 1001170:	1201b823          	sd	zero,304(gp)
 1001174:	9302                	jalr	t1
 1001176:	12c030ef          	jal	ra,10042a2 <__spl_start+0x3bba>
 100117a:	e511                	bnez	a0,1001186 <__spl_start+0xa9e>
 100117c:	60a2                	ld	ra,8(sp)
 100117e:	4505                	li	a0,1
 1001180:	0141                	addi	sp,sp,16
 1001182:	0ba0406f          	j	100523c <__spl_start+0x4b54>
 1001186:	60a2                	ld	ra,8(sp)
 1001188:	0141                	addi	sp,sp,16
 100118a:	8082                	ret
 100118c:	8082                	ret
 100118e:	8082                	ret
 1001190:	40100793          	li	a5,1025
 1001194:	07d6                	slli	a5,a5,0x15
 1001196:	953e                	add	a0,a0,a5
 1001198:	8082                	ret
 100119a:	0000a797          	auipc	a5,0xa
 100119e:	1ee7b783          	ld	a5,494(a5) # 100b388 <__spl_start+0xaca0>
 10011a2:	639c                	ld	a5,0(a5)
 10011a4:	5775                	li	a4,-3
 10011a6:	fff78693          	addi	a3,a5,-1
 10011aa:	00d77563          	bgeu	a4,a3,10011b4 <__spl_start+0xacc>
 10011ae:	40100793          	li	a5,1025
 10011b2:	07d6                	slli	a5,a5,0x15
 10011b4:	ed1c                	sd	a5,24(a0)
 10011b6:	e91c                	sd	a5,16(a0)
 10011b8:	47c5                	li	a5,17
 10011ba:	00032737          	lui	a4,0x32
 10011be:	00f50423          	sb	a5,8(a0)
 10011c2:	00008797          	auipc	a5,0x8
 10011c6:	34e78793          	addi	a5,a5,846 # 1009510 <__spl_start+0x8e28>
 10011ca:	d558                	sw	a4,44(a0)
 10011cc:	e11c                	sd	a5,0(a0)
 10011ce:	8082                	ret
 10011d0:	5529                	li	a0,-22
 10011d2:	8082                	ret
 10011d4:	4198                	lw	a4,0(a1)
 10011d6:	00ff0637          	lui	a2,0xff0
 10011da:	0187569b          	srliw	a3,a4,0x18
 10011de:	0187179b          	slliw	a5,a4,0x18
 10011e2:	8fd5                	or	a5,a5,a3
 10011e4:	0087169b          	slliw	a3,a4,0x8
 10011e8:	8ef1                	and	a3,a3,a2
 10011ea:	8fd5                	or	a5,a5,a3
 10011ec:	66c1                	lui	a3,0x10
 10011ee:	0087571b          	srliw	a4,a4,0x8
 10011f2:	f0068693          	addi	a3,a3,-256 # ff00 <_start-0xff0100>
 10011f6:	8f75                	and	a4,a4,a3
 10011f8:	8fd9                	or	a5,a5,a4
 10011fa:	27052737          	lui	a4,0x27052
 10011fe:	2781                	sext.w	a5,a5
 1001200:	95670713          	addi	a4,a4,-1706 # 27051956 <__soc_ctrl_scratch1+0x2505193e>
 1001204:	00e79763          	bne	a5,a4,1001212 <__spl_start+0xb2a>
 1001208:	0000a317          	auipc	t1,0xa
 100120c:	13033303          	ld	t1,304(t1) # 100b338 <__spl_start+0xac50>
 1001210:	8302                	jr	t1
 1001212:	1141                	addi	sp,sp,-16
 1001214:	e406                	sd	ra,8(sp)
 1001216:	f85ff0ef          	jal	ra,100119a <__spl_start+0xab2>
 100121a:	60a2                	ld	ra,8(sp)
 100121c:	4501                	li	a0,0
 100121e:	0141                	addi	sp,sp,16
 1001220:	8082                	ret
 1001222:	0001b703          	ld	a4,0(gp)
 1001226:	e719                	bnez	a4,1001234 <__spl_start+0xb4c>
 1001228:	00009717          	auipc	a4,0x9
 100122c:	3a070713          	addi	a4,a4,928 # 100a5c8 <__spl_start+0x9ee0>
 1001230:	00e1b023          	sd	a4,0(gp)
 1001234:	8082                	ret
 1001236:	1141                	addi	sp,sp,-16
 1001238:	e406                	sd	ra,8(sp)
 100123a:	f21ff0ef          	jal	ra,100115a <__spl_start+0xa72>
 100123e:	e519                	bnez	a0,100124c <__spl_start+0xb64>
 1001240:	0081b783          	ld	a5,8(gp)
 1001244:	6691                	lui	a3,0x4
 1001246:	8fd5                	or	a5,a5,a3
 1001248:	00f1b423          	sd	a5,8(gp)
 100124c:	60a2                	ld	ra,8(sp)
 100124e:	0141                	addi	sp,sp,16
 1001250:	8082                	ret
 1001252:	0081b703          	ld	a4,8(gp)
 1001256:	6791                	lui	a5,0x4
 1001258:	8ff9                	and	a5,a5,a4
 100125a:	cb89                	beqz	a5,100126c <__spl_start+0xb84>
 100125c:	0081b783          	ld	a5,8(gp)
 1001260:	4501                	li	a0,0
 1001262:	4007e793          	ori	a5,a5,1024
 1001266:	00f1b423          	sd	a5,8(gp)
 100126a:	8082                	ret
 100126c:	1141                	addi	sp,sp,-16
 100126e:	e406                	sd	ra,8(sp)
 1001270:	eebff0ef          	jal	ra,100115a <__spl_start+0xa72>
 1001274:	e901                	bnez	a0,1001284 <__spl_start+0xb9c>
 1001276:	0081b783          	ld	a5,8(gp)
 100127a:	4501                	li	a0,0
 100127c:	4007e793          	ori	a5,a5,1024
 1001280:	00f1b423          	sd	a5,8(gp)
 1001284:	60a2                	ld	ra,8(sp)
 1001286:	0141                	addi	sp,sp,16
 1001288:	8082                	ret
 100128a:	1141                	addi	sp,sp,-16
 100128c:	e022                	sd	s0,0(sp)
 100128e:	e406                	sd	ra,8(sp)
 1001290:	842a                	mv	s0,a0
 1001292:	ebfff0ef          	jal	ra,1001150 <__spl_start+0xa68>
 1001296:	60a2                	ld	ra,8(sp)
 1001298:	c008                	sw	a0,0(s0)
 100129a:	6402                	ld	s0,0(sp)
 100129c:	0141                	addi	sp,sp,16
 100129e:	8082                	ret
 10012a0:	7131                	addi	sp,sp,-192
 10012a2:	f922                	sd	s0,176(sp)
 10012a4:	0820                	addi	s0,sp,24
 10012a6:	4651                	li	a2,20
 10012a8:	00006597          	auipc	a1,0x6
 10012ac:	70058593          	addi	a1,a1,1792 # 10079a8 <__spl_start+0x72c0>
 10012b0:	8522                	mv	a0,s0
 10012b2:	fd06                	sd	ra,184(sp)
 10012b4:	f526                	sd	s1,168(sp)
 10012b6:	f14a                	sd	s2,160(sp)
 10012b8:	ed4e                	sd	s3,152(sp)
 10012ba:	e952                	sd	s4,144(sp)
 10012bc:	e556                	sd	s5,136(sp)
 10012be:	e15a                	sd	s6,128(sp)
 10012c0:	fcde                	sd	s7,120(sp)
 10012c2:	f8e2                	sd	s8,112(sp)
 10012c4:	d85ff0ef          	jal	ra,1001048 <__spl_start+0x960>
 10012c8:	f5bff0ef          	jal	ra,1001222 <__spl_start+0xb3a>
 10012cc:	02100513          	li	a0,33
 10012d0:	001005b7          	lui	a1,0x100
 10012d4:	056a                	slli	a0,a0,0x1a
 10012d6:	73d000ef          	jal	ra,1002212 <__spl_start+0x1b2a>
 10012da:	0081b783          	ld	a5,8(gp)
 10012de:	2007e693          	ori	a3,a5,512
 10012e2:	00d1b423          	sd	a3,8(gp)
 10012e6:	4007f793          	andi	a5,a5,1024
 10012ea:	e791                	bnez	a5,10012f6 <__spl_start+0xc0e>
 10012ec:	f67ff0ef          	jal	ra,1001252 <__spl_start+0xb6a>
 10012f0:	c119                	beqz	a0,10012f6 <__spl_start+0xc0e>
 10012f2:	7e1020ef          	jal	ra,10042d2 <__spl_start+0x3bea>
 10012f6:	184030ef          	jal	ra,100447a <__spl_start+0x3d92>
 10012fa:	03010993          	addi	s3,sp,48
 10012fe:	04000613          	li	a2,64
 1001302:	4581                	li	a1,0
 1001304:	854e                	mv	a0,s3
 1001306:	ba3ff0ef          	jal	ra,1000ea8 <__spl_start+0x7c0>
 100130a:	deadc4b7          	lui	s1,0xdeadc
 100130e:	eef48913          	addi	s2,s1,-273 # ffffffffdeadbeef <__soc_ctrl_scratch1+0xffffffffdcadbed7>
 1001312:	8522                	mv	a0,s0
 1001314:	0000a317          	auipc	t1,0xa
 1001318:	fc433303          	ld	t1,-60(t1) # 100b2d8 <__spl_start+0xabf0>
 100131c:	ccca                	sw	s2,88(sp)
 100131e:	9302                	jalr	t1
 1001320:	0000a717          	auipc	a4,0xa
 1001324:	58070713          	addi	a4,a4,1408 # 100b8a0 <__spl_start+0xb1b8>
 1001328:	0000a797          	auipc	a5,0xa
 100132c:	5a878793          	addi	a5,a5,1448 # 100b8d0 <__spl_start+0xb1e8>
 1001330:	8f99                	sub	a5,a5,a4
 1001332:	00007697          	auipc	a3,0x7
 1001336:	9b66b683          	ld	a3,-1610(a3) # 1007ce8 <__spl_start+0x7600>
 100133a:	878d                	srai	a5,a5,0x3
 100133c:	02d787bb          	mulw	a5,a5,a3
 1001340:	46e1                	li	a3,24
 1001342:	02c10b13          	addi	s6,sp,44
 1001346:	00007a97          	auipc	s5,0x7
 100134a:	952a8a93          	addi	s5,s5,-1710 # 1007c98 <__spl_start+0x75b0>
 100134e:	00007b97          	auipc	s7,0x7
 1001352:	932b8b93          	addi	s7,s7,-1742 # 1007c80 <__spl_start+0x7598>
 1001356:	00810c13          	addi	s8,sp,8
 100135a:	02d787b3          	mul	a5,a5,a3
 100135e:	00f70a33          	add	s4,a4,a5
 1001362:	401c                	lw	a5,0(s0)
 1001364:	03278363          	beq	a5,s2,100138a <__spl_start+0xca2>
 1001368:	0000a497          	auipc	s1,0xa
 100136c:	53848493          	addi	s1,s1,1336 # 100b8a0 <__spl_start+0xb1b8>
 1001370:	a029                	j	100137a <__spl_start+0xc92>
 1001372:	4498                	lw	a4,8(s1)
 1001374:	02f70263          	beq	a4,a5,1001398 <__spl_start+0xcb0>
 1001378:	04e1                	addi	s1,s1,24
 100137a:	ff449ce3          	bne	s1,s4,1001372 <__spl_start+0xc8a>
 100137e:	8556                	mv	a0,s5
 1001380:	61b000ef          	jal	ra,100219a <__spl_start+0x1ab2>
 1001384:	0411                	addi	s0,s0,4
 1001386:	fd641ee3          	bne	s0,s6,1001362 <__spl_start+0xc7a>
 100138a:	00007517          	auipc	a0,0x7
 100138e:	92e50513          	addi	a0,a0,-1746 # 1007cb8 <__spl_start+0x75d0>
 1001392:	609000ef          	jal	ra,100219a <__spl_start+0x1ab2>
 1001396:	bfb1                	j	10012f2 <__spl_start+0xc0a>
 1001398:	608c                	ld	a1,0(s1)
 100139a:	855e                	mv	a0,s7
 100139c:	4f0030ef          	jal	ra,100488c <__spl_start+0x41a4>
 10013a0:	449c                	lw	a5,8(s1)
 10013a2:	e802                	sd	zero,16(sp)
 10013a4:	85e2                	mv	a1,s8
 10013a6:	c43e                	sw	a5,8(sp)
 10013a8:	689c                	ld	a5,16(s1)
 10013aa:	854e                	mv	a0,s3
 10013ac:	9782                	jalr	a5
 10013ae:	f979                	bnez	a0,1001384 <__spl_start+0xc9c>
 10013b0:	401c                	lw	a5,0(s0)
 10013b2:	854e                	mv	a0,s3
 10013b4:	0000a317          	auipc	t1,0xa
 10013b8:	fec33303          	ld	t1,-20(t1) # 100b3a0 <__spl_start+0xacb8>
 10013bc:	ccbe                	sw	a5,88(sp)
 10013be:	9302                	jalr	t1
 10013c0:	03814703          	lbu	a4,56(sp)
 10013c4:	47ed                	li	a5,27
 10013c6:	00f71563          	bne	a4,a5,10013d0 <__spl_start+0xce8>
 10013ca:	854e                	mv	a0,s3
 10013cc:	594000ef          	jal	ra,1001960 <__spl_start+0x1278>
 10013d0:	0a500513          	li	a0,165
 10013d4:	0000a317          	auipc	t1,0xa
 10013d8:	f4c33303          	ld	t1,-180(t1) # 100b320 <__spl_start+0xac38>
 10013dc:	9302                	jalr	t1
 10013de:	0000a317          	auipc	t1,0xa
 10013e2:	fea33303          	ld	t1,-22(t1) # 100b3c8 <__spl_start+0xace0>
 10013e6:	9302                	jalr	t1
 10013e8:	854e                	mv	a0,s3
 10013ea:	0000a317          	auipc	t1,0xa
 10013ee:	f1633303          	ld	t1,-234(t1) # 100b300 <__spl_start+0xac18>
 10013f2:	9302                	jalr	t1
 10013f4:	1141                	addi	sp,sp,-16
 10013f6:	67f1                	lui	a5,0x1c
 10013f8:	e406                	sd	ra,8(sp)
 10013fa:	20078793          	addi	a5,a5,512 # 1c200 <_start-0xfe3e00>
 10013fe:	00f1a823          	sw	a5,16(gp)
 1001402:	20c050ef          	jal	ra,100660e <__spl_start+0x5f26>
 1001406:	4785                	li	a5,1
 1001408:	02f1bc23          	sd	a5,56(gp)
 100140c:	60a2                	ld	ra,8(sp)
 100140e:	00007517          	auipc	a0,0x7
 1001412:	ca250513          	addi	a0,a0,-862 # 10080b0 <__spl_start+0x79c8>
 1001416:	0141                	addi	sp,sp,16
 1001418:	5830006f          	j	100219a <__spl_start+0x1ab2>
 100141c:	4501                	li	a0,0
 100141e:	8082                	ret
 1001420:	7139                	addi	sp,sp,-64
 1001422:	f426                	sd	s1,40(sp)
 1001424:	f04a                	sd	s2,32(sp)
 1001426:	fc06                	sd	ra,56(sp)
 1001428:	f822                	sd	s0,48(sp)
 100142a:	ec4e                	sd	s3,24(sp)
 100142c:	8932                	mv	s2,a2
 100142e:	862e                	mv	a2,a1
 1001430:	494c                	lw	a1,20(a0)
 1001432:	6108                	ld	a0,0(a0)
 1001434:	84b6                	mv	s1,a3
 1001436:	0074                	addi	a3,sp,12
 1001438:	1c8020ef          	jal	ra,1003600 <__spl_start+0x2f18>
 100143c:	c11d                	beqz	a0,1001462 <__spl_start+0xd7a>
 100143e:	842a                	mv	s0,a0
 1001440:	4981                	li	s3,0
 1001442:	0129c563          	blt	s3,s2,100144c <__spl_start+0xd64>
 1001446:	e088                	sd	a0,0(s1)
 1001448:	4501                	li	a0,0
 100144a:	a829                	j	1001464 <__spl_start+0xd7c>
 100144c:	4581                	li	a1,0
 100144e:	743020ef          	jal	ra,1004390 <__spl_start+0x3ca8>
 1001452:	47b2                	lw	a5,12(sp)
 1001454:	0505                	addi	a0,a0,1
 1001456:	40850733          	sub	a4,a0,s0
 100145a:	00f75c63          	bge	a4,a5,1001472 <__spl_start+0xd8a>
 100145e:	2985                	addiw	s3,s3,1
 1001460:	b7cd                	j	1001442 <__spl_start+0xd5a>
 1001462:	5529                	li	a0,-22
 1001464:	70e2                	ld	ra,56(sp)
 1001466:	7442                	ld	s0,48(sp)
 1001468:	74a2                	ld	s1,40(sp)
 100146a:	7902                	ld	s2,32(sp)
 100146c:	69e2                	ld	s3,24(sp)
 100146e:	6121                	addi	sp,sp,64
 1001470:	8082                	ret
 1001472:	5565                	li	a0,-7
 1001474:	bfc5                	j	1001464 <__spl_start+0xd7c>
 1001476:	7179                	addi	sp,sp,-48
 1001478:	0034                	addi	a3,sp,8
 100147a:	f022                	sd	s0,32(sp)
 100147c:	f406                	sd	ra,40(sp)
 100147e:	ec26                	sd	s1,24(sp)
 1001480:	842a                	mv	s0,a0
 1001482:	f9fff0ef          	jal	ra,1001420 <__spl_start+0xd38>
 1001486:	e115                	bnez	a0,10014aa <__spl_start+0xdc2>
 1001488:	64a2                	ld	s1,8(sp)
 100148a:	480c                	lw	a1,16(s0)
 100148c:	6008                	ld	a0,0(s0)
 100148e:	8626                	mv	a2,s1
 1001490:	006020ef          	jal	ra,1003496 <__spl_start+0x2dae>
 1001494:	00055b63          	bgez	a0,10014aa <__spl_start+0xdc2>
 1001498:	862a                	mv	a2,a0
 100149a:	85a6                	mv	a1,s1
 100149c:	00008517          	auipc	a0,0x8
 10014a0:	ee450513          	addi	a0,a0,-284 # 1009380 <__spl_start+0x8c98>
 10014a4:	3e8030ef          	jal	ra,100488c <__spl_start+0x41a4>
 10014a8:	5529                	li	a0,-22
 10014aa:	70a2                	ld	ra,40(sp)
 10014ac:	7402                	ld	s0,32(sp)
 10014ae:	64e2                	ld	s1,24(sp)
 10014b0:	6145                	addi	sp,sp,48
 10014b2:	8082                	ret
 10014b4:	7175                	addi	sp,sp,-144
 10014b6:	e122                	sd	s0,128(sp)
 10014b8:	fca6                	sd	s1,120(sp)
 10014ba:	f8ca                	sd	s2,112(sp)
 10014bc:	f4ce                	sd	s3,104(sp)
 10014be:	ecd6                	sd	s5,88(sp)
 10014c0:	e506                	sd	ra,136(sp)
 10014c2:	f0d2                	sd	s4,96(sp)
 10014c4:	e8da                	sd	s6,80(sp)
 10014c6:	e4de                	sd	s7,72(sp)
 10014c8:	00063a03          	ld	s4,0(a2) # ff0000 <_start-0x10000>
 10014cc:	892a                	mv	s2,a0
 10014ce:	8aae                	mv	s5,a1
 10014d0:	84b2                	mv	s1,a2
 10014d2:	85b6                	mv	a1,a3
 10014d4:	1030                	addi	a2,sp,40
 10014d6:	8552                	mv	a0,s4
 10014d8:	8436                	mv	s0,a3
 10014da:	89ba                	mv	s3,a4
 10014dc:	001010ef          	jal	ra,1002cdc <__spl_start+0x25f4>
 10014e0:	cd1d                	beqz	a0,100151e <__spl_start+0xe36>
 10014e2:	0109b783          	ld	a5,16(s3)
 10014e6:	eb9d                	bnez	a5,100151c <__spl_start+0xe34>
 10014e8:	4601                	li	a2,0
 10014ea:	85a2                	mv	a1,s0
 10014ec:	8552                	mv	a0,s4
 10014ee:	6b9010ef          	jal	ra,10033a6 <__spl_start+0x2cbe>
 10014f2:	85aa                	mv	a1,a0
 10014f4:	00008517          	auipc	a0,0x8
 10014f8:	f0c50513          	addi	a0,a0,-244 # 1009400 <__spl_start+0x8d18>
 10014fc:	390030ef          	jal	ra,100488c <__spl_start+0x41a4>
 1001500:	f9700793          	li	a5,-105
 1001504:	60aa                	ld	ra,136(sp)
 1001506:	640a                	ld	s0,128(sp)
 1001508:	74e6                	ld	s1,120(sp)
 100150a:	7946                	ld	s2,112(sp)
 100150c:	79a6                	ld	s3,104(sp)
 100150e:	7a06                	ld	s4,96(sp)
 1001510:	6ae6                	ld	s5,88(sp)
 1001512:	6b46                	ld	s6,80(sp)
 1001514:	6ba6                	ld	s7,72(sp)
 1001516:	853e                	mv	a0,a5
 1001518:	6149                	addi	sp,sp,144
 100151a:	8082                	ret
 100151c:	f43e                	sd	a5,40(sp)
 100151e:	0830                	addi	a2,sp,24
 1001520:	85a2                	mv	a1,s0
 1001522:	8552                	mv	a0,s4
 1001524:	e432                	sd	a2,8(sp)
 1001526:	051010ef          	jal	ra,1002d76 <__spl_start+0x268e>
 100152a:	c919                	beqz	a0,1001540 <__spl_start+0xe58>
 100152c:	6622                	ld	a2,8(sp)
 100152e:	85a2                	mv	a1,s0
 1001530:	8552                	mv	a0,s4
 1001532:	7f6010ef          	jal	ra,1002d28 <__spl_start+0x2640>
 1001536:	ed49                	bnez	a0,10015d0 <__spl_start+0xee8>
 1001538:	47e2                	lw	a5,24(sp)
 100153a:	6498                	ld	a4,8(s1)
 100153c:	9fb9                	addw	a5,a5,a4
 100153e:	cc3e                	sw	a5,24(sp)
 1001540:	0870                	addi	a2,sp,28
 1001542:	85a2                	mv	a1,s0
 1001544:	8552                	mv	a0,s4
 1001546:	07f010ef          	jal	ra,1002dc4 <__spl_start+0x26dc>
 100154a:	57f9                	li	a5,-2
 100154c:	fd45                	bnez	a0,1001504 <__spl_start+0xe1c>
 100154e:	47f2                	lw	a5,28(sp)
 1001550:	74a2                	ld	s1,40(sp)
 1001552:	45e2                	lw	a1,24(sp)
 1001554:	01893703          	ld	a4,24(s2) # ffffffffffffb018 <__soc_ctrl_scratch1+0xfffffffffdffb000>
 1001558:	04fd                	addi	s1,s1,31
 100155a:	f03e                	sd	a5,32(sp)
 100155c:	9881                	andi	s1,s1,-32
 100155e:	01f5fb93          	andi	s7,a1,31
 1001562:	e709                	bnez	a4,100156c <__spl_start+0xe84>
 1001564:	01092b83          	lw	s7,16(s2)
 1001568:	0375ebbb          	remw	s7,a1,s7
 100156c:	01778b3b          	addw	s6,a5,s7
 1001570:	87da                	mv	a5,s6
 1001572:	eb01                	bnez	a4,1001582 <__spl_start+0xe9a>
 1001574:	01092b03          	lw	s6,16(s2)
 1001578:	016787bb          	addw	a5,a5,s6
 100157c:	37fd                	addiw	a5,a5,-1
 100157e:	0367cb3b          	divw	s6,a5,s6
 1001582:	02093783          	ld	a5,32(s2)
 1001586:	c725                	beqz	a4,10015ee <__spl_start+0xf06>
 1001588:	9981                	andi	a1,a1,-32
 100158a:	95d6                	add	a1,a1,s5
 100158c:	86a6                	mv	a3,s1
 100158e:	865a                	mv	a2,s6
 1001590:	854a                	mv	a0,s2
 1001592:	9782                	jalr	a5
 1001594:	57ed                	li	a5,-5
 1001596:	017485b3          	add	a1,s1,s7
 100159a:	f6ab15e3          	bne	s6,a0,1001504 <__spl_start+0xe1c>
 100159e:	7602                	ld	a2,32(sp)
 10015a0:	7522                	ld	a0,40(sp)
 10015a2:	aa7ff0ef          	jal	ra,1001048 <__spl_start+0x960>
 10015a6:	4781                	li	a5,0
 10015a8:	f4098ee3          	beqz	s3,1001504 <__spl_start+0xe1c>
 10015ac:	77a2                	ld	a5,40(sp)
 10015ae:	1830                	addi	a2,sp,56
 10015b0:	85a2                	mv	a1,s0
 10015b2:	00f9b823          	sd	a5,16(s3)
 10015b6:	7782                	ld	a5,32(sp)
 10015b8:	8552                	mv	a0,s4
 10015ba:	02f9a623          	sw	a5,44(s3)
 10015be:	72a010ef          	jal	ra,1002ce8 <__spl_start+0x2600>
 10015c2:	57fd                	li	a5,-1
 10015c4:	e111                	bnez	a0,10015c8 <__spl_start+0xee0>
 10015c6:	77e2                	ld	a5,56(sp)
 10015c8:	00f9bc23          	sd	a5,24(s3)
 10015cc:	4781                	li	a5,0
 10015ce:	bf1d                	j	1001504 <__spl_start+0xe1c>
 10015d0:	1014                	addi	a3,sp,32
 10015d2:	1810                	addi	a2,sp,48
 10015d4:	85a2                	mv	a1,s0
 10015d6:	8552                	mv	a0,s4
 10015d8:	71c010ef          	jal	ra,1002cf4 <__spl_start+0x260c>
 10015dc:	cd11                	beqz	a0,10015f8 <__spl_start+0xf10>
 10015de:	00008517          	auipc	a0,0x8
 10015e2:	e5250513          	addi	a0,a0,-430 # 1009430 <__spl_start+0x8d48>
 10015e6:	3b5000ef          	jal	ra,100219a <__spl_start+0x1ab2>
 10015ea:	57f9                	li	a5,-2
 10015ec:	bf21                	j	1001504 <__spl_start+0xe1c>
 10015ee:	01092703          	lw	a4,16(s2)
 10015f2:	02e5c5bb          	divw	a1,a1,a4
 10015f6:	bf51                	j	100158a <__spl_start+0xea2>
 10015f8:	75c2                	ld	a1,48(sp)
 10015fa:	b755                	j	100159e <__spl_start+0xeb6>
 10015fc:	7159                	addi	sp,sp,-112
 10015fe:	f0a2                	sd	s0,96(sp)
 1001600:	eca6                	sd	s1,88(sp)
 1001602:	e4ce                	sd	s3,72(sp)
 1001604:	e0d2                	sd	s4,64(sp)
 1001606:	f486                	sd	ra,104(sp)
 1001608:	e8ca                	sd	s2,80(sp)
 100160a:	02c56903          	lwu	s2,44(a0)
 100160e:	691c                	ld	a5,16(a0)
 1001610:	842a                	mv	s0,a0
 1001612:	89ae                	mv	s3,a1
 1001614:	8a32                	mv	s4,a2
 1001616:	993e                	add	s2,s2,a5
 1001618:	4601                	li	a2,0
 100161a:	00008597          	auipc	a1,0x8
 100161e:	d5e58593          	addi	a1,a1,-674 # 1009378 <__spl_start+0x8c90>
 1001622:	8536                	mv	a0,a3
 1001624:	84b6                	mv	s1,a3
 1001626:	e84a                	sd	s2,16(sp)
 1001628:	e4fff0ef          	jal	ra,1001476 <__spl_start+0xd8e>
 100162c:	04055963          	bgez	a0,100167e <__spl_start+0xf96>
 1001630:	0d81b583          	ld	a1,216(gp)
 1001634:	cdb1                	beqz	a1,1001690 <__spl_start+0xfa8>
 1001636:	41dc                	lw	a5,4(a1)
 1001638:	00ff06b7          	lui	a3,0xff0
 100163c:	854a                	mv	a0,s2
 100163e:	0187d71b          	srliw	a4,a5,0x18
 1001642:	0187961b          	slliw	a2,a5,0x18
 1001646:	8e59                	or	a2,a2,a4
 1001648:	0087971b          	slliw	a4,a5,0x8
 100164c:	8f75                	and	a4,a4,a3
 100164e:	8e59                	or	a2,a2,a4
 1001650:	6741                	lui	a4,0x10
 1001652:	0087d79b          	srliw	a5,a5,0x8
 1001656:	f0070713          	addi	a4,a4,-256 # ff00 <_start-0xff0100>
 100165a:	8ff9                	and	a5,a5,a4
 100165c:	8e5d                	or	a2,a2,a5
 100165e:	1602                	slli	a2,a2,0x20
 1001660:	9201                	srli	a2,a2,0x20
 1001662:	9e7ff0ef          	jal	ra,1001048 <__spl_start+0x960>
 1001666:	6542                	ld	a0,16(sp)
 1001668:	70a6                	ld	ra,104(sp)
 100166a:	64e6                	ld	s1,88(sp)
 100166c:	f008                	sd	a0,32(s0)
 100166e:	7406                	ld	s0,96(sp)
 1001670:	6946                	ld	s2,80(sp)
 1001672:	69a6                	ld	s3,72(sp)
 1001674:	6a06                	ld	s4,64(sp)
 1001676:	6589                	lui	a1,0x2
 1001678:	6165                	addi	sp,sp,112
 100167a:	1d50006f          	j	100204e <__spl_start+0x1966>
 100167e:	86aa                	mv	a3,a0
 1001680:	870a                	mv	a4,sp
 1001682:	8626                	mv	a2,s1
 1001684:	85d2                	mv	a1,s4
 1001686:	854e                	mv	a0,s3
 1001688:	e2dff0ef          	jal	ra,10014b4 <__spl_start+0xdcc>
 100168c:	fc055de3          	bgez	a0,1001666 <__spl_start+0xf7e>
 1001690:	70a6                	ld	ra,104(sp)
 1001692:	7406                	ld	s0,96(sp)
 1001694:	64e6                	ld	s1,88(sp)
 1001696:	6946                	ld	s2,80(sp)
 1001698:	69a6                	ld	s3,72(sp)
 100169a:	6a06                	ld	s4,64(sp)
 100169c:	6165                	addi	sp,sp,112
 100169e:	8082                	ret
 10016a0:	8082                	ret
 10016a2:	4501                	li	a0,0
 10016a4:	8082                	ret
 10016a6:	712d                	addi	sp,sp,-288
 10016a8:	ea22                	sd	s0,272(sp)
 10016aa:	e626                	sd	s1,264(sp)
 10016ac:	fdce                	sd	s3,248(sp)
 10016ae:	f9d2                	sd	s4,240(sp)
 10016b0:	f1da                	sd	s6,224(sp)
 10016b2:	ee06                	sd	ra,280(sp)
 10016b4:	e24a                	sd	s2,256(sp)
 10016b6:	f5d6                	sd	s5,232(sp)
 10016b8:	edde                	sd	s7,216(sp)
 10016ba:	e9e2                	sd	s8,208(sp)
 10016bc:	e5e6                	sd	s9,200(sp)
 10016be:	e1ea                	sd	s10,192(sp)
 10016c0:	fd6e                	sd	s11,184(sp)
 10016c2:	42dc                	lw	a5,4(a3)
 10016c4:	842a                	mv	s0,a0
 10016c6:	00ff06b7          	lui	a3,0xff0
 10016ca:	0187d71b          	srliw	a4,a5,0x18
 10016ce:	0187951b          	slliw	a0,a5,0x18
 10016d2:	8d59                	or	a0,a0,a4
 10016d4:	0087971b          	slliw	a4,a5,0x8
 10016d8:	8f75                	and	a4,a4,a3
 10016da:	8d59                	or	a0,a0,a4
 10016dc:	6741                	lui	a4,0x10
 10016de:	f0070713          	addi	a4,a4,-256 # ff00 <_start-0xff0100>
 10016e2:	0087d79b          	srliw	a5,a5,0x8
 10016e6:	8ff9                	and	a5,a5,a4
 10016e8:	8d5d                	or	a0,a0,a5
 10016ea:	250d                	addiw	a0,a0,3
 10016ec:	9971                	andi	a0,a0,-4
 10016ee:	1502                	slli	a0,a0,0x20
 10016f0:	9101                	srli	a0,a0,0x20
 10016f2:	0000a317          	auipc	t1,0xa
 10016f6:	c5e33303          	ld	t1,-930(t1) # 100b350 <__spl_start+0xac68>
 10016fa:	89ae                	mv	s3,a1
 10016fc:	8b32                	mv	s6,a2
 10016fe:	9302                	jalr	t1
 1001700:	00350793          	addi	a5,a0,3
 1001704:	9bf1                	andi	a5,a5,-4
 1001706:	f0be                	sd	a5,96(sp)
 1001708:	0189b783          	ld	a5,24(s3)
 100170c:	0109aa03          	lw	s4,16(s3)
 1001710:	0005049b          	sext.w	s1,a0
 1001714:	e791                	bnez	a5,1001720 <__spl_start+0x1038>
 1001716:	014484bb          	addw	s1,s1,s4
 100171a:	34fd                	addiw	s1,s1,-1
 100171c:	0344c4bb          	divw	s1,s1,s4
 1001720:	029a0a3b          	mulw	s4,s4,s1
 1001724:	8552                	mv	a0,s4
 1001726:	56f000ef          	jal	ra,1002494 <__spl_start+0x1dac>
 100172a:	892a                	mv	s2,a0
 100172c:	e11d                	bnez	a0,1001752 <__spl_start+0x106a>
 100172e:	85d2                	mv	a1,s4
 1001730:	00008517          	auipc	a0,0x8
 1001734:	d2050513          	addi	a0,a0,-736 # 1009450 <__spl_start+0x8d68>
 1001738:	154030ef          	jal	ra,100488c <__spl_start+0x41a4>
 100173c:	00008517          	auipc	a0,0x8
 1001740:	d3c50513          	addi	a0,a0,-708 # 1009478 <__spl_start+0x8d90>
 1001744:	148030ef          	jal	ra,100488c <__spl_start+0x41a4>
 1001748:	85d2                	mv	a1,s4
 100174a:	4501                	li	a0,0
 100174c:	a45ff0ef          	jal	ra,1001190 <__spl_start+0xaa8>
 1001750:	892a                	mv	s2,a0
 1001752:	0209b783          	ld	a5,32(s3)
 1001756:	8626                	mv	a2,s1
 1001758:	86ca                	mv	a3,s2
 100175a:	85da                	mv	a1,s6
 100175c:	854e                	mv	a0,s3
 100175e:	9782                	jalr	a5
 1001760:	ecca                	sd	s2,88(sp)
 1001762:	54ed                	li	s1,-5
 1001764:	cd19                	beqz	a0,1001782 <__spl_start+0x109a>
 1001766:	0000a317          	auipc	t1,0xa
 100176a:	bca33303          	ld	t1,-1078(t1) # 100b330 <__spl_start+0xac48>
 100176e:	9302                	jalr	t1
 1001770:	4481                	li	s1,0
 1001772:	e901                	bnez	a0,1001782 <__spl_start+0x109a>
 1001774:	6566                	ld	a0,88(sp)
 1001776:	5d8000ef          	jal	ra,1001d4e <__spl_start+0x1666>
 100177a:	d6aa                	sw	a0,108(sp)
 100177c:	02055363          	bgez	a0,10017a2 <__spl_start+0x10ba>
 1001780:	54a9                	li	s1,-22
 1001782:	60f2                	ld	ra,280(sp)
 1001784:	6452                	ld	s0,272(sp)
 1001786:	6912                	ld	s2,256(sp)
 1001788:	79ee                	ld	s3,248(sp)
 100178a:	7a4e                	ld	s4,240(sp)
 100178c:	7aae                	ld	s5,232(sp)
 100178e:	7b0e                	ld	s6,224(sp)
 1001790:	6bee                	ld	s7,216(sp)
 1001792:	6c4e                	ld	s8,208(sp)
 1001794:	6cae                	ld	s9,200(sp)
 1001796:	6d0e                	ld	s10,192(sp)
 1001798:	7dea                	ld	s11,184(sp)
 100179a:	8526                	mv	a0,s1
 100179c:	64b2                	ld	s1,264(sp)
 100179e:	6115                	addi	sp,sp,288
 10017a0:	8082                	ret
 10017a2:	6566                	ld	a0,88(sp)
 10017a4:	00008597          	auipc	a1,0x8
 10017a8:	cfc58593          	addi	a1,a1,-772 # 10094a0 <__spl_start+0x8db8>
 10017ac:	765010ef          	jal	ra,1003710 <__spl_start+0x3028>
 10017b0:	d4aa                	sw	a0,104(sp)
 10017b2:	fc0547e3          	bltz	a0,1001780 <__spl_start+0x1098>
 10017b6:	05810a13          	addi	s4,sp,88
 10017ba:	4601                	li	a2,0
 10017bc:	00008597          	auipc	a1,0x8
 10017c0:	cec58593          	addi	a1,a1,-788 # 10094a8 <__spl_start+0x8dc0>
 10017c4:	8552                	mv	a0,s4
 10017c6:	cb1ff0ef          	jal	ra,1001476 <__spl_start+0xd8e>
 10017ca:	892a                	mv	s2,a0
 10017cc:	4a81                	li	s5,0
 10017ce:	00055f63          	bgez	a0,10017ec <__spl_start+0x1104>
 10017d2:	4601                	li	a2,0
 10017d4:	00008597          	auipc	a1,0x8
 10017d8:	ce458593          	addi	a1,a1,-796 # 10094b8 <__spl_start+0x8dd0>
 10017dc:	8552                	mv	a0,s4
 10017de:	c99ff0ef          	jal	ra,1001476 <__spl_start+0xd8e>
 10017e2:	892a                	mv	s2,a0
 10017e4:	54fd                	li	s1,-1
 10017e6:	f8054ee3          	bltz	a0,1001782 <__spl_start+0x109a>
 10017ea:	4a85                	li	s5,1
 10017ec:	8722                	mv	a4,s0
 10017ee:	86ca                	mv	a3,s2
 10017f0:	8652                	mv	a2,s4
 10017f2:	85da                	mv	a1,s6
 10017f4:	854e                	mv	a0,s3
 10017f6:	cbfff0ef          	jal	ra,10014b4 <__spl_start+0xdcc>
 10017fa:	84aa                	mv	s1,a0
 10017fc:	f159                	bnez	a0,1001782 <__spl_start+0x109a>
 10017fe:	6566                	ld	a0,88(sp)
 1001800:	00840613          	addi	a2,s0,8 # ffffffffffffa008 <__soc_ctrl_scratch1+0xfffffffffdff9ff0>
 1001804:	85ca                	mv	a1,s2
 1001806:	4a0010ef          	jal	ra,1002ca6 <__spl_start+0x25be>
 100180a:	c11d                	beqz	a0,1001830 <__spl_start+0x1148>
 100180c:	47c5                	li	a5,17
 100180e:	00f40423          	sb	a5,8(s0)
 1001812:	86d2                	mv	a3,s4
 1001814:	865a                	mv	a2,s6
 1001816:	85ce                	mv	a1,s3
 1001818:	8522                	mv	a0,s0
 100181a:	de3ff0ef          	jal	ra,10015fc <__spl_start+0xf14>
 100181e:	00055e63          	bgez	a0,100183a <__spl_start+0x1152>
 1001822:	00844703          	lbu	a4,8(s0)
 1001826:	47c5                	li	a5,17
 1001828:	00f70963          	beq	a4,a5,100183a <__spl_start+0x1152>
 100182c:	84aa                	mv	s1,a0
 100182e:	bf91                	j	1001782 <__spl_start+0x109a>
 1001830:	00844703          	lbu	a4,8(s0)
 1001834:	47c5                	li	a5,17
 1001836:	fcf70ee3          	beq	a4,a5,1001812 <__spl_start+0x112a>
 100183a:	04f10793          	addi	a5,sp,79
 100183e:	00008b97          	auipc	s7,0x8
 1001842:	c7ab8b93          	addi	s7,s7,-902 # 10094b8 <__spl_start+0x8dd0>
 1001846:	07010c93          	addi	s9,sp,112
 100184a:	e43e                	sd	a5,8(sp)
 100184c:	5d7d                	li	s10,-1
 100184e:	05010d93          	addi	s11,sp,80
 1001852:	8656                	mv	a2,s5
 1001854:	85de                	mv	a1,s7
 1001856:	8552                	mv	a0,s4
 1001858:	040107a3          	sb	zero,79(sp)
 100185c:	c1bff0ef          	jal	ra,1001476 <__spl_start+0xd8e>
 1001860:	8c2a                	mv	s8,a0
 1001862:	0e054363          	bltz	a0,1001948 <__spl_start+0x1260>
 1001866:	01251463          	bne	a0,s2,100186e <__spl_start+0x1186>
 100186a:	2a85                	addiw	s5,s5,1
 100186c:	b7dd                	j	1001852 <__spl_start+0x116a>
 100186e:	86aa                	mv	a3,a0
 1001870:	8766                	mv	a4,s9
 1001872:	8652                	mv	a2,s4
 1001874:	85da                	mv	a1,s6
 1001876:	854e                	mv	a0,s3
 1001878:	e102                	sd	zero,128(sp)
 100187a:	c3bff0ef          	jal	ra,10014b4 <__spl_start+0xdcc>
 100187e:	86aa                	mv	a3,a0
 1001880:	02055163          	bgez	a0,10018a2 <__spl_start+0x11ba>
 1001884:	e42a                	sd	a0,8(sp)
 1001886:	8656                	mv	a2,s5
 1001888:	00006597          	auipc	a1,0x6
 100188c:	15858593          	addi	a1,a1,344 # 10079e0 <__spl_start+0x72f8>
 1001890:	00008517          	auipc	a0,0x8
 1001894:	c3850513          	addi	a0,a0,-968 # 10094c8 <__spl_start+0x8de0>
 1001898:	7f5020ef          	jal	ra,100488c <__spl_start+0x41a4>
 100189c:	66a2                	ld	a3,8(sp)
 100189e:	84b6                	mv	s1,a3
 10018a0:	b5cd                	j	1001782 <__spl_start+0x109a>
 10018a2:	6622                	ld	a2,8(sp)
 10018a4:	6566                	ld	a0,88(sp)
 10018a6:	85e2                	mv	a1,s8
 10018a8:	3fe010ef          	jal	ra,1002ca6 <__spl_start+0x25be>
 10018ac:	04f14783          	lbu	a5,79(sp)
 10018b0:	4745                	li	a4,17
 10018b2:	00e79a63          	bne	a5,a4,10018c6 <__spl_start+0x11de>
 10018b6:	86d2                	mv	a3,s4
 10018b8:	865a                	mv	a2,s6
 10018ba:	85ce                	mv	a1,s3
 10018bc:	8566                	mv	a0,s9
 10018be:	d3fff0ef          	jal	ra,10015fc <__spl_start+0xf14>
 10018c2:	67ca                	ld	a5,144(sp)
 10018c4:	f01c                	sd	a5,32(s0)
 10018c6:	6c1c                	ld	a5,24(s0)
 10018c8:	01a79663          	bne	a5,s10,10018d4 <__spl_start+0x11ec>
 10018cc:	67aa                	ld	a5,136(sp)
 10018ce:	01a78363          	beq	a5,s10,10018d4 <__spl_start+0x11ec>
 10018d2:	ec1c                	sd	a5,24(s0)
 10018d4:	02043c03          	ld	s8,32(s0)
 10018d8:	f80c09e3          	beqz	s8,100186a <__spl_start+0x1182>
 10018dc:	86ee                	mv	a3,s11
 10018de:	8656                	mv	a2,s5
 10018e0:	85de                	mv	a1,s7
 10018e2:	8552                	mv	a0,s4
 10018e4:	b3dff0ef          	jal	ra,1001420 <__spl_start+0xd38>
 10018e8:	f80541e3          	bltz	a0,100186a <__spl_start+0x1182>
 10018ec:	8656                	mv	a2,s5
 10018ee:	85de                	mv	a1,s7
 10018f0:	8552                	mv	a0,s4
 10018f2:	b85ff0ef          	jal	ra,1001476 <__spl_start+0xd8e>
 10018f6:	6346                	ld	t1,80(sp)
 10018f8:	6e0a                	ld	t3,128(sp)
 10018fa:	477a                	lw	a4,156(sp)
 10018fc:	67aa                	ld	a5,136(sp)
 10018fe:	85aa                	mv	a1,a0
 1001900:	ec2a                	sd	a0,24(sp)
 1001902:	6566                	ld	a0,88(sp)
 1001904:	4681                	li	a3,0
 1001906:	00008617          	auipc	a2,0x8
 100190a:	bfa60613          	addi	a2,a2,-1030 # 1009500 <__spl_start+0x8e18>
 100190e:	fc1a                	sd	t1,56(sp)
 1001910:	f872                	sd	t3,48(sp)
 1001912:	f43a                	sd	a4,40(sp)
 1001914:	f03e                	sd	a5,32(sp)
 1001916:	4eb010ef          	jal	ra,1003600 <__spl_start+0x2f18>
 100191a:	65e2                	ld	a1,24(sp)
 100191c:	e82a                	sd	a0,16(sp)
 100191e:	6566                	ld	a0,88(sp)
 1001920:	4681                	li	a3,0
 1001922:	00008617          	auipc	a2,0x8
 1001926:	be660613          	addi	a2,a2,-1050 # 1009508 <__spl_start+0x8e20>
 100192a:	4d7010ef          	jal	ra,1003600 <__spl_start+0x2f18>
 100192e:	7e42                	ld	t3,48(sp)
 1001930:	7362                	ld	t1,56(sp)
 1001932:	6842                	ld	a6,16(sp)
 1001934:	7782                	ld	a5,32(sp)
 1001936:	7722                	ld	a4,40(sp)
 1001938:	88aa                	mv	a7,a0
 100193a:	86f2                	mv	a3,t3
 100193c:	861a                	mv	a2,t1
 100193e:	85d6                	mv	a1,s5
 1001940:	8562                	mv	a0,s8
 1001942:	534000ef          	jal	ra,1001e76 <__spl_start+0x178e>
 1001946:	b715                	j	100186a <__spl_start+0x1182>
 1001948:	6c1c                	ld	a5,24(s0)
 100194a:	5775                	li	a4,-3
 100194c:	17fd                	addi	a5,a5,-1
 100194e:	00f77463          	bgeu	a4,a5,1001956 <__spl_start+0x126e>
 1001952:	681c                	ld	a5,16(s0)
 1001954:	ec1c                	sd	a5,24(s0)
 1001956:	581c                	lw	a5,48(s0)
 1001958:	0027e793          	ori	a5,a5,2
 100195c:	d81c                	sw	a5,48(s0)
 100195e:	b515                	j	1001782 <__spl_start+0x109a>
 1001960:	715d                	addi	sp,sp,-80
 1001962:	e486                	sd	ra,72(sp)
 1001964:	e0a2                	sd	s0,64(sp)
 1001966:	fc26                	sd	s1,56(sp)
 1001968:	f84a                	sd	s2,48(sp)
 100196a:	f44e                	sd	s3,40(sp)
 100196c:	7100                	ld	s0,32(a0)
 100196e:	e809                	bnez	s0,1001980 <__spl_start+0x1298>
 1001970:	00008517          	auipc	a0,0x8
 1001974:	a3850513          	addi	a0,a0,-1480 # 10093a8 <__spl_start+0x8cc0>
 1001978:	715020ef          	jal	ra,100488c <__spl_start+0x41a4>
 100197c:	157020ef          	jal	ra,10042d2 <__spl_start+0x3bea>
 1001980:	00008597          	auipc	a1,0x8
 1001984:	a5058593          	addi	a1,a1,-1456 # 10093d0 <__spl_start+0x8ce8>
 1001988:	84aa                	mv	s1,a0
 100198a:	8522                	mv	a0,s0
 100198c:	585010ef          	jal	ra,1003710 <__spl_start+0x3028>
 1001990:	85aa                	mv	a1,a0
 1001992:	00055a63          	bgez	a0,10019a6 <__spl_start+0x12be>
 1001996:	55b5                	li	a1,-19
 1001998:	00008517          	auipc	a0,0x8
 100199c:	a4850513          	addi	a0,a0,-1464 # 10093e0 <__spl_start+0x8cf8>
 10019a0:	6ed020ef          	jal	ra,100488c <__spl_start+0x41a4>
 10019a4:	bfe1                	j	100197c <__spl_start+0x1294>
 10019a6:	8522                	mv	a0,s0
 10019a8:	6f0010ef          	jal	ra,1003098 <__spl_start+0x29b0>
 10019ac:	85aa                	mv	a1,a0
 10019ae:	00008917          	auipc	s2,0x8
 10019b2:	b5a90913          	addi	s2,s2,-1190 # 1009508 <__spl_start+0x8e20>
 10019b6:	49c5                	li	s3,17
 10019b8:	fc05cfe3          	bltz	a1,1001996 <__spl_start+0x12ae>
 10019bc:	4681                	li	a3,0
 10019be:	864a                	mv	a2,s2
 10019c0:	8522                	mv	a0,s0
 10019c2:	e02e                	sd	a1,0(sp)
 10019c4:	43d010ef          	jal	ra,1003600 <__spl_start+0x2f18>
 10019c8:	6582                	ld	a1,0(sp)
 10019ca:	16050563          	beqz	a0,1001b34 <__spl_start+0x144c>
 10019ce:	236010ef          	jal	ra,1002c04 <__spl_start+0x251c>
 10019d2:	6582                	ld	a1,0(sp)
 10019d4:	17351063          	bne	a0,s3,1001b34 <__spl_start+0x144c>
 10019d8:	7088                	ld	a0,32(s1)
 10019da:	0830                	addi	a2,sp,24
 10019dc:	e432                	sd	a2,8(sp)
 10019de:	30a010ef          	jal	ra,1002ce8 <__spl_start+0x2600>
 10019e2:	6582                	ld	a1,0(sp)
 10019e4:	6622                	ld	a2,8(sp)
 10019e6:	c501                	beqz	a0,10019ee <__spl_start+0x1306>
 10019e8:	7088                	ld	a0,32(s1)
 10019ea:	2f2010ef          	jal	ra,1002cdc <__spl_start+0x25f4>
 10019ee:	0000a417          	auipc	s0,0xa
 10019f2:	8d243403          	ld	s0,-1838(s0) # 100b2c0 <__spl_start+0xabd8>
 10019f6:	04f00793          	li	a5,79
 10019fa:	00f40023          	sb	a5,0(s0)
 10019fe:	05300793          	li	a5,83
 1001a02:	00f400a3          	sb	a5,1(s0)
 1001a06:	04200793          	li	a5,66
 1001a0a:	00f40123          	sb	a5,2(s0)
 1001a0e:	04900793          	li	a5,73
 1001a12:	00f401a3          	sb	a5,3(s0)
 1001a16:	67e2                	ld	a5,24(sp)
 1001a18:	4709                	li	a4,2
 1001a1a:	00e40423          	sb	a4,8(s0)
 1001a1e:	0087d693          	srli	a3,a5,0x8
 1001a22:	00d408a3          	sb	a3,17(s0)
 1001a26:	0107d693          	srli	a3,a5,0x10
 1001a2a:	00d40923          	sb	a3,18(s0)
 1001a2e:	0187d69b          	srliw	a3,a5,0x18
 1001a32:	00d409a3          	sb	a3,19(s0)
 1001a36:	0207d693          	srli	a3,a5,0x20
 1001a3a:	00d40a23          	sb	a3,20(s0)
 1001a3e:	0287d693          	srli	a3,a5,0x28
 1001a42:	00f40823          	sb	a5,16(s0)
 1001a46:	00d40aa3          	sb	a3,21(s0)
 1001a4a:	0307d693          	srli	a3,a5,0x30
 1001a4e:	93e1                	srli	a5,a5,0x38
 1001a50:	00f40ba3          	sb	a5,23(s0)
 1001a54:	4785                	li	a5,1
 1001a56:	00d40b23          	sb	a3,22(s0)
 1001a5a:	00f40c23          	sb	a5,24(s0)
 1001a5e:	00040223          	sb	zero,4(s0)
 1001a62:	000402a3          	sb	zero,5(s0)
 1001a66:	00040323          	sb	zero,6(s0)
 1001a6a:	000403a3          	sb	zero,7(s0)
 1001a6e:	000404a3          	sb	zero,9(s0)
 1001a72:	00040523          	sb	zero,10(s0)
 1001a76:	000405a3          	sb	zero,11(s0)
 1001a7a:	00040623          	sb	zero,12(s0)
 1001a7e:	000406a3          	sb	zero,13(s0)
 1001a82:	00040723          	sb	zero,14(s0)
 1001a86:	000407a3          	sb	zero,15(s0)
 1001a8a:	00040ca3          	sb	zero,25(s0)
 1001a8e:	00040d23          	sb	zero,26(s0)
 1001a92:	00040da3          	sb	zero,27(s0)
 1001a96:	00040e23          	sb	zero,28(s0)
 1001a9a:	00040ea3          	sb	zero,29(s0)
 1001a9e:	00040f23          	sb	zero,30(s0)
 1001aa2:	00040fa3          	sb	zero,31(s0)
 1001aa6:	1401b783          	ld	a5,320(gp)
 1001aaa:	02e40023          	sb	a4,32(s0)
 1001aae:	020400a3          	sb	zero,33(s0)
 1001ab2:	0087d713          	srli	a4,a5,0x8
 1001ab6:	02e404a3          	sb	a4,41(s0)
 1001aba:	0107d713          	srli	a4,a5,0x10
 1001abe:	02e40523          	sb	a4,42(s0)
 1001ac2:	0187d71b          	srliw	a4,a5,0x18
 1001ac6:	02e405a3          	sb	a4,43(s0)
 1001aca:	0207d713          	srli	a4,a5,0x20
 1001ace:	02e40623          	sb	a4,44(s0)
 1001ad2:	0287d713          	srli	a4,a5,0x28
 1001ad6:	02f40423          	sb	a5,40(s0)
 1001ada:	02e406a3          	sb	a4,45(s0)
 1001ade:	0307d713          	srli	a4,a5,0x30
 1001ae2:	93e1                	srli	a5,a5,0x38
 1001ae4:	02040123          	sb	zero,34(s0)
 1001ae8:	020401a3          	sb	zero,35(s0)
 1001aec:	02040223          	sb	zero,36(s0)
 1001af0:	020402a3          	sb	zero,37(s0)
 1001af4:	02040323          	sb	zero,38(s0)
 1001af8:	020403a3          	sb	zero,39(s0)
 1001afc:	02e40723          	sb	a4,46(s0)
 1001b00:	02f407a3          	sb	a5,47(s0)
 1001b04:	0184b903          	ld	s2,24(s1)
 1001b08:	fb3fe0ef          	jal	ra,1000aba <__spl_start+0x3d2>
 1001b0c:	708c                	ld	a1,32(s1)
 1001b0e:	6c88                	ld	a0,24(s1)
 1001b10:	4685                	li	a3,1
 1001b12:	8622                	mv	a2,s0
 1001b14:	9c4ff0ef          	jal	ra,1000cd8 <__spl_start+0x5f0>
 1001b18:	e60512e3          	bnez	a0,100197c <__spl_start+0x1294>
 1001b1c:	708c                	ld	a1,32(s1)
 1001b1e:	1401b503          	ld	a0,320(gp)
 1001b22:	8622                	mv	a2,s0
 1001b24:	9902                	jalr	s2
 1001b26:	60a6                	ld	ra,72(sp)
 1001b28:	6406                	ld	s0,64(sp)
 1001b2a:	74e2                	ld	s1,56(sp)
 1001b2c:	7942                	ld	s2,48(sp)
 1001b2e:	79a2                	ld	s3,40(sp)
 1001b30:	6161                	addi	sp,sp,80
 1001b32:	8082                	ret
 1001b34:	8522                	mv	a0,s0
 1001b36:	582010ef          	jal	ra,10030b8 <__spl_start+0x29d0>
 1001b3a:	85aa                	mv	a1,a0
 1001b3c:	bdb5                	j	10019b8 <__spl_start+0x12d0>
 1001b3e:	1141                	addi	sp,sp,-16
 1001b40:	e022                	sd	s0,0(sp)
 1001b42:	e406                	sd	ra,8(sp)
 1001b44:	611c                	ld	a5,0(a0)
 1001b46:	2581                	sext.w	a1,a1
 1001b48:	8432                	mv	s0,a2
 1001b4a:	1887b503          	ld	a0,392(a5)
 1001b4e:	064040ef          	jal	ra,1005bb2 <__spl_start+0x54ca>
 1001b52:	c111                	beqz	a0,1001b56 <__spl_start+0x146e>
 1001b54:	4401                	li	s0,0
 1001b56:	60a2                	ld	ra,8(sp)
 1001b58:	8522                	mv	a0,s0
 1001b5a:	6402                	ld	s0,0(sp)
 1001b5c:	0141                	addi	sp,sp,16
 1001b5e:	8082                	ret
 1001b60:	4501                	li	a0,0
 1001b62:	8082                	ret
 1001b64:	7159                	addi	sp,sp,-112
 1001b66:	000f4637          	lui	a2,0xf4
 1001b6a:	eca6                	sd	s1,88(sp)
 1001b6c:	468d                	li	a3,3
 1001b6e:	84aa                	mv	s1,a0
 1001b70:	24060613          	addi	a2,a2,576 # f4240 <_start-0xf0bdc0>
 1001b74:	4581                	li	a1,0
 1001b76:	4501                	li	a0,0
 1001b78:	f486                	sd	ra,104(sp)
 1001b7a:	f0a2                	sd	s0,96(sp)
 1001b7c:	e8ca                	sd	s2,80(sp)
 1001b7e:	e4ce                	sd	s3,72(sp)
 1001b80:	07c040ef          	jal	ra,1005bfc <__spl_start+0x5514>
 1001b84:	ed19                	bnez	a0,1001ba2 <__spl_start+0x14ba>
 1001b86:	00008517          	auipc	a0,0x8
 1001b8a:	99250513          	addi	a0,a0,-1646 # 1009518 <__spl_start+0x8e30>
 1001b8e:	60c000ef          	jal	ra,100219a <__spl_start+0x1ab2>
 1001b92:	5535                	li	a0,-19
 1001b94:	70a6                	ld	ra,104(sp)
 1001b96:	7406                	ld	s0,96(sp)
 1001b98:	64e6                	ld	s1,88(sp)
 1001b9a:	6946                	ld	s2,80(sp)
 1001b9c:	69a6                	ld	s3,72(sp)
 1001b9e:	6165                	addi	sp,sp,112
 1001ba0:	8082                	ret
 1001ba2:	00009317          	auipc	t1,0x9
 1001ba6:	77633303          	ld	t1,1910(t1) # 100b318 <__spl_start+0xac30>
 1001baa:	842a                	mv	s0,a0
 1001bac:	9302                	jalr	t1
 1001bae:	0005061b          	sext.w	a2,a0
 1001bb2:	04000593          	li	a1,64
 1001bb6:	fc000513          	li	a0,-64
 1001bba:	e432                	sd	a2,8(sp)
 1001bbc:	dd4ff0ef          	jal	ra,1001190 <__spl_start+0xaa8>
 1001bc0:	6622                	ld	a2,8(sp)
 1001bc2:	892a                	mv	s2,a0
 1001bc4:	0d81b503          	ld	a0,216(gp)
 1001bc8:	00008597          	auipc	a1,0x8
 1001bcc:	96858593          	addi	a1,a1,-1688 # 1009530 <__spl_start+0x8e48>
 1001bd0:	564020ef          	jal	ra,1004134 <__spl_start+0x3a4c>
 1001bd4:	0005099b          	sext.w	s3,a0
 1001bd8:	18843503          	ld	a0,392(s0)
 1001bdc:	86ca                	mv	a3,s2
 1001bde:	04000613          	li	a2,64
 1001be2:	85ce                	mv	a1,s3
 1001be4:	7cf030ef          	jal	ra,1005bb2 <__spl_start+0x54ca>
 1001be8:	f555                	bnez	a0,1001b94 <__spl_start+0x14ac>
 1001bea:	00092703          	lw	a4,0(s2)
 1001bee:	00ff0637          	lui	a2,0xff0
 1001bf2:	0187569b          	srliw	a3,a4,0x18
 1001bf6:	0187179b          	slliw	a5,a4,0x18
 1001bfa:	8fd5                	or	a5,a5,a3
 1001bfc:	0087169b          	slliw	a3,a4,0x8
 1001c00:	8ef1                	and	a3,a3,a2
 1001c02:	8fd5                	or	a5,a5,a3
 1001c04:	66c1                	lui	a3,0x10
 1001c06:	0087571b          	srliw	a4,a4,0x8
 1001c0a:	f0068693          	addi	a3,a3,-256 # ff00 <_start-0xff0100>
 1001c0e:	8f75                	and	a4,a4,a3
 1001c10:	8fd9                	or	a5,a5,a4
 1001c12:	d00e0737          	lui	a4,0xd00e0
 1001c16:	2781                	sext.w	a5,a5
 1001c18:	eed70713          	addi	a4,a4,-275 # ffffffffd00dfeed <__soc_ctrl_scratch1+0xffffffffce0dfed5>
 1001c1c:	02e79563          	bne	a5,a4,1001c46 <__spl_start+0x155e>
 1001c20:	4785                	li	a5,1
 1001c22:	02099613          	slli	a2,s3,0x20
 1001c26:	d43e                	sw	a5,40(sp)
 1001c28:	86ca                	mv	a3,s2
 1001c2a:	00000797          	auipc	a5,0x0
 1001c2e:	f1478793          	addi	a5,a5,-236 # 1001b3e <__spl_start+0x1456>
 1001c32:	9201                	srli	a2,a2,0x20
 1001c34:	082c                	addi	a1,sp,24
 1001c36:	8526                	mv	a0,s1
 1001c38:	ec22                	sd	s0,24(sp)
 1001c3a:	f002                	sd	zero,32(sp)
 1001c3c:	f802                	sd	zero,48(sp)
 1001c3e:	fc3e                	sd	a5,56(sp)
 1001c40:	a67ff0ef          	jal	ra,10016a6 <__spl_start+0xfbe>
 1001c44:	bf81                	j	1001b94 <__spl_start+0x14ac>
 1001c46:	85ca                	mv	a1,s2
 1001c48:	8526                	mv	a0,s1
 1001c4a:	d8aff0ef          	jal	ra,10011d4 <__spl_start+0xaec>
 1001c4e:	f139                	bnez	a0,1001b94 <__spl_start+0x14ac>
 1001c50:	18843503          	ld	a0,392(s0)
 1001c54:	7406                	ld	s0,96(sp)
 1001c56:	6894                	ld	a3,16(s1)
 1001c58:	02c4e603          	lwu	a2,44(s1)
 1001c5c:	70a6                	ld	ra,104(sp)
 1001c5e:	64e6                	ld	s1,88(sp)
 1001c60:	6946                	ld	s2,80(sp)
 1001c62:	85ce                	mv	a1,s3
 1001c64:	69a6                	ld	s3,72(sp)
 1001c66:	6165                	addi	sp,sp,112
 1001c68:	74b0306f          	j	1005bb2 <__spl_start+0x54ca>
 1001c6c:	47a5                	li	a5,9
 1001c6e:	07f2                	slli	a5,a5,0x1c
 1001c70:	1141                	addi	sp,sp,-16
 1001c72:	95be                	add	a1,a1,a5
 1001c74:	8536                	mv	a0,a3
 1001c76:	e022                	sd	s0,0(sp)
 1001c78:	e406                	sd	ra,8(sp)
 1001c7a:	8432                	mv	s0,a2
 1001c7c:	bccff0ef          	jal	ra,1001048 <__spl_start+0x960>
 1001c80:	60a2                	ld	ra,8(sp)
 1001c82:	8522                	mv	a0,s0
 1001c84:	6402                	ld	s0,0(sp)
 1001c86:	0141                	addi	sp,sp,16
 1001c88:	8082                	ret
 1001c8a:	7139                	addi	sp,sp,-64
 1001c8c:	46a5                	li	a3,9
 1001c8e:	fc06                	sd	ra,56(sp)
 1001c90:	f822                	sd	s0,48(sp)
 1001c92:	06f2                	slli	a3,a3,0x1c
 1001c94:	4298                	lw	a4,0(a3)
 1001c96:	00ff05b7          	lui	a1,0xff0
 1001c9a:	0187561b          	srliw	a2,a4,0x18
 1001c9e:	0187179b          	slliw	a5,a4,0x18
 1001ca2:	8fd1                	or	a5,a5,a2
 1001ca4:	0087161b          	slliw	a2,a4,0x8
 1001ca8:	8e6d                	and	a2,a2,a1
 1001caa:	8fd1                	or	a5,a5,a2
 1001cac:	6641                	lui	a2,0x10
 1001cae:	0087571b          	srliw	a4,a4,0x8
 1001cb2:	f0060613          	addi	a2,a2,-256 # ff00 <_start-0xff0100>
 1001cb6:	8f71                	and	a4,a4,a2
 1001cb8:	8fd9                	or	a5,a5,a4
 1001cba:	d00e0737          	lui	a4,0xd00e0
 1001cbe:	2781                	sext.w	a5,a5
 1001cc0:	eed70713          	addi	a4,a4,-275 # ffffffffd00dfeed <__soc_ctrl_scratch1+0xffffffffce0dfed5>
 1001cc4:	02e79263          	bne	a5,a4,1001ce8 <__spl_start+0x1600>
 1001cc8:	4785                	li	a5,1
 1001cca:	cc3e                	sw	a5,24(sp)
 1001ccc:	4601                	li	a2,0
 1001cce:	00000797          	auipc	a5,0x0
 1001cd2:	f9e78793          	addi	a5,a5,-98 # 1001c6c <__spl_start+0x1584>
 1001cd6:	002c                	addi	a1,sp,8
 1001cd8:	f43e                	sd	a5,40(sp)
 1001cda:	9cdff0ef          	jal	ra,10016a6 <__spl_start+0xfbe>
 1001cde:	70e2                	ld	ra,56(sp)
 1001ce0:	7442                	ld	s0,48(sp)
 1001ce2:	4501                	li	a0,0
 1001ce4:	6121                	addi	sp,sp,64
 1001ce6:	8082                	ret
 1001ce8:	00009797          	auipc	a5,0x9
 1001cec:	6a07b783          	ld	a5,1696(a5) # 100b388 <__spl_start+0xaca0>
 1001cf0:	638c                	ld	a1,0(a5)
 1001cf2:	57fd                	li	a5,-1
 1001cf4:	842a                	mv	s0,a0
 1001cf6:	00f59963          	bne	a1,a5,1001d08 <__spl_start+0x1620>
 1001cfa:	04000593          	li	a1,64
 1001cfe:	fc000513          	li	a0,-64
 1001d02:	c8eff0ef          	jal	ra,1001190 <__spl_start+0xaa8>
 1001d06:	85aa                	mv	a1,a0
 1001d08:	8522                	mv	a0,s0
 1001d0a:	ccaff0ef          	jal	ra,10011d4 <__spl_start+0xaec>
 1001d0e:	bfc1                	j	1001cde <__spl_start+0x15f6>
 1001d10:	81aa                	mv	gp,a0
 1001d12:	8082                	ret
 1001d14:	77f5                	lui	a5,0xffffd
 1001d16:	d7078793          	addi	a5,a5,-656 # ffffffffffffcd70 <__soc_ctrl_scratch1+0xfffffffffdffcd58>
 1001d1a:	953e                	add	a0,a0,a5
 1001d1c:	9941                	andi	a0,a0,-16
 1001d1e:	8082                	ret
 1001d20:	1141                	addi	sp,sp,-16
 1001d22:	29000613          	li	a2,656
 1001d26:	4581                	li	a1,0
 1001d28:	e406                	sd	ra,8(sp)
 1001d2a:	e022                	sd	s0,0(sp)
 1001d2c:	842a                	mv	s0,a0
 1001d2e:	97aff0ef          	jal	ra,1000ea8 <__spl_start+0x7c0>
 1001d32:	8522                	mv	a0,s0
 1001d34:	00009317          	auipc	t1,0x9
 1001d38:	62c33303          	ld	t1,1580(t1) # 100b360 <__spl_start+0xac78>
 1001d3c:	9302                	jalr	t1
 1001d3e:	29040413          	addi	s0,s0,656
 1001d42:	1281b023          	sd	s0,288(gp)
 1001d46:	60a2                	ld	ra,8(sp)
 1001d48:	6402                	ld	s0,0(sp)
 1001d4a:	0141                	addi	sp,sp,16
 1001d4c:	8082                	ret
 1001d4e:	7159                	addi	sp,sp,-112
 1001d50:	00006597          	auipc	a1,0x6
 1001d54:	1b058593          	addi	a1,a1,432 # 1007f00 <__spl_start+0x7818>
 1001d58:	eca6                	sd	s1,88(sp)
 1001d5a:	f486                	sd	ra,104(sp)
 1001d5c:	f0a2                	sd	s0,96(sp)
 1001d5e:	e8ca                	sd	s2,80(sp)
 1001d60:	e4ce                	sd	s3,72(sp)
 1001d62:	e0d2                	sd	s4,64(sp)
 1001d64:	fc56                	sd	s5,56(sp)
 1001d66:	f85a                	sd	s6,48(sp)
 1001d68:	f45e                	sd	s7,40(sp)
 1001d6a:	84aa                	mv	s1,a0
 1001d6c:	1a5010ef          	jal	ra,1003710 <__spl_start+0x3028>
 1001d70:	06054d63          	bltz	a0,1001dea <__spl_start+0x1702>
 1001d74:	01c10a93          	addi	s5,sp,28
 1001d78:	85aa                	mv	a1,a0
 1001d7a:	86d6                	mv	a3,s5
 1001d7c:	00006617          	auipc	a2,0x6
 1001d80:	19460613          	addi	a2,a2,404 # 1007f10 <__spl_start+0x7828>
 1001d84:	e42a                	sd	a0,8(sp)
 1001d86:	8526                	mv	a0,s1
 1001d88:	079010ef          	jal	ra,1003600 <__spl_start+0x2f18>
 1001d8c:	65a2                	ld	a1,8(sp)
 1001d8e:	89aa                	mv	s3,a0
 1001d90:	8526                	mv	a0,s1
 1001d92:	306010ef          	jal	ra,1003098 <__spl_start+0x29b0>
 1001d96:	842a                	mv	s0,a0
 1001d98:	5979                	li	s2,-2
 1001d9a:	00006b17          	auipc	s6,0x6
 1001d9e:	17eb0b13          	addi	s6,s6,382 # 1007f18 <__spl_start+0x7830>
 1001da2:	00009b97          	auipc	s7,0x9
 1001da6:	61ebbb83          	ld	s7,1566(s7) # 100b3c0 <__spl_start+0xacd8>
 1001daa:	00045e63          	bgez	s0,1001dc6 <__spl_start+0x16de>
 1001dae:	70a6                	ld	ra,104(sp)
 1001db0:	7406                	ld	s0,96(sp)
 1001db2:	64e6                	ld	s1,88(sp)
 1001db4:	69a6                	ld	s3,72(sp)
 1001db6:	6a06                	ld	s4,64(sp)
 1001db8:	7ae2                	ld	s5,56(sp)
 1001dba:	7b42                	ld	s6,48(sp)
 1001dbc:	7ba2                	ld	s7,40(sp)
 1001dbe:	854a                	mv	a0,s2
 1001dc0:	6946                	ld	s2,80(sp)
 1001dc2:	6165                	addi	sp,sp,112
 1001dc4:	8082                	ret
 1001dc6:	86d6                	mv	a3,s5
 1001dc8:	865a                	mv	a2,s6
 1001dca:	85a2                	mv	a1,s0
 1001dcc:	8526                	mv	a0,s1
 1001dce:	033010ef          	jal	ra,1003600 <__spl_start+0x2f18>
 1001dd2:	8a2a                	mv	s4,a0
 1001dd4:	ed09                	bnez	a0,1001dee <__spl_start+0x1706>
 1001dd6:	00006597          	auipc	a1,0x6
 1001dda:	bf258593          	addi	a1,a1,-1038 # 10079c8 <__spl_start+0x72e0>
 1001dde:	00006517          	auipc	a0,0x6
 1001de2:	14a50513          	addi	a0,a0,330 # 1007f28 <__spl_start+0x7840>
 1001de6:	2a7020ef          	jal	ra,100488c <__spl_start+0x41a4>
 1001dea:	5929                	li	s2,-22
 1001dec:	b7c9                	j	1001dae <__spl_start+0x16c6>
 1001dee:	00098d63          	beqz	s3,1001e08 <__spl_start+0x1720>
 1001df2:	85a2                	mv	a1,s0
 1001df4:	4601                	li	a2,0
 1001df6:	8526                	mv	a0,s1
 1001df8:	5ae010ef          	jal	ra,10033a6 <__spl_start+0x2cbe>
 1001dfc:	85aa                	mv	a1,a0
 1001dfe:	854e                	mv	a0,s3
 1001e00:	570020ef          	jal	ra,1004370 <__spl_start+0x3c88>
 1001e04:	e111                	bnez	a0,1001e08 <__spl_start+0x1720>
 1001e06:	8922                	mv	s2,s0
 1001e08:	8552                	mv	a0,s4
 1001e0a:	9b82                	jalr	s7
 1001e0c:	c519                	beqz	a0,1001e1a <__spl_start+0x1732>
 1001e0e:	85a2                	mv	a1,s0
 1001e10:	8526                	mv	a0,s1
 1001e12:	2a6010ef          	jal	ra,10030b8 <__spl_start+0x29d0>
 1001e16:	842a                	mv	s0,a0
 1001e18:	bf49                	j	1001daa <__spl_start+0x16c2>
 1001e1a:	8922                	mv	s2,s0
 1001e1c:	bf49                	j	1001dae <__spl_start+0x16c6>
 1001e1e:	7179                	addi	sp,sp,-48
 1001e20:	ec26                	sd	s1,24(sp)
 1001e22:	e84a                	sd	s2,16(sp)
 1001e24:	e44e                	sd	s3,8(sp)
 1001e26:	f406                	sd	ra,40(sp)
 1001e28:	f022                	sd	s0,32(sp)
 1001e2a:	892a                	mv	s2,a0
 1001e2c:	89ae                	mv	s3,a1
 1001e2e:	84b2                	mv	s1,a2
 1001e30:	666010ef          	jal	ra,1003496 <__spl_start+0x2dae>
 1001e34:	57fd                	li	a5,-1
 1001e36:	00f51763          	bne	a0,a5,1001e44 <__spl_start+0x175c>
 1001e3a:	8626                	mv	a2,s1
 1001e3c:	85ce                	mv	a1,s3
 1001e3e:	854a                	mv	a0,s2
 1001e40:	0c4020ef          	jal	ra,1003f04 <__spl_start+0x381c>
 1001e44:	842a                	mv	s0,a0
 1001e46:	02055063          	bgez	a0,1001e66 <__spl_start+0x177e>
 1001e4a:	0e7010ef          	jal	ra,1003730 <__spl_start+0x3048>
 1001e4e:	86aa                	mv	a3,a0
 1001e50:	8626                	mv	a2,s1
 1001e52:	00006597          	auipc	a1,0x6
 1001e56:	bce58593          	addi	a1,a1,-1074 # 1007a20 <__spl_start+0x7338>
 1001e5a:	00006517          	auipc	a0,0x6
 1001e5e:	f5650513          	addi	a0,a0,-170 # 1007db0 <__spl_start+0x76c8>
 1001e62:	22b020ef          	jal	ra,100488c <__spl_start+0x41a4>
 1001e66:	70a2                	ld	ra,40(sp)
 1001e68:	8522                	mv	a0,s0
 1001e6a:	7402                	ld	s0,32(sp)
 1001e6c:	64e2                	ld	s1,24(sp)
 1001e6e:	6942                	ld	s2,16(sp)
 1001e70:	69a2                	ld	s3,8(sp)
 1001e72:	6145                	addi	sp,sp,48
 1001e74:	8082                	ret
 1001e76:	7159                	addi	sp,sp,-112
 1001e78:	eca6                	sd	s1,88(sp)
 1001e7a:	e8ca                	sd	s2,80(sp)
 1001e7c:	e4ce                	sd	s3,72(sp)
 1001e7e:	e0d2                	sd	s4,64(sp)
 1001e80:	fc56                	sd	s5,56(sp)
 1001e82:	f85a                	sd	s6,48(sp)
 1001e84:	f45e                	sd	s7,40(sp)
 1001e86:	f486                	sd	ra,104(sp)
 1001e88:	f0a2                	sd	s0,96(sp)
 1001e8a:	f062                	sd	s8,32(sp)
 1001e8c:	89aa                	mv	s3,a0
 1001e8e:	8bb2                	mv	s7,a2
 1001e90:	8b36                	mv	s6,a3
 1001e92:	893a                	mv	s2,a4
 1001e94:	84be                	mv	s1,a5
 1001e96:	8ac2                	mv	s5,a6
 1001e98:	8a46                	mv	s4,a7
 1001e9a:	77f000ef          	jal	ra,1002e18 <__spl_start+0x2730>
 1001e9e:	02055d63          	bgez	a0,1001ed8 <__spl_start+0x17f0>
 1001ea2:	842a                	mv	s0,a0
 1001ea4:	08d010ef          	jal	ra,1003730 <__spl_start+0x3048>
 1001ea8:	862a                	mv	a2,a0
 1001eaa:	00006597          	auipc	a1,0x6
 1001eae:	b5e58593          	addi	a1,a1,-1186 # 1007a08 <__spl_start+0x7320>
 1001eb2:	00006517          	auipc	a0,0x6
 1001eb6:	f6650513          	addi	a0,a0,-154 # 1007e18 <__spl_start+0x7730>
 1001eba:	1d3020ef          	jal	ra,100488c <__spl_start+0x41a4>
 1001ebe:	70a6                	ld	ra,104(sp)
 1001ec0:	8522                	mv	a0,s0
 1001ec2:	7406                	ld	s0,96(sp)
 1001ec4:	64e6                	ld	s1,88(sp)
 1001ec6:	6946                	ld	s2,80(sp)
 1001ec8:	69a6                	ld	s3,72(sp)
 1001eca:	6a06                	ld	s4,64(sp)
 1001ecc:	7ae2                	ld	s5,56(sp)
 1001ece:	7b42                	ld	s6,48(sp)
 1001ed0:	7ba2                	ld	s7,40(sp)
 1001ed2:	7c02                	ld	s8,32(sp)
 1001ed4:	6165                	addi	sp,sp,112
 1001ed6:	8082                	ret
 1001ed8:	00006617          	auipc	a2,0x6
 1001edc:	f9060613          	addi	a2,a2,-112 # 1007e68 <__spl_start+0x7780>
 1001ee0:	4581                	li	a1,0
 1001ee2:	854e                	mv	a0,s3
 1001ee4:	f3bff0ef          	jal	ra,1001e1e <__spl_start+0x1736>
 1001ee8:	842a                	mv	s0,a0
 1001eea:	fc054ae3          	bltz	a0,1001ebe <__spl_start+0x17d6>
 1001eee:	85aa                	mv	a1,a0
 1001ef0:	865e                	mv	a2,s7
 1001ef2:	854e                	mv	a0,s3
 1001ef4:	f2bff0ef          	jal	ra,1001e1e <__spl_start+0x1736>
 1001ef8:	842a                	mv	s0,a0
 1001efa:	fc0542e3          	bltz	a0,1001ebe <__spl_start+0x17d6>
 1001efe:	018b571b          	srliw	a4,s6,0x18
 1001f02:	018b179b          	slliw	a5,s6,0x18
 1001f06:	8fd9                	or	a5,a5,a4
 1001f08:	00ff0bb7          	lui	s7,0xff0
 1001f0c:	008b171b          	slliw	a4,s6,0x8
 1001f10:	420b5693          	srai	a3,s6,0x20
 1001f14:	01777733          	and	a4,a4,s7
 1001f18:	0186d61b          	srliw	a2,a3,0x18
 1001f1c:	8fd9                	or	a5,a5,a4
 1001f1e:	0186971b          	slliw	a4,a3,0x18
 1001f22:	8f51                	or	a4,a4,a2
 1001f24:	6c41                	lui	s8,0x10
 1001f26:	0086961b          	slliw	a2,a3,0x8
 1001f2a:	f00c0c13          	addi	s8,s8,-256 # ff00 <_start-0xff0100>
 1001f2e:	01767633          	and	a2,a2,s7
 1001f32:	0086d69b          	srliw	a3,a3,0x8
 1001f36:	8f51                	or	a4,a4,a2
 1001f38:	0186f6b3          	and	a3,a3,s8
 1001f3c:	008b5b1b          	srliw	s6,s6,0x8
 1001f40:	8f55                	or	a4,a4,a3
 1001f42:	018b7b33          	and	s6,s6,s8
 1001f46:	0167e7b3          	or	a5,a5,s6
 1001f4a:	1702                	slli	a4,a4,0x20
 1001f4c:	9301                	srli	a4,a4,0x20
 1001f4e:	1782                	slli	a5,a5,0x20
 1001f50:	8fd9                	or	a5,a5,a4
 1001f52:	0834                	addi	a3,sp,24
 1001f54:	85aa                	mv	a1,a0
 1001f56:	4721                	li	a4,8
 1001f58:	00006617          	auipc	a2,0x6
 1001f5c:	f2060613          	addi	a2,a2,-224 # 1007e78 <__spl_start+0x7790>
 1001f60:	854e                	mv	a0,s3
 1001f62:	ec3e                	sd	a5,24(sp)
 1001f64:	e436                	sd	a3,8(sp)
 1001f66:	697010ef          	jal	ra,1003dfc <__spl_start+0x3714>
 1001f6a:	57fd                	li	a5,-1
 1001f6c:	66a2                	ld	a3,8(sp)
 1001f6e:	06f48163          	beq	s1,a5,1001fd0 <__spl_start+0x18e8>
 1001f72:	0184d71b          	srliw	a4,s1,0x18
 1001f76:	0184979b          	slliw	a5,s1,0x18
 1001f7a:	8fd9                	or	a5,a5,a4
 1001f7c:	0084971b          	slliw	a4,s1,0x8
 1001f80:	4204d613          	srai	a2,s1,0x20
 1001f84:	01777733          	and	a4,a4,s7
 1001f88:	0186559b          	srliw	a1,a2,0x18
 1001f8c:	8fd9                	or	a5,a5,a4
 1001f8e:	0186171b          	slliw	a4,a2,0x18
 1001f92:	8f4d                	or	a4,a4,a1
 1001f94:	0086159b          	slliw	a1,a2,0x8
 1001f98:	0175f5b3          	and	a1,a1,s7
 1001f9c:	0086561b          	srliw	a2,a2,0x8
 1001fa0:	8f4d                	or	a4,a4,a1
 1001fa2:	01867633          	and	a2,a2,s8
 1001fa6:	0084d49b          	srliw	s1,s1,0x8
 1001faa:	8f51                	or	a4,a4,a2
 1001fac:	0184f4b3          	and	s1,s1,s8
 1001fb0:	8fc5                	or	a5,a5,s1
 1001fb2:	1702                	slli	a4,a4,0x20
 1001fb4:	9301                	srli	a4,a4,0x20
 1001fb6:	1782                	slli	a5,a5,0x20
 1001fb8:	8fd9                	or	a5,a5,a4
 1001fba:	00006617          	auipc	a2,0x6
 1001fbe:	ec660613          	addi	a2,a2,-314 # 1007e80 <__spl_start+0x7798>
 1001fc2:	4721                	li	a4,8
 1001fc4:	85a2                	mv	a1,s0
 1001fc6:	854e                	mv	a0,s3
 1001fc8:	ec3e                	sd	a5,24(sp)
 1001fca:	633010ef          	jal	ra,1003dfc <__spl_start+0x3714>
 1001fce:	66a2                	ld	a3,8(sp)
 1001fd0:	0189571b          	srliw	a4,s2,0x18
 1001fd4:	0189179b          	slliw	a5,s2,0x18
 1001fd8:	8fd9                	or	a5,a5,a4
 1001fda:	00ff0637          	lui	a2,0xff0
 1001fde:	0089171b          	slliw	a4,s2,0x8
 1001fe2:	8f71                	and	a4,a4,a2
 1001fe4:	8fd9                	or	a5,a5,a4
 1001fe6:	6741                	lui	a4,0x10
 1001fe8:	f0070713          	addi	a4,a4,-256 # ff00 <_start-0xff0100>
 1001fec:	0089591b          	srliw	s2,s2,0x8
 1001ff0:	00e97933          	and	s2,s2,a4
 1001ff4:	0127e7b3          	or	a5,a5,s2
 1001ff8:	4711                	li	a4,4
 1001ffa:	00006617          	auipc	a2,0x6
 1001ffe:	13e60613          	addi	a2,a2,318 # 1008138 <__spl_start+0x7a50>
 1002002:	85a2                	mv	a1,s0
 1002004:	854e                	mv	a0,s3
 1002006:	cc3e                	sw	a5,24(sp)
 1002008:	5f5010ef          	jal	ra,1003dfc <__spl_start+0x3714>
 100200c:	020a8063          	beqz	s5,100202c <__spl_start+0x1944>
 1002010:	8556                	mv	a0,s5
 1002012:	396020ef          	jal	ra,10043a8 <__spl_start+0x3cc0>
 1002016:	0015071b          	addiw	a4,a0,1
 100201a:	86d6                	mv	a3,s5
 100201c:	00007617          	auipc	a2,0x7
 1002020:	4e460613          	addi	a2,a2,1252 # 1009500 <__spl_start+0x8e18>
 1002024:	85a2                	mv	a1,s0
 1002026:	854e                	mv	a0,s3
 1002028:	5d5010ef          	jal	ra,1003dfc <__spl_start+0x3714>
 100202c:	e80a09e3          	beqz	s4,1001ebe <__spl_start+0x17d6>
 1002030:	8552                	mv	a0,s4
 1002032:	376020ef          	jal	ra,10043a8 <__spl_start+0x3cc0>
 1002036:	0015071b          	addiw	a4,a0,1
 100203a:	86d2                	mv	a3,s4
 100203c:	00007617          	auipc	a2,0x7
 1002040:	4cc60613          	addi	a2,a2,1228 # 1009508 <__spl_start+0x8e20>
 1002044:	85a2                	mv	a1,s0
 1002046:	854e                	mv	a0,s3
 1002048:	5b5010ef          	jal	ra,1003dfc <__spl_start+0x3714>
 100204c:	bd8d                	j	1001ebe <__spl_start+0x17d6>
 100204e:	0e050b63          	beqz	a0,1002144 <__spl_start+0x1a5c>
 1002052:	715d                	addi	sp,sp,-80
 1002054:	e0a2                	sd	s0,64(sp)
 1002056:	fc26                	sd	s1,56(sp)
 1002058:	f84a                	sd	s2,48(sp)
 100205a:	f44e                	sd	s3,40(sp)
 100205c:	f052                	sd	s4,32(sp)
 100205e:	842e                	mv	s0,a1
 1002060:	e486                	sd	ra,72(sp)
 1002062:	84aa                	mv	s1,a0
 1002064:	2c0010ef          	jal	ra,1003324 <__spl_start+0x2c3c>
 1002068:	892a                	mv	s2,a0
 100206a:	4581                	li	a1,0
 100206c:	01810993          	addi	s3,sp,24
 1002070:	01010a13          	addi	s4,sp,16
 1002074:	0125c463          	blt	a1,s2,100207c <__spl_start+0x1994>
 1002078:	4601                	li	a2,0
 100207a:	a839                	j	1002098 <__spl_start+0x19b0>
 100207c:	86ce                	mv	a3,s3
 100207e:	8652                	mv	a2,s4
 1002080:	8526                	mv	a0,s1
 1002082:	e42e                	sd	a1,8(sp)
 1002084:	1ea010ef          	jal	ra,100326e <__spl_start+0x2b86>
 1002088:	67c2                	ld	a5,16(sp)
 100208a:	65a2                	ld	a1,8(sp)
 100208c:	0af49063          	bne	s1,a5,100212c <__spl_start+0x1a44>
 1002090:	8526                	mv	a0,s1
 1002092:	44d010ef          	jal	ra,1003cde <__spl_start+0x35f6>
 1002096:	4605                	li	a2,1
 1002098:	44d8                	lw	a4,12(s1)
 100209a:	00ff0837          	lui	a6,0xff0
 100209e:	509c                	lw	a5,32(s1)
 10020a0:	0187559b          	srliw	a1,a4,0x18
 10020a4:	0187169b          	slliw	a3,a4,0x18
 10020a8:	8ecd                	or	a3,a3,a1
 10020aa:	0087159b          	slliw	a1,a4,0x8
 10020ae:	0105f5b3          	and	a1,a1,a6
 10020b2:	8ecd                	or	a3,a3,a1
 10020b4:	65c1                	lui	a1,0x10
 10020b6:	f0058593          	addi	a1,a1,-256 # ff00 <_start-0xff0100>
 10020ba:	0087571b          	srliw	a4,a4,0x8
 10020be:	8f6d                	and	a4,a4,a1
 10020c0:	8f55                	or	a4,a4,a3
 10020c2:	6685                	lui	a3,0x1
 10020c4:	04f6869b          	addiw	a3,a3,79
 10020c8:	03449513          	slli	a0,s1,0x34
 10020cc:	9151                	srli	a0,a0,0x34
 10020ce:	9c35                	addw	s0,s0,a3
 10020d0:	9c29                	addw	s0,s0,a0
 10020d2:	0187d69b          	srliw	a3,a5,0x18
 10020d6:	9c39                	addw	s0,s0,a4
 10020d8:	0187971b          	slliw	a4,a5,0x18
 10020dc:	8f55                	or	a4,a4,a3
 10020de:	0087969b          	slliw	a3,a5,0x8
 10020e2:	0106f6b3          	and	a3,a3,a6
 10020e6:	0087d79b          	srliw	a5,a5,0x8
 10020ea:	8f55                	or	a4,a4,a3
 10020ec:	8fed                	and	a5,a5,a1
 10020ee:	8fd9                	or	a5,a5,a4
 10020f0:	9c3d                	addw	s0,s0,a5
 10020f2:	77fd                	lui	a5,0xfffff
 10020f4:	8c7d                	and	s0,s0,a5
 10020f6:	9c09                	subw	s0,s0,a0
 10020f8:	0184571b          	srliw	a4,s0,0x18
 10020fc:	0184179b          	slliw	a5,s0,0x18
 1002100:	8fd9                	or	a5,a5,a4
 1002102:	0084171b          	slliw	a4,s0,0x8
 1002106:	01077733          	and	a4,a4,a6
 100210a:	8fd9                	or	a5,a5,a4
 100210c:	0084571b          	srliw	a4,s0,0x8
 1002110:	8f6d                	and	a4,a4,a1
 1002112:	8fd9                	or	a5,a5,a4
 1002114:	c0dc                	sw	a5,4(s1)
 1002116:	ee09                	bnez	a2,1002130 <__spl_start+0x1a48>
 1002118:	0004051b          	sext.w	a0,s0
 100211c:	60a6                	ld	ra,72(sp)
 100211e:	6406                	ld	s0,64(sp)
 1002120:	74e2                	ld	s1,56(sp)
 1002122:	7942                	ld	s2,48(sp)
 1002124:	79a2                	ld	s3,40(sp)
 1002126:	7a02                	ld	s4,32(sp)
 1002128:	6161                	addi	sp,sp,80
 100212a:	8082                	ret
 100212c:	2585                	addiw	a1,a1,1
 100212e:	b799                	j	1002074 <__spl_start+0x198c>
 1002130:	02041613          	slli	a2,s0,0x20
 1002134:	9201                	srli	a2,a2,0x20
 1002136:	85a6                	mv	a1,s1
 1002138:	8526                	mv	a0,s1
 100213a:	29f010ef          	jal	ra,1003bd8 <__spl_start+0x34f0>
 100213e:	fc055de3          	bgez	a0,1002118 <__spl_start+0x1a30>
 1002142:	bfe9                	j	100211c <__spl_start+0x1a34>
 1002144:	4501                	li	a0,0
 1002146:	8082                	ret
 1002148:	4789                	li	a5,2
 100214a:	00a7cb63          	blt	a5,a0,1002160 <__spl_start+0x1a78>
 100214e:	050e                	slli	a0,a0,0x3
 1002150:	00009797          	auipc	a5,0x9
 1002154:	2407b783          	ld	a5,576(a5) # 100b390 <__spl_start+0xaca8>
 1002158:	97aa                	add	a5,a5,a0
 100215a:	6388                	ld	a0,0(a5)
 100215c:	7d1c                	ld	a5,56(a0)
 100215e:	8782                	jr	a5
 1002160:	8082                	ret
 1002162:	85aa                	mv	a1,a0
 1002164:	00018d63          	beqz	gp,100217e <__spl_start+0x1a96>
 1002168:	0381b703          	ld	a4,56(gp)
 100216c:	cb09                	beqz	a4,100217e <__spl_start+0x1a96>
 100216e:	0081b783          	ld	a5,8(gp)
 1002172:	8b89                	andi	a5,a5,2
 1002174:	c399                	beqz	a5,100217a <__spl_start+0x1a92>
 1002176:	4505                	li	a0,1
 1002178:	bfc1                	j	1002148 <__spl_start+0x1a60>
 100217a:	4460406f          	j	10065c0 <__spl_start+0x5ed8>
 100217e:	8082                	ret
 1002180:	4789                	li	a5,2
 1002182:	00a7cb63          	blt	a5,a0,1002198 <__spl_start+0x1ab0>
 1002186:	050e                	slli	a0,a0,0x3
 1002188:	00009797          	auipc	a5,0x9
 100218c:	2087b783          	ld	a5,520(a5) # 100b390 <__spl_start+0xaca8>
 1002190:	97aa                	add	a5,a5,a0
 1002192:	6388                	ld	a0,0(a5)
 1002194:	613c                	ld	a5,64(a0)
 1002196:	8782                	jr	a5
 1002198:	8082                	ret
 100219a:	85aa                	mv	a1,a0
 100219c:	00018d63          	beqz	gp,10021b6 <__spl_start+0x1ace>
 10021a0:	0381b703          	ld	a4,56(gp)
 10021a4:	cb09                	beqz	a4,10021b6 <__spl_start+0x1ace>
 10021a6:	0081b783          	ld	a5,8(gp)
 10021aa:	8b89                	andi	a5,a5,2
 10021ac:	c399                	beqz	a5,10021b2 <__spl_start+0x1aca>
 10021ae:	4505                	li	a0,1
 10021b0:	bfc1                	j	1002180 <__spl_start+0x1a98>
 10021b2:	41c0406f          	j	10065ce <__spl_start+0x5ee6>
 10021b6:	8082                	ret
 10021b8:	1101                	addi	sp,sp,-32
 10021ba:	e04a                	sd	s2,0(sp)
 10021bc:	00009917          	auipc	s2,0x9
 10021c0:	1f493903          	ld	s2,500(s2) # 100b3b0 <__spl_start+0xacc8>
 10021c4:	e426                	sd	s1,8(sp)
 10021c6:	00093483          	ld	s1,0(s2)
 10021ca:	e822                	sd	s0,16(sp)
 10021cc:	ec06                	sd	ra,24(sp)
 10021ce:	00950433          	add	s0,a0,s1
 10021d2:	00055863          	bgez	a0,10021e2 <__spl_start+0x1afa>
 10021d6:	40a00633          	neg	a2,a0
 10021da:	4581                	li	a1,0
 10021dc:	8522                	mv	a0,s0
 10021de:	ccbfe0ef          	jal	ra,1000ea8 <__spl_start+0x7c0>
 10021e2:	00009797          	auipc	a5,0x9
 10021e6:	1867b783          	ld	a5,390(a5) # 100b368 <__spl_start+0xac80>
 10021ea:	639c                	ld	a5,0(a5)
 10021ec:	557d                	li	a0,-1
 10021ee:	00f46c63          	bltu	s0,a5,1002206 <__spl_start+0x1b1e>
 10021f2:	00009797          	auipc	a5,0x9
 10021f6:	11e7b783          	ld	a5,286(a5) # 100b310 <__spl_start+0xac28>
 10021fa:	639c                	ld	a5,0(a5)
 10021fc:	0087e563          	bltu	a5,s0,1002206 <__spl_start+0x1b1e>
 1002200:	00893023          	sd	s0,0(s2)
 1002204:	8526                	mv	a0,s1
 1002206:	60e2                	ld	ra,24(sp)
 1002208:	6442                	ld	s0,16(sp)
 100220a:	64a2                	ld	s1,8(sp)
 100220c:	6902                	ld	s2,0(sp)
 100220e:	6105                	addi	sp,sp,32
 1002210:	8082                	ret
 1002212:	00009717          	auipc	a4,0x9
 1002216:	15673703          	ld	a4,342(a4) # 100b368 <__spl_start+0xac80>
 100221a:	e308                	sd	a0,0(a4)
 100221c:	00b506b3          	add	a3,a0,a1
 1002220:	00009717          	auipc	a4,0x9
 1002224:	0f073703          	ld	a4,240(a4) # 100b310 <__spl_start+0xac28>
 1002228:	e314                	sd	a3,0(a4)
 100222a:	862e                	mv	a2,a1
 100222c:	00009717          	auipc	a4,0x9
 1002230:	18473703          	ld	a4,388(a4) # 100b3b0 <__spl_start+0xacc8>
 1002234:	4581                	li	a1,0
 1002236:	e308                	sd	a0,0(a4)
 1002238:	c71fe06f          	j	1000ea8 <__spl_start+0x7c0>
 100223c:	1101                	addi	sp,sp,-32
 100223e:	e04a                	sd	s2,0(sp)
 1002240:	00008917          	auipc	s2,0x8
 1002244:	42890913          	addi	s2,s2,1064 # 100a668 <__spl_start+0x9f80>
 1002248:	01093783          	ld	a5,16(s2)
 100224c:	e822                	sd	s0,16(sp)
 100224e:	ec06                	sd	ra,24(sp)
 1002250:	e426                	sd	s1,8(sp)
 1002252:	6784                	ld	s1,8(a5)
 1002254:	6705                	lui	a4,0x1
 1002256:	fdf70793          	addi	a5,a4,-33 # fdf <_start-0xfff021>
 100225a:	98f1                	andi	s1,s1,-4
 100225c:	40a78433          	sub	s0,a5,a0
 1002260:	9426                	add	s0,s0,s1
 1002262:	8031                	srli	s0,s0,0xc
 1002264:	147d                	addi	s0,s0,-1
 1002266:	0432                	slli	s0,s0,0xc
 1002268:	00e45963          	bge	s0,a4,100227a <__spl_start+0x1b92>
 100226c:	4501                	li	a0,0
 100226e:	60e2                	ld	ra,24(sp)
 1002270:	6442                	ld	s0,16(sp)
 1002272:	64a2                	ld	s1,8(sp)
 1002274:	6902                	ld	s2,0(sp)
 1002276:	6105                	addi	sp,sp,32
 1002278:	8082                	ret
 100227a:	4501                	li	a0,0
 100227c:	f3dff0ef          	jal	ra,10021b8 <__spl_start+0x1ad0>
 1002280:	01093783          	ld	a5,16(s2)
 1002284:	97a6                	add	a5,a5,s1
 1002286:	fef513e3          	bne	a0,a5,100226c <__spl_start+0x1b84>
 100228a:	40800533          	neg	a0,s0
 100228e:	f2bff0ef          	jal	ra,10021b8 <__spl_start+0x1ad0>
 1002292:	57fd                	li	a5,-1
 1002294:	02f51963          	bne	a0,a5,10022c6 <__spl_start+0x1bde>
 1002298:	4501                	li	a0,0
 100229a:	f1fff0ef          	jal	ra,10021b8 <__spl_start+0x1ad0>
 100229e:	01093703          	ld	a4,16(s2)
 10022a2:	46fd                	li	a3,31
 10022a4:	40e507b3          	sub	a5,a0,a4
 10022a8:	fcf6d2e3          	bge	a3,a5,100226c <__spl_start+0x1b84>
 10022ac:	00009697          	auipc	a3,0x9
 10022b0:	bcc6b683          	ld	a3,-1076(a3) # 100ae78 <__spl_start+0xa790>
 10022b4:	8d15                	sub	a0,a0,a3
 10022b6:	0017e793          	ori	a5,a5,1
 10022ba:	00016697          	auipc	a3,0x16
 10022be:	44a6af23          	sw	a0,1118(a3) # 1018718 <__spl_src_start+0xc438>
 10022c2:	e71c                	sd	a5,8(a4)
 10022c4:	b765                	j	100226c <__spl_start+0x1b84>
 10022c6:	01093783          	ld	a5,16(s2)
 10022ca:	8c81                	sub	s1,s1,s0
 10022cc:	00016717          	auipc	a4,0x16
 10022d0:	44c70713          	addi	a4,a4,1100 # 1018718 <__spl_src_start+0xc438>
 10022d4:	0014e493          	ori	s1,s1,1
 10022d8:	e784                	sd	s1,8(a5)
 10022da:	431c                	lw	a5,0(a4)
 10022dc:	4505                	li	a0,1
 10022de:	9f81                	subw	a5,a5,s0
 10022e0:	c31c                	sw	a5,0(a4)
 10022e2:	b771                	j	100226e <__spl_start+0x1b86>
 10022e4:	0081b783          	ld	a5,8(gp)
 10022e8:	2007f793          	andi	a5,a5,512
 10022ec:	14078763          	beqz	a5,100243a <__spl_start+0x1d52>
 10022f0:	14050563          	beqz	a0,100243a <__spl_start+0x1d52>
 10022f4:	ff853803          	ld	a6,-8(a0)
 10022f8:	ff050693          	addi	a3,a0,-16
 10022fc:	00008617          	auipc	a2,0x8
 1002300:	36c60613          	addi	a2,a2,876 # 100a668 <__spl_start+0x9f80>
 1002304:	ffe87793          	andi	a5,a6,-2
 1002308:	00f685b3          	add	a1,a3,a5
 100230c:	6598                	ld	a4,8(a1)
 100230e:	01063883          	ld	a7,16(a2)
 1002312:	00187813          	andi	a6,a6,1
 1002316:	9b71                	andi	a4,a4,-4
 1002318:	03159c63          	bne	a1,a7,1002350 <__spl_start+0x1c68>
 100231c:	973e                	add	a4,a4,a5
 100231e:	00081a63          	bnez	a6,1002332 <__spl_start+0x1c4a>
 1002322:	ff053783          	ld	a5,-16(a0)
 1002326:	8e9d                	sub	a3,a3,a5
 1002328:	6a8c                	ld	a1,16(a3)
 100232a:	973e                	add	a4,a4,a5
 100232c:	6e9c                	ld	a5,24(a3)
 100232e:	ed9c                	sd	a5,24(a1)
 1002330:	eb8c                	sd	a1,16(a5)
 1002332:	00176793          	ori	a5,a4,1
 1002336:	e69c                	sd	a5,8(a3)
 1002338:	ea14                	sd	a3,16(a2)
 100233a:	00009797          	auipc	a5,0x9
 100233e:	b467b783          	ld	a5,-1210(a5) # 100ae80 <__spl_start+0xa798>
 1002342:	0ef76c63          	bltu	a4,a5,100243a <__spl_start+0x1d52>
 1002346:	00016517          	auipc	a0,0x16
 100234a:	42253503          	ld	a0,1058(a0) # 1018768 <__spl_src_start+0xc488>
 100234e:	b5fd                	j	100223c <__spl_start+0x1b54>
 1002350:	e598                	sd	a4,8(a1)
 1002352:	4881                	li	a7,0
 1002354:	02081363          	bnez	a6,100237a <__spl_start+0x1c92>
 1002358:	ff053503          	ld	a0,-16(a0)
 100235c:	00008817          	auipc	a6,0x8
 1002360:	31c80813          	addi	a6,a6,796 # 100a678 <__spl_start+0x9f90>
 1002364:	8e89                	sub	a3,a3,a0
 1002366:	97aa                	add	a5,a5,a0
 1002368:	6a88                	ld	a0,16(a3)
 100236a:	09050063          	beq	a0,a6,10023ea <__spl_start+0x1d02>
 100236e:	0186b803          	ld	a6,24(a3)
 1002372:	01053c23          	sd	a6,24(a0)
 1002376:	00a83823          	sd	a0,16(a6)
 100237a:	00e58533          	add	a0,a1,a4
 100237e:	6508                	ld	a0,8(a0)
 1002380:	8905                	andi	a0,a0,1
 1002382:	e105                	bnez	a0,10023a2 <__spl_start+0x1cba>
 1002384:	97ba                	add	a5,a5,a4
 1002386:	6998                	ld	a4,16(a1)
 1002388:	06089363          	bnez	a7,10023ee <__spl_start+0x1d06>
 100238c:	00008517          	auipc	a0,0x8
 1002390:	2ec50513          	addi	a0,a0,748 # 100a678 <__spl_start+0x9f90>
 1002394:	04a71d63          	bne	a4,a0,10023ee <__spl_start+0x1d06>
 1002398:	f614                	sd	a3,40(a2)
 100239a:	f214                	sd	a3,32(a2)
 100239c:	ee98                	sd	a4,24(a3)
 100239e:	ea98                	sd	a4,16(a3)
 10023a0:	4885                	li	a7,1
 10023a2:	0017e713          	ori	a4,a5,1
 10023a6:	e698                	sd	a4,8(a3)
 10023a8:	00f68733          	add	a4,a3,a5
 10023ac:	e31c                	sd	a5,0(a4)
 10023ae:	08089663          	bnez	a7,100243a <__spl_start+0x1d52>
 10023b2:	1ff00713          	li	a4,511
 10023b6:	04f76063          	bltu	a4,a5,10023f6 <__spl_start+0x1d0e>
 10023ba:	838d                	srli	a5,a5,0x3
 10023bc:	4027d59b          	sraiw	a1,a5,0x2
 10023c0:	4705                	li	a4,1
 10023c2:	00b7173b          	sllw	a4,a4,a1
 10023c6:	660c                	ld	a1,8(a2)
 10023c8:	1702                	slli	a4,a4,0x20
 10023ca:	2785                	addiw	a5,a5,1
 10023cc:	9301                	srli	a4,a4,0x20
 10023ce:	0017979b          	slliw	a5,a5,0x1
 10023d2:	8f4d                	or	a4,a4,a1
 10023d4:	078e                	slli	a5,a5,0x3
 10023d6:	e618                	sd	a4,8(a2)
 10023d8:	97b2                	add	a5,a5,a2
 10023da:	6398                	ld	a4,0(a5)
 10023dc:	ff078613          	addi	a2,a5,-16
 10023e0:	ee90                	sd	a2,24(a3)
 10023e2:	ea98                	sd	a4,16(a3)
 10023e4:	e394                	sd	a3,0(a5)
 10023e6:	ef14                	sd	a3,24(a4)
 10023e8:	8082                	ret
 10023ea:	4885                	li	a7,1
 10023ec:	b779                	j	100237a <__spl_start+0x1c92>
 10023ee:	6d8c                	ld	a1,24(a1)
 10023f0:	ef0c                	sd	a1,24(a4)
 10023f2:	e998                	sd	a4,16(a1)
 10023f4:	b77d                	j	10023a2 <__spl_start+0x1cba>
 10023f6:	0097d593          	srli	a1,a5,0x9
 10023fa:	4711                	li	a4,4
 10023fc:	04b76063          	bltu	a4,a1,100243c <__spl_start+0x1d54>
 1002400:	0067d713          	srli	a4,a5,0x6
 1002404:	0387071b          	addiw	a4,a4,56
 1002408:	0017059b          	addiw	a1,a4,1
 100240c:	0015959b          	slliw	a1,a1,0x1
 1002410:	058e                	slli	a1,a1,0x3
 1002412:	95b2                	add	a1,a1,a2
 1002414:	ff058513          	addi	a0,a1,-16
 1002418:	618c                	ld	a1,0(a1)
 100241a:	06b51763          	bne	a0,a1,1002488 <__spl_start+0x1da0>
 100241e:	4027571b          	sraiw	a4,a4,0x2
 1002422:	4785                	li	a5,1
 1002424:	00e797bb          	sllw	a5,a5,a4
 1002428:	6618                	ld	a4,8(a2)
 100242a:	1782                	slli	a5,a5,0x20
 100242c:	9381                	srli	a5,a5,0x20
 100242e:	8fd9                	or	a5,a5,a4
 1002430:	e61c                	sd	a5,8(a2)
 1002432:	ee88                	sd	a0,24(a3)
 1002434:	ea8c                	sd	a1,16(a3)
 1002436:	e914                	sd	a3,16(a0)
 1002438:	ed94                	sd	a3,24(a1)
 100243a:	8082                	ret
 100243c:	4751                	li	a4,20
 100243e:	00b76563          	bltu	a4,a1,1002448 <__spl_start+0x1d60>
 1002442:	05b5871b          	addiw	a4,a1,91
 1002446:	b7c9                	j	1002408 <__spl_start+0x1d20>
 1002448:	05400713          	li	a4,84
 100244c:	00b76763          	bltu	a4,a1,100245a <__spl_start+0x1d72>
 1002450:	00c7d713          	srli	a4,a5,0xc
 1002454:	06e7071b          	addiw	a4,a4,110
 1002458:	bf45                	j	1002408 <__spl_start+0x1d20>
 100245a:	15400713          	li	a4,340
 100245e:	00b76763          	bltu	a4,a1,100246c <__spl_start+0x1d84>
 1002462:	00f7d713          	srli	a4,a5,0xf
 1002466:	0777071b          	addiw	a4,a4,119
 100246a:	bf79                	j	1002408 <__spl_start+0x1d20>
 100246c:	55400513          	li	a0,1364
 1002470:	07e00713          	li	a4,126
 1002474:	f8b56ae3          	bltu	a0,a1,1002408 <__spl_start+0x1d20>
 1002478:	0127d713          	srli	a4,a5,0x12
 100247c:	07c7071b          	addiw	a4,a4,124
 1002480:	b761                	j	1002408 <__spl_start+0x1d20>
 1002482:	698c                	ld	a1,16(a1)
 1002484:	00b50663          	beq	a0,a1,1002490 <__spl_start+0x1da8>
 1002488:	6598                	ld	a4,8(a1)
 100248a:	9b71                	andi	a4,a4,-4
 100248c:	fee7ebe3          	bltu	a5,a4,1002482 <__spl_start+0x1d9a>
 1002490:	6d88                	ld	a0,24(a1)
 1002492:	b745                	j	1002432 <__spl_start+0x1d4a>
 1002494:	0081b703          	ld	a4,8(gp)
 1002498:	20077713          	andi	a4,a4,512
 100249c:	e311                	bnez	a4,10024a0 <__spl_start+0x1db8>
 100249e:	a71d                	j	1002bc4 <__spl_start+0x24dc>
 10024a0:	00009717          	auipc	a4,0x9
 10024a4:	ec873703          	ld	a4,-312(a4) # 100b368 <__spl_start+0xac80>
 10024a8:	00009697          	auipc	a3,0x9
 10024ac:	e686b683          	ld	a3,-408(a3) # 100b310 <__spl_start+0xac28>
 10024b0:	6318                	ld	a4,0(a4)
 10024b2:	6294                	ld	a3,0(a3)
 10024b4:	8f55                	or	a4,a4,a3
 10024b6:	e319                	bnez	a4,10024bc <__spl_start+0x1dd4>
 10024b8:	4501                	li	a0,0
 10024ba:	8082                	ret
 10024bc:	fe054ee3          	bltz	a0,10024b8 <__spl_start+0x1dd0>
 10024c0:	715d                	addi	sp,sp,-80
 10024c2:	f84a                	sd	s2,48(sp)
 10024c4:	e486                	sd	ra,72(sp)
 10024c6:	e0a2                	sd	s0,64(sp)
 10024c8:	fc26                	sd	s1,56(sp)
 10024ca:	f44e                	sd	s3,40(sp)
 10024cc:	f052                	sd	s4,32(sp)
 10024ce:	ec56                	sd	s5,24(sp)
 10024d0:	e85a                	sd	s6,16(sp)
 10024d2:	e45e                	sd	s7,8(sp)
 10024d4:	e062                	sd	s8,0(sp)
 10024d6:	01750793          	addi	a5,a0,23
 10024da:	02e00713          	li	a4,46
 10024de:	00008917          	auipc	s2,0x8
 10024e2:	18a90913          	addi	s2,s2,394 # 100a668 <__spl_start+0x9f80>
 10024e6:	04f75663          	bge	a4,a5,1002532 <__spl_start+0x1e4a>
 10024ea:	ff07f493          	andi	s1,a5,-16
 10024ee:	1f700793          	li	a5,503
 10024f2:	0497e363          	bltu	a5,s1,1002538 <__spl_start+0x1e50>
 10024f6:	0034d713          	srli	a4,s1,0x3
 10024fa:	0007079b          	sext.w	a5,a4
 10024fe:	2705                	addiw	a4,a4,1
 1002500:	0017171b          	slliw	a4,a4,0x1
 1002504:	070e                	slli	a4,a4,0x3
 1002506:	974a                	add	a4,a4,s2
 1002508:	6708                	ld	a0,8(a4)
 100250a:	ff070693          	addi	a3,a4,-16
 100250e:	00d51663          	bne	a0,a3,100251a <__spl_start+0x1e32>
 1002512:	6f08                	ld	a0,24(a4)
 1002514:	2789                	addiw	a5,a5,2
 1002516:	06a70163          	beq	a4,a0,1002578 <__spl_start+0x1e90>
 100251a:	651c                	ld	a5,8(a0)
 100251c:	6d18                	ld	a4,24(a0)
 100251e:	6914                	ld	a3,16(a0)
 1002520:	9bf1                	andi	a5,a5,-4
 1002522:	97aa                	add	a5,a5,a0
 1002524:	ee98                	sd	a4,24(a3)
 1002526:	eb14                	sd	a3,16(a4)
 1002528:	6798                	ld	a4,8(a5)
 100252a:	00176713          	ori	a4,a4,1
 100252e:	e798                	sd	a4,8(a5)
 1002530:	a059                	j	10025b6 <__spl_start+0x1ece>
 1002532:	02000493          	li	s1,32
 1002536:	b7c1                	j	10024f6 <__spl_start+0x1e0e>
 1002538:	0094d713          	srli	a4,s1,0x9
 100253c:	03f00793          	li	a5,63
 1002540:	cb01                	beqz	a4,1002550 <__spl_start+0x1e68>
 1002542:	4791                	li	a5,4
 1002544:	08e7e663          	bltu	a5,a4,10025d0 <__spl_start+0x1ee8>
 1002548:	0064d793          	srli	a5,s1,0x6
 100254c:	0387879b          	addiw	a5,a5,56
 1002550:	0017871b          	addiw	a4,a5,1
 1002554:	0017171b          	slliw	a4,a4,0x1
 1002558:	070e                	slli	a4,a4,0x3
 100255a:	974a                	add	a4,a4,s2
 100255c:	6708                	ld	a0,8(a4)
 100255e:	ff070593          	addi	a1,a4,-16
 1002562:	487d                	li	a6,31
 1002564:	00a58963          	beq	a1,a0,1002576 <__spl_start+0x1e8e>
 1002568:	6518                	ld	a4,8(a0)
 100256a:	9b71                	andi	a4,a4,-4
 100256c:	40970633          	sub	a2,a4,s1
 1002570:	0ac85363          	bge	a6,a2,1002616 <__spl_start+0x1f2e>
 1002574:	37fd                	addiw	a5,a5,-1
 1002576:	2785                	addiw	a5,a5,1
 1002578:	02093503          	ld	a0,32(s2)
 100257c:	00008597          	auipc	a1,0x8
 1002580:	0fc58593          	addi	a1,a1,252 # 100a678 <__spl_start+0x9f90>
 1002584:	0eb50e63          	beq	a0,a1,1002680 <__spl_start+0x1f98>
 1002588:	6518                	ld	a4,8(a0)
 100258a:	46fd                	li	a3,31
 100258c:	9b71                	andi	a4,a4,-4
 100258e:	40970633          	sub	a2,a4,s1
 1002592:	08c6dd63          	bge	a3,a2,100262c <__spl_start+0x1f44>
 1002596:	0014e793          	ori	a5,s1,1
 100259a:	e51c                	sd	a5,8(a0)
 100259c:	009506b3          	add	a3,a0,s1
 10025a0:	02d93423          	sd	a3,40(s2)
 10025a4:	02d93023          	sd	a3,32(s2)
 10025a8:	00166793          	ori	a5,a2,1
 10025ac:	ee8c                	sd	a1,24(a3)
 10025ae:	ea8c                	sd	a1,16(a3)
 10025b0:	e69c                	sd	a5,8(a3)
 10025b2:	972a                	add	a4,a4,a0
 10025b4:	e310                	sd	a2,0(a4)
 10025b6:	0541                	addi	a0,a0,16
 10025b8:	60a6                	ld	ra,72(sp)
 10025ba:	6406                	ld	s0,64(sp)
 10025bc:	74e2                	ld	s1,56(sp)
 10025be:	7942                	ld	s2,48(sp)
 10025c0:	79a2                	ld	s3,40(sp)
 10025c2:	7a02                	ld	s4,32(sp)
 10025c4:	6ae2                	ld	s5,24(sp)
 10025c6:	6b42                	ld	s6,16(sp)
 10025c8:	6ba2                	ld	s7,8(sp)
 10025ca:	6c02                	ld	s8,0(sp)
 10025cc:	6161                	addi	sp,sp,80
 10025ce:	8082                	ret
 10025d0:	47d1                	li	a5,20
 10025d2:	00e7e563          	bltu	a5,a4,10025dc <__spl_start+0x1ef4>
 10025d6:	05b7079b          	addiw	a5,a4,91
 10025da:	bf9d                	j	1002550 <__spl_start+0x1e68>
 10025dc:	05400793          	li	a5,84
 10025e0:	00e7e763          	bltu	a5,a4,10025ee <__spl_start+0x1f06>
 10025e4:	00c4d793          	srli	a5,s1,0xc
 10025e8:	06e7879b          	addiw	a5,a5,110
 10025ec:	b795                	j	1002550 <__spl_start+0x1e68>
 10025ee:	15400793          	li	a5,340
 10025f2:	00e7e763          	bltu	a5,a4,1002600 <__spl_start+0x1f18>
 10025f6:	00f4d793          	srli	a5,s1,0xf
 10025fa:	0777879b          	addiw	a5,a5,119
 10025fe:	bf89                	j	1002550 <__spl_start+0x1e68>
 1002600:	55400693          	li	a3,1364
 1002604:	07e00793          	li	a5,126
 1002608:	f4e6e4e3          	bltu	a3,a4,1002550 <__spl_start+0x1e68>
 100260c:	0124d793          	srli	a5,s1,0x12
 1002610:	07c7879b          	addiw	a5,a5,124
 1002614:	bf35                	j	1002550 <__spl_start+0x1e68>
 1002616:	6d14                	ld	a3,24(a0)
 1002618:	00064863          	bltz	a2,1002628 <__spl_start+0x1f40>
 100261c:	691c                	ld	a5,16(a0)
 100261e:	ef94                	sd	a3,24(a5)
 1002620:	ea9c                	sd	a5,16(a3)
 1002622:	00e507b3          	add	a5,a0,a4
 1002626:	b709                	j	1002528 <__spl_start+0x1e40>
 1002628:	8536                	mv	a0,a3
 100262a:	bf2d                	j	1002564 <__spl_start+0x1e7c>
 100262c:	02b93423          	sd	a1,40(s2)
 1002630:	02b93023          	sd	a1,32(s2)
 1002634:	00064863          	bltz	a2,1002644 <__spl_start+0x1f5c>
 1002638:	972a                	add	a4,a4,a0
 100263a:	671c                	ld	a5,8(a4)
 100263c:	0017e793          	ori	a5,a5,1
 1002640:	e71c                	sd	a5,8(a4)
 1002642:	bf95                	j	10025b6 <__spl_start+0x1ece>
 1002644:	1ff00693          	li	a3,511
 1002648:	00893883          	ld	a7,8(s2)
 100264c:	14e6e163          	bltu	a3,a4,100278e <__spl_start+0x20a6>
 1002650:	830d                	srli	a4,a4,0x3
 1002652:	4027561b          	sraiw	a2,a4,0x2
 1002656:	4685                	li	a3,1
 1002658:	00c696bb          	sllw	a3,a3,a2
 100265c:	1682                	slli	a3,a3,0x20
 100265e:	2705                	addiw	a4,a4,1
 1002660:	9281                	srli	a3,a3,0x20
 1002662:	0017171b          	slliw	a4,a4,0x1
 1002666:	00d8e6b3          	or	a3,a7,a3
 100266a:	070e                	slli	a4,a4,0x3
 100266c:	974a                	add	a4,a4,s2
 100266e:	00d93423          	sd	a3,8(s2)
 1002672:	6314                	ld	a3,0(a4)
 1002674:	ff070613          	addi	a2,a4,-16
 1002678:	ed10                	sd	a2,24(a0)
 100267a:	e914                	sd	a3,16(a0)
 100267c:	e308                	sd	a0,0(a4)
 100267e:	ee88                	sd	a0,24(a3)
 1002680:	4027d69b          	sraiw	a3,a5,0x2
 1002684:	4705                	li	a4,1
 1002686:	00d7173b          	sllw	a4,a4,a3
 100268a:	02071313          	slli	t1,a4,0x20
 100268e:	00893703          	ld	a4,8(s2)
 1002692:	02035313          	srli	t1,t1,0x20
 1002696:	06676063          	bltu	a4,t1,10026f6 <__spl_start+0x200e>
 100269a:	00e376b3          	and	a3,t1,a4
 100269e:	e699                	bnez	a3,10026ac <__spl_start+0x1fc4>
 10026a0:	9bf1                	andi	a5,a5,-4
 10026a2:	0306                	slli	t1,t1,0x1
 10026a4:	006776b3          	and	a3,a4,t1
 10026a8:	2791                	addiw	a5,a5,4
 10026aa:	dee5                	beqz	a3,10026a2 <__spl_start+0x1fba>
 10026ac:	4e7d                	li	t3,31
 10026ae:	0017871b          	addiw	a4,a5,1
 10026b2:	0017171b          	slliw	a4,a4,0x1
 10026b6:	070e                	slli	a4,a4,0x3
 10026b8:	1741                	addi	a4,a4,-16
 10026ba:	974a                	add	a4,a4,s2
 10026bc:	883a                	mv	a6,a4
 10026be:	863e                	mv	a2,a5
 10026c0:	01883503          	ld	a0,24(a6)
 10026c4:	16a81863          	bne	a6,a0,1002834 <__spl_start+0x214c>
 10026c8:	2605                	addiw	a2,a2,1
 10026ca:	00367693          	andi	a3,a2,3
 10026ce:	0841                	addi	a6,a6,16
 10026d0:	fae5                	bnez	a3,10026c0 <__spl_start+0x1fd8>
 10026d2:	0037f693          	andi	a3,a5,3
 10026d6:	1a069963          	bnez	a3,1002888 <__spl_start+0x21a0>
 10026da:	00893783          	ld	a5,8(s2)
 10026de:	fff34713          	not	a4,t1
 10026e2:	8ff9                	and	a5,a5,a4
 10026e4:	00f93423          	sd	a5,8(s2)
 10026e8:	00893683          	ld	a3,8(s2)
 10026ec:	0306                	slli	t1,t1,0x1
 10026ee:	0066e463          	bltu	a3,t1,10026f6 <__spl_start+0x200e>
 10026f2:	1a031763          	bnez	t1,10028a0 <__spl_start+0x21b8>
 10026f6:	01093a83          	ld	s5,16(s2)
 10026fa:	47fd                	li	a5,31
 10026fc:	008aba03          	ld	s4,8(s5)
 1002700:	ffca7a13          	andi	s4,s4,-4
 1002704:	409a0733          	sub	a4,s4,s1
 1002708:	22e7c063          	blt	a5,a4,1002928 <__spl_start+0x2240>
 100270c:	00008c17          	auipc	s8,0x8
 1002710:	76cc0c13          	addi	s8,s8,1900 # 100ae78 <__spl_start+0xa790>
 1002714:	000c3703          	ld	a4,0(s8)
 1002718:	00016417          	auipc	s0,0x16
 100271c:	05043403          	ld	s0,80(s0) # 1018768 <__spl_src_start+0xc488>
 1002720:	57fd                	li	a5,-1
 1002722:	014a8b33          	add	s6,s5,s4
 1002726:	9426                	add	s0,s0,s1
 1002728:	16f71e63          	bne	a4,a5,10028a4 <__spl_start+0x21bc>
 100272c:	02040413          	addi	s0,s0,32
 1002730:	8522                	mv	a0,s0
 1002732:	a87ff0ef          	jal	ra,10021b8 <__spl_start+0x1ad0>
 1002736:	57fd                	li	a5,-1
 1002738:	89aa                	mv	s3,a0
 100273a:	1cf50e63          	beq	a0,a5,1002916 <__spl_start+0x222e>
 100273e:	01657463          	bgeu	a0,s6,1002746 <__spl_start+0x205e>
 1002742:	1d2a9a63          	bne	s5,s2,1002916 <__spl_start+0x222e>
 1002746:	00016b97          	auipc	s7,0x16
 100274a:	fd2b8b93          	addi	s7,s7,-46 # 1018718 <__spl_src_start+0xc438>
 100274e:	000ba783          	lw	a5,0(s7)
 1002752:	9fa1                	addw	a5,a5,s0
 1002754:	00fba023          	sw	a5,0(s7)
 1002758:	153b1c63          	bne	s6,s3,10028b0 <__spl_start+0x21c8>
 100275c:	01093783          	ld	a5,16(s2)
 1002760:	9452                	add	s0,s0,s4
 1002762:	00146413          	ori	s0,s0,1
 1002766:	e780                	sd	s0,8(a5)
 1002768:	00016717          	auipc	a4,0x16
 100276c:	fd870713          	addi	a4,a4,-40 # 1018740 <__spl_src_start+0xc460>
 1002770:	000ba783          	lw	a5,0(s7)
 1002774:	6314                	ld	a3,0(a4)
 1002776:	00f6f363          	bgeu	a3,a5,100277c <__spl_start+0x2094>
 100277a:	e31c                	sd	a5,0(a4)
 100277c:	00016717          	auipc	a4,0x16
 1002780:	fcc70713          	addi	a4,a4,-52 # 1018748 <__spl_src_start+0xc468>
 1002784:	6314                	ld	a3,0(a4)
 1002786:	18f6f863          	bgeu	a3,a5,1002916 <__spl_start+0x222e>
 100278a:	e31c                	sd	a5,0(a4)
 100278c:	a269                	j	1002916 <__spl_start+0x222e>
 100278e:	00975613          	srli	a2,a4,0x9
 1002792:	4691                	li	a3,4
 1002794:	04c6e363          	bltu	a3,a2,10027da <__spl_start+0x20f2>
 1002798:	00675693          	srli	a3,a4,0x6
 100279c:	0386869b          	addiw	a3,a3,56
 10027a0:	0016861b          	addiw	a2,a3,1
 10027a4:	0016161b          	slliw	a2,a2,0x1
 10027a8:	060e                	slli	a2,a2,0x3
 10027aa:	964a                	add	a2,a2,s2
 10027ac:	ff060813          	addi	a6,a2,-16
 10027b0:	6210                	ld	a2,0(a2)
 10027b2:	06c81a63          	bne	a6,a2,1002826 <__spl_start+0x213e>
 10027b6:	4026d69b          	sraiw	a3,a3,0x2
 10027ba:	4705                	li	a4,1
 10027bc:	00d7173b          	sllw	a4,a4,a3
 10027c0:	1702                	slli	a4,a4,0x20
 10027c2:	9301                	srli	a4,a4,0x20
 10027c4:	00e8e733          	or	a4,a7,a4
 10027c8:	00e93423          	sd	a4,8(s2)
 10027cc:	01053c23          	sd	a6,24(a0)
 10027d0:	e910                	sd	a2,16(a0)
 10027d2:	00a83823          	sd	a0,16(a6)
 10027d6:	ee08                	sd	a0,24(a2)
 10027d8:	b565                	j	1002680 <__spl_start+0x1f98>
 10027da:	46d1                	li	a3,20
 10027dc:	00c6e563          	bltu	a3,a2,10027e6 <__spl_start+0x20fe>
 10027e0:	05b6069b          	addiw	a3,a2,91
 10027e4:	bf75                	j	10027a0 <__spl_start+0x20b8>
 10027e6:	05400693          	li	a3,84
 10027ea:	00c6e763          	bltu	a3,a2,10027f8 <__spl_start+0x2110>
 10027ee:	00c75693          	srli	a3,a4,0xc
 10027f2:	06e6869b          	addiw	a3,a3,110
 10027f6:	b76d                	j	10027a0 <__spl_start+0x20b8>
 10027f8:	15400693          	li	a3,340
 10027fc:	00c6e763          	bltu	a3,a2,100280a <__spl_start+0x2122>
 1002800:	00f75693          	srli	a3,a4,0xf
 1002804:	0776869b          	addiw	a3,a3,119
 1002808:	bf61                	j	10027a0 <__spl_start+0x20b8>
 100280a:	55400813          	li	a6,1364
 100280e:	07e00693          	li	a3,126
 1002812:	f8c867e3          	bltu	a6,a2,10027a0 <__spl_start+0x20b8>
 1002816:	01275693          	srli	a3,a4,0x12
 100281a:	07c6869b          	addiw	a3,a3,124
 100281e:	b749                	j	10027a0 <__spl_start+0x20b8>
 1002820:	6a10                	ld	a2,16(a2)
 1002822:	00c80663          	beq	a6,a2,100282e <__spl_start+0x2146>
 1002826:	6614                	ld	a3,8(a2)
 1002828:	9af1                	andi	a3,a3,-4
 100282a:	fed76be3          	bltu	a4,a3,1002820 <__spl_start+0x2138>
 100282e:	01863803          	ld	a6,24(a2)
 1002832:	bf69                	j	10027cc <__spl_start+0x20e4>
 1002834:	6514                	ld	a3,8(a0)
 1002836:	9af1                	andi	a3,a3,-4
 1002838:	409688b3          	sub	a7,a3,s1
 100283c:	031e5863          	bge	t3,a7,100286c <__spl_start+0x2184>
 1002840:	0014e793          	ori	a5,s1,1
 1002844:	e51c                	sd	a5,8(a0)
 1002846:	6910                	ld	a2,16(a0)
 1002848:	6d1c                	ld	a5,24(a0)
 100284a:	00950733          	add	a4,a0,s1
 100284e:	96aa                	add	a3,a3,a0
 1002850:	ee1c                	sd	a5,24(a2)
 1002852:	eb90                	sd	a2,16(a5)
 1002854:	02e93423          	sd	a4,40(s2)
 1002858:	02e93023          	sd	a4,32(s2)
 100285c:	0018e793          	ori	a5,a7,1
 1002860:	ef0c                	sd	a1,24(a4)
 1002862:	eb0c                	sd	a1,16(a4)
 1002864:	e71c                	sd	a5,8(a4)
 1002866:	0116b023          	sd	a7,0(a3)
 100286a:	b3b1                	j	10025b6 <__spl_start+0x1ece>
 100286c:	0008cc63          	bltz	a7,1002884 <__spl_start+0x219c>
 1002870:	96aa                	add	a3,a3,a0
 1002872:	669c                	ld	a5,8(a3)
 1002874:	0017e793          	ori	a5,a5,1
 1002878:	e69c                	sd	a5,8(a3)
 100287a:	6d1c                	ld	a5,24(a0)
 100287c:	6918                	ld	a4,16(a0)
 100287e:	ef1c                	sd	a5,24(a4)
 1002880:	eb98                	sd	a4,16(a5)
 1002882:	bb15                	j	10025b6 <__spl_start+0x1ece>
 1002884:	6d08                	ld	a0,24(a0)
 1002886:	bd3d                	j	10026c4 <__spl_start+0x1fdc>
 1002888:	6314                	ld	a3,0(a4)
 100288a:	1741                	addi	a4,a4,-16
 100288c:	37fd                	addiw	a5,a5,-1
 100288e:	e4d702e3          	beq	a4,a3,10026d2 <__spl_start+0x1fea>
 1002892:	bd99                	j	10026e8 <__spl_start+0x2000>
 1002894:	2791                	addiw	a5,a5,4
 1002896:	0306                	slli	t1,t1,0x1
 1002898:	0066f733          	and	a4,a3,t1
 100289c:	df65                	beqz	a4,1002894 <__spl_start+0x21ac>
 100289e:	bd01                	j	10026ae <__spl_start+0x1fc6>
 10028a0:	87b2                	mv	a5,a2
 10028a2:	bfdd                	j	1002898 <__spl_start+0x21b0>
 10028a4:	6785                	lui	a5,0x1
 10028a6:	07fd                	addi	a5,a5,31
 10028a8:	943e                	add	s0,s0,a5
 10028aa:	77fd                	lui	a5,0xfffff
 10028ac:	8c7d                	and	s0,s0,a5
 10028ae:	b549                	j	1002730 <__spl_start+0x2048>
 10028b0:	000c3683          	ld	a3,0(s8)
 10028b4:	577d                	li	a4,-1
 10028b6:	08e69363          	bne	a3,a4,100293c <__spl_start+0x2254>
 10028ba:	013c3023          	sd	s3,0(s8)
 10028be:	00f9f793          	andi	a5,s3,15
 10028c2:	c789                	beqz	a5,10028cc <__spl_start+0x21e4>
 10028c4:	4741                	li	a4,16
 10028c6:	40f707b3          	sub	a5,a4,a5
 10028ca:	99be                	add	s3,s3,a5
 10028cc:	6705                	lui	a4,0x1
 10028ce:	944e                	add	s0,s0,s3
 10028d0:	177d                	addi	a4,a4,-1
 10028d2:	8f81                	sub	a5,a5,s0
 10028d4:	943a                	add	s0,s0,a4
 10028d6:	777d                	lui	a4,0xfffff
 10028d8:	8c79                	and	s0,s0,a4
 10028da:	943e                	add	s0,s0,a5
 10028dc:	8522                	mv	a0,s0
 10028de:	8dbff0ef          	jal	ra,10021b8 <__spl_start+0x1ad0>
 10028e2:	57fd                	li	a5,-1
 10028e4:	02f50963          	beq	a0,a5,1002916 <__spl_start+0x222e>
 10028e8:	000ba783          	lw	a5,0(s7)
 10028ec:	41350533          	sub	a0,a0,s3
 10028f0:	9522                	add	a0,a0,s0
 10028f2:	9fa1                	addw	a5,a5,s0
 10028f4:	01393823          	sd	s3,16(s2)
 10028f8:	00156513          	ori	a0,a0,1
 10028fc:	00fba023          	sw	a5,0(s7)
 1002900:	00a9b423          	sd	a0,8(s3)
 1002904:	e72a82e3          	beq	s5,s2,1002768 <__spl_start+0x2080>
 1002908:	477d                	li	a4,31
 100290a:	05476063          	bltu	a4,s4,100294a <__spl_start+0x2262>
 100290e:	01093783          	ld	a5,16(s2)
 1002912:	4705                	li	a4,1
 1002914:	e798                	sd	a4,8(a5)
 1002916:	01093783          	ld	a5,16(s2)
 100291a:	4501                	li	a0,0
 100291c:	6798                	ld	a4,8(a5)
 100291e:	47fd                	li	a5,31
 1002920:	9b71                	andi	a4,a4,-4
 1002922:	8f05                	sub	a4,a4,s1
 1002924:	c8e7dae3          	bge	a5,a4,10025b8 <__spl_start+0x1ed0>
 1002928:	01093503          	ld	a0,16(s2)
 100292c:	0014e793          	ori	a5,s1,1
 1002930:	e51c                	sd	a5,8(a0)
 1002932:	009507b3          	add	a5,a0,s1
 1002936:	00f93823          	sd	a5,16(s2)
 100293a:	bec5                	j	100252a <__spl_start+0x1e42>
 100293c:	41698b33          	sub	s6,s3,s6
 1002940:	00fb0b3b          	addw	s6,s6,a5
 1002944:	016ba023          	sw	s6,0(s7)
 1002948:	bf9d                	j	10028be <__spl_start+0x21d6>
 100294a:	008ab783          	ld	a5,8(s5)
 100294e:	1a21                	addi	s4,s4,-24
 1002950:	ff0a7a13          	andi	s4,s4,-16
 1002954:	8b85                	andi	a5,a5,1
 1002956:	0147e7b3          	or	a5,a5,s4
 100295a:	00fab423          	sd	a5,8(s5)
 100295e:	46a5                	li	a3,9
 1002960:	014a87b3          	add	a5,s5,s4
 1002964:	e794                	sd	a3,8(a5)
 1002966:	eb94                	sd	a3,16(a5)
 1002968:	e14770e3          	bgeu	a4,s4,1002768 <__spl_start+0x2080>
 100296c:	010a8513          	addi	a0,s5,16
 1002970:	975ff0ef          	jal	ra,10022e4 <__spl_start+0x1bfc>
 1002974:	bbd5                	j	1002768 <__spl_start+0x2080>
 1002976:	02b50633          	mul	a2,a0,a1
 100297a:	7139                	addi	sp,sp,-64
 100297c:	f822                	sd	s0,48(sp)
 100297e:	f04a                	sd	s2,32(sp)
 1002980:	ec4e                	sd	s3,24(sp)
 1002982:	fc06                	sd	ra,56(sp)
 1002984:	f426                	sd	s1,40(sp)
 1002986:	00008997          	auipc	s3,0x8
 100298a:	cf29b983          	ld	s3,-782(s3) # 100a678 <__spl_start+0x9f90>
 100298e:	892a                	mv	s2,a0
 1002990:	0089b483          	ld	s1,8(s3)
 1002994:	8532                	mv	a0,a2
 1002996:	e432                	sd	a2,8(sp)
 1002998:	4401                	li	s0,0
 100299a:	afbff0ef          	jal	ra,1002494 <__spl_start+0x1dac>
 100299e:	06094163          	bltz	s2,1002a00 <__spl_start+0x2318>
 10029a2:	842a                	mv	s0,a0
 10029a4:	cd31                	beqz	a0,1002a00 <__spl_start+0x2318>
 10029a6:	0081b783          	ld	a5,8(gp)
 10029aa:	6622                	ld	a2,8(sp)
 10029ac:	4581                	li	a1,0
 10029ae:	2007f793          	andi	a5,a5,512
 10029b2:	c3c1                	beqz	a5,1002a32 <__spl_start+0x234a>
 10029b4:	ff853603          	ld	a2,-8(a0)
 10029b8:	ff050793          	addi	a5,a0,-16
 10029bc:	9a71                	andi	a2,a2,-4
 10029be:	00f99763          	bne	s3,a5,10029cc <__spl_start+0x22e4>
 10029c2:	ffc4f793          	andi	a5,s1,-4
 10029c6:	00c7f363          	bgeu	a5,a2,10029cc <__spl_start+0x22e4>
 10029ca:	863e                	mv	a2,a5
 10029cc:	1661                	addi	a2,a2,-8
 10029ce:	04800713          	li	a4,72
 10029d2:	04c76e63          	bltu	a4,a2,1002a2e <__spl_start+0x2346>
 10029d6:	02700693          	li	a3,39
 10029da:	87a2                	mv	a5,s0
 10029dc:	00c6fc63          	bgeu	a3,a2,10029f4 <__spl_start+0x230c>
 10029e0:	00043023          	sd	zero,0(s0)
 10029e4:	00043423          	sd	zero,8(s0)
 10029e8:	03700793          	li	a5,55
 10029ec:	02c7e263          	bltu	a5,a2,1002a10 <__spl_start+0x2328>
 10029f0:	01040793          	addi	a5,s0,16
 10029f4:	0007b023          	sd	zero,0(a5) # fffffffffffff000 <__soc_ctrl_scratch1+0xfffffffffdffefe8>
 10029f8:	0007b423          	sd	zero,8(a5)
 10029fc:	0007b823          	sd	zero,16(a5)
 1002a00:	70e2                	ld	ra,56(sp)
 1002a02:	8522                	mv	a0,s0
 1002a04:	7442                	ld	s0,48(sp)
 1002a06:	74a2                	ld	s1,40(sp)
 1002a08:	7902                	ld	s2,32(sp)
 1002a0a:	69e2                	ld	s3,24(sp)
 1002a0c:	6121                	addi	sp,sp,64
 1002a0e:	8082                	ret
 1002a10:	00043823          	sd	zero,16(s0)
 1002a14:	00043c23          	sd	zero,24(s0)
 1002a18:	02040793          	addi	a5,s0,32
 1002a1c:	fce61ce3          	bne	a2,a4,10029f4 <__spl_start+0x230c>
 1002a20:	02043023          	sd	zero,32(s0)
 1002a24:	03040793          	addi	a5,s0,48
 1002a28:	02043423          	sd	zero,40(s0)
 1002a2c:	b7e1                	j	10029f4 <__spl_start+0x230c>
 1002a2e:	4581                	li	a1,0
 1002a30:	8522                	mv	a0,s0
 1002a32:	c76fe0ef          	jal	ra,1000ea8 <__spl_start+0x7c0>
 1002a36:	b7e9                	j	1002a00 <__spl_start+0x2318>
 1002a38:	7179                	addi	sp,sp,-48
 1002a3a:	f406                	sd	ra,40(sp)
 1002a3c:	f022                	sd	s0,32(sp)
 1002a3e:	ec26                	sd	s1,24(sp)
 1002a40:	e84a                	sd	s2,16(sp)
 1002a42:	e44e                	sd	s3,8(sp)
 1002a44:	e052                	sd	s4,0(sp)
 1002a46:	0005dc63          	bgez	a1,1002a5e <__spl_start+0x2376>
 1002a4a:	4401                	li	s0,0
 1002a4c:	70a2                	ld	ra,40(sp)
 1002a4e:	8522                	mv	a0,s0
 1002a50:	7402                	ld	s0,32(sp)
 1002a52:	64e2                	ld	s1,24(sp)
 1002a54:	6942                	ld	s2,16(sp)
 1002a56:	69a2                	ld	s3,8(sp)
 1002a58:	6a02                	ld	s4,0(sp)
 1002a5a:	6145                	addi	sp,sp,48
 1002a5c:	8082                	ret
 1002a5e:	0081b783          	ld	a5,8(gp)
 1002a62:	2007f793          	andi	a5,a5,512
 1002a66:	eb89                	bnez	a5,1002a78 <__spl_start+0x2390>
 1002a68:	7402                	ld	s0,32(sp)
 1002a6a:	70a2                	ld	ra,40(sp)
 1002a6c:	64e2                	ld	s1,24(sp)
 1002a6e:	6942                	ld	s2,16(sp)
 1002a70:	69a2                	ld	s3,8(sp)
 1002a72:	6a02                	ld	s4,0(sp)
 1002a74:	6145                	addi	sp,sp,48
 1002a76:	aa89                	j	1002bc8 <__spl_start+0x24e0>
 1002a78:	47c1                	li	a5,16
 1002a7a:	84aa                	mv	s1,a0
 1002a7c:	892e                	mv	s2,a1
 1002a7e:	00a7ec63          	bltu	a5,a0,1002a96 <__spl_start+0x23ae>
 1002a82:	7402                	ld	s0,32(sp)
 1002a84:	70a2                	ld	ra,40(sp)
 1002a86:	64e2                	ld	s1,24(sp)
 1002a88:	6942                	ld	s2,16(sp)
 1002a8a:	69a2                	ld	s3,8(sp)
 1002a8c:	6a02                	ld	s4,0(sp)
 1002a8e:	852e                	mv	a0,a1
 1002a90:	6145                	addi	sp,sp,48
 1002a92:	a03ff06f          	j	1002494 <__spl_start+0x1dac>
 1002a96:	02000793          	li	a5,32
 1002a9a:	00f57463          	bgeu	a0,a5,1002aa2 <__spl_start+0x23ba>
 1002a9e:	02000493          	li	s1,32
 1002aa2:	01790793          	addi	a5,s2,23
 1002aa6:	02e00713          	li	a4,46
 1002aaa:	02000993          	li	s3,32
 1002aae:	00f75463          	bge	a4,a5,1002ab6 <__spl_start+0x23ce>
 1002ab2:	ff07f993          	andi	s3,a5,-16
 1002ab6:	02048513          	addi	a0,s1,32
 1002aba:	954e                	add	a0,a0,s3
 1002abc:	9d9ff0ef          	jal	ra,1002494 <__spl_start+0x1dac>
 1002ac0:	87aa                	mv	a5,a0
 1002ac2:	ed05                	bnez	a0,1002afa <__spl_start+0x2412>
 1002ac4:	854a                	mv	a0,s2
 1002ac6:	9cfff0ef          	jal	ra,1002494 <__spl_start+0x1dac>
 1002aca:	02957a33          	remu	s4,a0,s1
 1002ace:	842a                	mv	s0,a0
 1002ad0:	f60a0ee3          	beqz	s4,1002a4c <__spl_start+0x2364>
 1002ad4:	811ff0ef          	jal	ra,10022e4 <__spl_start+0x1bfc>
 1002ad8:	41448a33          	sub	s4,s1,s4
 1002adc:	01490533          	add	a0,s2,s4
 1002ae0:	9b5ff0ef          	jal	ra,1002494 <__spl_start+0x1dac>
 1002ae4:	87aa                	mv	a5,a0
 1002ae6:	d135                	beqz	a0,1002a4a <__spl_start+0x2362>
 1002ae8:	02957733          	remu	a4,a0,s1
 1002aec:	40e48733          	sub	a4,s1,a4
 1002af0:	00ea7563          	bgeu	s4,a4,1002afa <__spl_start+0x2412>
 1002af4:	ff0ff0ef          	jal	ra,10022e4 <__spl_start+0x1bfc>
 1002af8:	bf89                	j	1002a4a <__spl_start+0x2362>
 1002afa:	0297f733          	remu	a4,a5,s1
 1002afe:	ff078413          	addi	s0,a5,-16
 1002b02:	cb21                	beqz	a4,1002b52 <__spl_start+0x246a>
 1002b04:	fff48913          	addi	s2,s1,-1
 1002b08:	4090073b          	negw	a4,s1
 1002b0c:	993e                	add	s2,s2,a5
 1002b0e:	00e97933          	and	s2,s2,a4
 1002b12:	1941                	addi	s2,s2,-16
 1002b14:	408906b3          	sub	a3,s2,s0
 1002b18:	477d                	li	a4,31
 1002b1a:	00d76363          	bltu	a4,a3,1002b20 <__spl_start+0x2438>
 1002b1e:	9926                	add	s2,s2,s1
 1002b20:	ff87b703          	ld	a4,-8(a5)
 1002b24:	40890433          	sub	s0,s2,s0
 1002b28:	853e                	mv	a0,a5
 1002b2a:	9b71                	andi	a4,a4,-4
 1002b2c:	8f01                	sub	a4,a4,s0
 1002b2e:	00176693          	ori	a3,a4,1
 1002b32:	00d93423          	sd	a3,8(s2)
 1002b36:	974a                	add	a4,a4,s2
 1002b38:	6714                	ld	a3,8(a4)
 1002b3a:	0016e693          	ori	a3,a3,1
 1002b3e:	e714                	sd	a3,8(a4)
 1002b40:	ff87b703          	ld	a4,-8(a5)
 1002b44:	8b05                	andi	a4,a4,1
 1002b46:	8f41                	or	a4,a4,s0
 1002b48:	fee7bc23          	sd	a4,-8(a5)
 1002b4c:	f98ff0ef          	jal	ra,10022e4 <__spl_start+0x1bfc>
 1002b50:	844a                	mv	s0,s2
 1002b52:	641c                	ld	a5,8(s0)
 1002b54:	477d                	li	a4,31
 1002b56:	9bf1                	andi	a5,a5,-4
 1002b58:	413787b3          	sub	a5,a5,s3
 1002b5c:	00f75f63          	bge	a4,a5,1002b7a <__spl_start+0x2492>
 1002b60:	01340533          	add	a0,s0,s3
 1002b64:	0017e793          	ori	a5,a5,1
 1002b68:	e51c                	sd	a5,8(a0)
 1002b6a:	641c                	ld	a5,8(s0)
 1002b6c:	0541                	addi	a0,a0,16
 1002b6e:	8b85                	andi	a5,a5,1
 1002b70:	0137e7b3          	or	a5,a5,s3
 1002b74:	e41c                	sd	a5,8(s0)
 1002b76:	f6eff0ef          	jal	ra,10022e4 <__spl_start+0x1bfc>
 1002b7a:	0441                	addi	s0,s0,16
 1002b7c:	bdc1                	j	1002a4c <__spl_start+0x2364>
 1002b7e:	1201b703          	ld	a4,288(gp)
 1002b82:	1301b783          	ld	a5,304(gp)
 1002b86:	1281b603          	ld	a2,296(gp)
 1002b8a:	8d19                	sub	a0,a0,a4
 1002b8c:	97ba                	add	a5,a5,a4
 1002b8e:	17fd                	addi	a5,a5,-1
 1002b90:	97ae                	add	a5,a5,a1
 1002b92:	40b005b3          	neg	a1,a1
 1002b96:	8fed                	and	a5,a5,a1
 1002b98:	00f50733          	add	a4,a0,a5
 1002b9c:	00e67e63          	bgeu	a2,a4,1002bb8 <__spl_start+0x24d0>
 1002ba0:	1141                	addi	sp,sp,-16
 1002ba2:	00005517          	auipc	a0,0x5
 1002ba6:	08650513          	addi	a0,a0,134 # 1007c28 <__spl_start+0x7540>
 1002baa:	e406                	sd	ra,8(sp)
 1002bac:	4e1010ef          	jal	ra,100488c <__spl_start+0x41a4>
 1002bb0:	60a2                	ld	ra,8(sp)
 1002bb2:	4501                	li	a0,0
 1002bb4:	0141                	addi	sp,sp,16
 1002bb6:	8082                	ret
 1002bb8:	071d                	addi	a4,a4,7
 1002bba:	9b61                	andi	a4,a4,-8
 1002bbc:	853e                	mv	a0,a5
 1002bbe:	12e1b823          	sd	a4,304(gp)
 1002bc2:	8082                	ret
 1002bc4:	4585                	li	a1,1
 1002bc6:	bf65                	j	1002b7e <__spl_start+0x2496>
 1002bc8:	87ae                	mv	a5,a1
 1002bca:	0005059b          	sext.w	a1,a0
 1002bce:	853e                	mv	a0,a5
 1002bd0:	b77d                	j	1002b7e <__spl_start+0x2496>
 1002bd2:	1101                	addi	sp,sp,-32
 1002bd4:	e822                	sd	s0,16(sp)
 1002bd6:	e426                	sd	s1,8(sp)
 1002bd8:	ec06                	sd	ra,24(sp)
 1002bda:	842a                	mv	s0,a0
 1002bdc:	84b2                	mv	s1,a2
 1002bde:	401c                	lw	a5,0(s0)
 1002be0:	0007d463          	bgez	a5,1002be8 <__spl_start+0x2500>
 1002be4:	557d                	li	a0,-1
 1002be6:	a801                	j	1002bf6 <__spl_start+0x250e>
 1002be8:	6408                	ld	a0,8(s0)
 1002bea:	c919                	beqz	a0,1002c00 <__spl_start+0x2518>
 1002bec:	85a6                	mv	a1,s1
 1002bee:	76a010ef          	jal	ra,1004358 <__spl_start+0x3c70>
 1002bf2:	e519                	bnez	a0,1002c00 <__spl_start+0x2518>
 1002bf4:	4008                	lw	a0,0(s0)
 1002bf6:	60e2                	ld	ra,24(sp)
 1002bf8:	6442                	ld	s0,16(sp)
 1002bfa:	64a2                	ld	s1,8(sp)
 1002bfc:	6105                	addi	sp,sp,32
 1002bfe:	8082                	ret
 1002c00:	0461                	addi	s0,s0,24
 1002c02:	bff1                	j	1002bde <__spl_start+0x24f6>
 1002c04:	862a                	mv	a2,a0
 1002c06:	00007597          	auipc	a1,0x7
 1002c0a:	1d258593          	addi	a1,a1,466 # 1009dd8 <__spl_start+0x96f0>
 1002c0e:	00008517          	auipc	a0,0x8
 1002c12:	27a50513          	addi	a0,a0,634 # 100ae88 <__spl_start+0xa7a0>
 1002c16:	bf75                	j	1002bd2 <__spl_start+0x24ea>
 1002c18:	7179                	addi	sp,sp,-48
 1002c1a:	ec26                	sd	s1,24(sp)
 1002c1c:	84b6                	mv	s1,a3
 1002c1e:	0074                	addi	a3,sp,12
 1002c20:	f022                	sd	s0,32(sp)
 1002c22:	e84a                	sd	s2,16(sp)
 1002c24:	f406                	sd	ra,40(sp)
 1002c26:	8932                	mv	s2,a2
 1002c28:	1d9000ef          	jal	ra,1003600 <__spl_start+0x2f18>
 1002c2c:	547d                	li	s0,-1
 1002c2e:	c91d                	beqz	a0,1002c64 <__spl_start+0x257c>
 1002c30:	45b2                	lw	a1,12(sp)
 1002c32:	66c1                	lui	a3,0x10
 1002c34:	4781                	li	a5,0
 1002c36:	4025d413          	srai	s0,a1,0x2
 1002c3a:	58fd                	li	a7,-1
 1002c3c:	00ff0337          	lui	t1,0xff0
 1002c40:	f0068693          	addi	a3,a3,-256 # ff00 <_start-0xff0100>
 1002c44:	347d                	addiw	s0,s0,-1
 1002c46:	03141663          	bne	s0,a7,1002c72 <__spl_start+0x258a>
 1002c4a:	4721                	li	a4,8
 1002c4c:	04b77a63          	bgeu	a4,a1,1002ca0 <__spl_start+0x25b8>
 1002c50:	0207d713          	srli	a4,a5,0x20
 1002c54:	c731                	beqz	a4,1002ca0 <__spl_start+0x25b8>
 1002c56:	85ca                	mv	a1,s2
 1002c58:	00005517          	auipc	a0,0x5
 1002c5c:	2f850513          	addi	a0,a0,760 # 1007f50 <__spl_start+0x7868>
 1002c60:	42d010ef          	jal	ra,100488c <__spl_start+0x41a4>
 1002c64:	70a2                	ld	ra,40(sp)
 1002c66:	8522                	mv	a0,s0
 1002c68:	7402                	ld	s0,32(sp)
 1002c6a:	64e2                	ld	s1,24(sp)
 1002c6c:	6942                	ld	s2,16(sp)
 1002c6e:	6145                	addi	sp,sp,48
 1002c70:	8082                	ret
 1002c72:	4118                	lw	a4,0(a0)
 1002c74:	02079813          	slli	a6,a5,0x20
 1002c78:	0511                	addi	a0,a0,4
 1002c7a:	0187561b          	srliw	a2,a4,0x18
 1002c7e:	0187179b          	slliw	a5,a4,0x18
 1002c82:	8fd1                	or	a5,a5,a2
 1002c84:	0087161b          	slliw	a2,a4,0x8
 1002c88:	00667633          	and	a2,a2,t1
 1002c8c:	0087571b          	srliw	a4,a4,0x8
 1002c90:	8fd1                	or	a5,a5,a2
 1002c92:	8f75                	and	a4,a4,a3
 1002c94:	8fd9                	or	a5,a5,a4
 1002c96:	1782                	slli	a5,a5,0x20
 1002c98:	9381                	srli	a5,a5,0x20
 1002c9a:	0107e7b3          	or	a5,a5,a6
 1002c9e:	b75d                	j	1002c44 <__spl_start+0x255c>
 1002ca0:	e09c                	sd	a5,0(s1)
 1002ca2:	4401                	li	s0,0
 1002ca4:	b7c1                	j	1002c64 <__spl_start+0x257c>
 1002ca6:	1101                	addi	sp,sp,-32
 1002ca8:	e822                	sd	s0,16(sp)
 1002caa:	0074                	addi	a3,sp,12
 1002cac:	8432                	mv	s0,a2
 1002cae:	00007617          	auipc	a2,0x7
 1002cb2:	85a60613          	addi	a2,a2,-1958 # 1009508 <__spl_start+0x8e20>
 1002cb6:	ec06                	sd	ra,24(sp)
 1002cb8:	149000ef          	jal	ra,1003600 <__spl_start+0x2f18>
 1002cbc:	cd01                	beqz	a0,1002cd4 <__spl_start+0x25ec>
 1002cbe:	f47ff0ef          	jal	ra,1002c04 <__spl_start+0x251c>
 1002cc2:	0ff57793          	andi	a5,a0,255
 1002cc6:	4501                	li	a0,0
 1002cc8:	60e2                	ld	ra,24(sp)
 1002cca:	00f40023          	sb	a5,0(s0)
 1002cce:	6442                	ld	s0,16(sp)
 1002cd0:	6105                	addi	sp,sp,32
 1002cd2:	8082                	ret
 1002cd4:	0ff00793          	li	a5,255
 1002cd8:	557d                	li	a0,-1
 1002cda:	b7fd                	j	1002cc8 <__spl_start+0x25e0>
 1002cdc:	86b2                	mv	a3,a2
 1002cde:	00005617          	auipc	a2,0x5
 1002ce2:	19a60613          	addi	a2,a2,410 # 1007e78 <__spl_start+0x7790>
 1002ce6:	bf0d                	j	1002c18 <__spl_start+0x2530>
 1002ce8:	86b2                	mv	a3,a2
 1002cea:	00005617          	auipc	a2,0x5
 1002cee:	19660613          	addi	a2,a2,406 # 1007e80 <__spl_start+0x7798>
 1002cf2:	b71d                	j	1002c18 <__spl_start+0x2530>
 1002cf4:	7179                	addi	sp,sp,-48
 1002cf6:	f022                	sd	s0,32(sp)
 1002cf8:	ec26                	sd	s1,24(sp)
 1002cfa:	8436                	mv	s0,a3
 1002cfc:	84b2                	mv	s1,a2
 1002cfe:	0074                	addi	a3,sp,12
 1002d00:	00005617          	auipc	a2,0x5
 1002d04:	27060613          	addi	a2,a2,624 # 1007f70 <__spl_start+0x7888>
 1002d08:	f406                	sd	ra,40(sp)
 1002d0a:	0f7000ef          	jal	ra,1003600 <__spl_start+0x2f18>
 1002d0e:	e088                	sd	a0,0(s1)
 1002d10:	c909                	beqz	a0,1002d22 <__spl_start+0x263a>
 1002d12:	47b2                	lw	a5,12(sp)
 1002d14:	4501                	li	a0,0
 1002d16:	70a2                	ld	ra,40(sp)
 1002d18:	e01c                	sd	a5,0(s0)
 1002d1a:	7402                	ld	s0,32(sp)
 1002d1c:	64e2                	ld	s1,24(sp)
 1002d1e:	6145                	addi	sp,sp,48
 1002d20:	8082                	ret
 1002d22:	4781                	li	a5,0
 1002d24:	557d                	li	a0,-1
 1002d26:	bfc5                	j	1002d16 <__spl_start+0x262e>
 1002d28:	1141                	addi	sp,sp,-16
 1002d2a:	e022                	sd	s0,0(sp)
 1002d2c:	4681                	li	a3,0
 1002d2e:	8432                	mv	s0,a2
 1002d30:	00005617          	auipc	a2,0x5
 1002d34:	24860613          	addi	a2,a2,584 # 1007f78 <__spl_start+0x7890>
 1002d38:	e406                	sd	ra,8(sp)
 1002d3a:	0c7000ef          	jal	ra,1003600 <__spl_start+0x2f18>
 1002d3e:	c915                	beqz	a0,1002d72 <__spl_start+0x268a>
 1002d40:	411c                	lw	a5,0(a0)
 1002d42:	00ff0637          	lui	a2,0xff0
 1002d46:	4501                	li	a0,0
 1002d48:	0187d69b          	srliw	a3,a5,0x18
 1002d4c:	0187971b          	slliw	a4,a5,0x18
 1002d50:	8f55                	or	a4,a4,a3
 1002d52:	0087969b          	slliw	a3,a5,0x8
 1002d56:	8ef1                	and	a3,a3,a2
 1002d58:	8f55                	or	a4,a4,a3
 1002d5a:	66c1                	lui	a3,0x10
 1002d5c:	0087d79b          	srliw	a5,a5,0x8
 1002d60:	f0068693          	addi	a3,a3,-256 # ff00 <_start-0xff0100>
 1002d64:	8ff5                	and	a5,a5,a3
 1002d66:	8fd9                	or	a5,a5,a4
 1002d68:	c01c                	sw	a5,0(s0)
 1002d6a:	60a2                	ld	ra,8(sp)
 1002d6c:	6402                	ld	s0,0(sp)
 1002d6e:	0141                	addi	sp,sp,16
 1002d70:	8082                	ret
 1002d72:	5579                	li	a0,-2
 1002d74:	bfdd                	j	1002d6a <__spl_start+0x2682>
 1002d76:	1141                	addi	sp,sp,-16
 1002d78:	e022                	sd	s0,0(sp)
 1002d7a:	4681                	li	a3,0
 1002d7c:	8432                	mv	s0,a2
 1002d7e:	00005617          	auipc	a2,0x5
 1002d82:	20a60613          	addi	a2,a2,522 # 1007f88 <__spl_start+0x78a0>
 1002d86:	e406                	sd	ra,8(sp)
 1002d88:	079000ef          	jal	ra,1003600 <__spl_start+0x2f18>
 1002d8c:	c915                	beqz	a0,1002dc0 <__spl_start+0x26d8>
 1002d8e:	411c                	lw	a5,0(a0)
 1002d90:	00ff0637          	lui	a2,0xff0
 1002d94:	4501                	li	a0,0
 1002d96:	0187d69b          	srliw	a3,a5,0x18
 1002d9a:	0187971b          	slliw	a4,a5,0x18
 1002d9e:	8f55                	or	a4,a4,a3
 1002da0:	0087969b          	slliw	a3,a5,0x8
 1002da4:	8ef1                	and	a3,a3,a2
 1002da6:	8f55                	or	a4,a4,a3
 1002da8:	66c1                	lui	a3,0x10
 1002daa:	0087d79b          	srliw	a5,a5,0x8
 1002dae:	f0068693          	addi	a3,a3,-256 # ff00 <_start-0xff0100>
 1002db2:	8ff5                	and	a5,a5,a3
 1002db4:	8fd9                	or	a5,a5,a4
 1002db6:	c01c                	sw	a5,0(s0)
 1002db8:	60a2                	ld	ra,8(sp)
 1002dba:	6402                	ld	s0,0(sp)
 1002dbc:	0141                	addi	sp,sp,16
 1002dbe:	8082                	ret
 1002dc0:	5579                	li	a0,-2
 1002dc2:	bfdd                	j	1002db8 <__spl_start+0x26d0>
 1002dc4:	1141                	addi	sp,sp,-16
 1002dc6:	e022                	sd	s0,0(sp)
 1002dc8:	4681                	li	a3,0
 1002dca:	8432                	mv	s0,a2
 1002dcc:	00005617          	auipc	a2,0x5
 1002dd0:	1cc60613          	addi	a2,a2,460 # 1007f98 <__spl_start+0x78b0>
 1002dd4:	e406                	sd	ra,8(sp)
 1002dd6:	02b000ef          	jal	ra,1003600 <__spl_start+0x2f18>
 1002dda:	c915                	beqz	a0,1002e0e <__spl_start+0x2726>
 1002ddc:	411c                	lw	a5,0(a0)
 1002dde:	00ff0637          	lui	a2,0xff0
 1002de2:	4501                	li	a0,0
 1002de4:	0187d69b          	srliw	a3,a5,0x18
 1002de8:	0187971b          	slliw	a4,a5,0x18
 1002dec:	8f55                	or	a4,a4,a3
 1002dee:	0087969b          	slliw	a3,a5,0x8
 1002df2:	8ef1                	and	a3,a3,a2
 1002df4:	8f55                	or	a4,a4,a3
 1002df6:	66c1                	lui	a3,0x10
 1002df8:	0087d79b          	srliw	a5,a5,0x8
 1002dfc:	f0068693          	addi	a3,a3,-256 # ff00 <_start-0xff0100>
 1002e00:	8ff5                	and	a5,a5,a3
 1002e02:	8fd9                	or	a5,a5,a4
 1002e04:	c01c                	sw	a5,0(s0)
 1002e06:	60a2                	ld	ra,8(sp)
 1002e08:	6402                	ld	s0,0(sp)
 1002e0a:	0141                	addi	sp,sp,16
 1002e0c:	8082                	ret
 1002e0e:	5579                	li	a0,-2
 1002e10:	bfdd                	j	1002e06 <__spl_start+0x271e>
 1002e12:	02800513          	li	a0,40
 1002e16:	8082                	ret
 1002e18:	4118                	lw	a4,0(a0)
 1002e1a:	00ff0637          	lui	a2,0xff0
 1002e1e:	0187169b          	slliw	a3,a4,0x18
 1002e22:	0187579b          	srliw	a5,a4,0x18
 1002e26:	8fd5                	or	a5,a5,a3
 1002e28:	0087169b          	slliw	a3,a4,0x8
 1002e2c:	8ef1                	and	a3,a3,a2
 1002e2e:	8fd5                	or	a5,a5,a3
 1002e30:	66c1                	lui	a3,0x10
 1002e32:	0087571b          	srliw	a4,a4,0x8
 1002e36:	f0068693          	addi	a3,a3,-256 # ff00 <_start-0xff0100>
 1002e3a:	8f75                	and	a4,a4,a3
 1002e3c:	8fd9                	or	a5,a5,a4
 1002e3e:	d00e0737          	lui	a4,0xd00e0
 1002e42:	2781                	sext.w	a5,a5
 1002e44:	eed70713          	addi	a4,a4,-275 # ffffffffd00dfeed <__soc_ctrl_scratch1+0xffffffffce0dfed5>
 1002e48:	00e79a63          	bne	a5,a4,1002e5c <__spl_start+0x2774>
 1002e4c:	1141                	addi	sp,sp,-16
 1002e4e:	e406                	sd	ra,8(sp)
 1002e50:	fc3ff0ef          	jal	ra,1002e12 <__spl_start+0x272a>
 1002e54:	60a2                	ld	ra,8(sp)
 1002e56:	4501                	li	a0,0
 1002e58:	0141                	addi	sp,sp,16
 1002e5a:	8082                	ret
 1002e5c:	555d                	li	a0,-9
 1002e5e:	8082                	ret
 1002e60:	86aa                	mv	a3,a0
 1002e62:	0005879b          	sext.w	a5,a1
 1002e66:	0605c563          	bltz	a1,1002ed0 <__spl_start+0x27e8>
 1002e6a:	9e3d                	addw	a2,a2,a5
 1002e6c:	4501                	li	a0,0
 1002e6e:	06f66263          	bltu	a2,a5,1002ed2 <__spl_start+0x27ea>
 1002e72:	52d8                	lw	a4,36(a3)
 1002e74:	00ff08b7          	lui	a7,0xff0
 1002e78:	6841                	lui	a6,0x10
 1002e7a:	0187551b          	srliw	a0,a4,0x18
 1002e7e:	0187179b          	slliw	a5,a4,0x18
 1002e82:	8fc9                	or	a5,a5,a0
 1002e84:	0087151b          	slliw	a0,a4,0x8
 1002e88:	01157533          	and	a0,a0,a7
 1002e8c:	0087571b          	srliw	a4,a4,0x8
 1002e90:	f0080813          	addi	a6,a6,-256 # ff00 <_start-0xff0100>
 1002e94:	8fc9                	or	a5,a5,a0
 1002e96:	01077733          	and	a4,a4,a6
 1002e9a:	8fd9                	or	a5,a5,a4
 1002e9c:	2781                	sext.w	a5,a5
 1002e9e:	4501                	li	a0,0
 1002ea0:	02c7e963          	bltu	a5,a2,1002ed2 <__spl_start+0x27ea>
 1002ea4:	4698                	lw	a4,8(a3)
 1002ea6:	0187561b          	srliw	a2,a4,0x18
 1002eaa:	0187179b          	slliw	a5,a4,0x18
 1002eae:	8fd1                	or	a5,a5,a2
 1002eb0:	0087161b          	slliw	a2,a4,0x8
 1002eb4:	01167633          	and	a2,a2,a7
 1002eb8:	0087571b          	srliw	a4,a4,0x8
 1002ebc:	8fd1                	or	a5,a5,a2
 1002ebe:	01077733          	and	a4,a4,a6
 1002ec2:	8fd9                	or	a5,a5,a4
 1002ec4:	1782                	slli	a5,a5,0x20
 1002ec6:	9381                	srli	a5,a5,0x20
 1002ec8:	95be                	add	a1,a1,a5
 1002eca:	00b68533          	add	a0,a3,a1
 1002ece:	8082                	ret
 1002ed0:	4501                	li	a0,0
 1002ed2:	8082                	ret
 1002ed4:	7179                	addi	sp,sp,-48
 1002ed6:	f022                	sd	s0,32(sp)
 1002ed8:	ec26                	sd	s1,24(sp)
 1002eda:	e84a                	sd	s2,16(sp)
 1002edc:	e44e                	sd	s3,8(sp)
 1002ede:	57e1                	li	a5,-8
 1002ee0:	f406                	sd	ra,40(sp)
 1002ee2:	e052                	sd	s4,0(sp)
 1002ee4:	c21c                	sw	a5,0(a2)
 1002ee6:	84b2                	mv	s1,a2
 1002ee8:	4611                	li	a2,4
 1002eea:	89aa                	mv	s3,a0
 1002eec:	842e                	mv	s0,a1
 1002eee:	f73ff0ef          	jal	ra,1002e60 <__spl_start+0x2778>
 1002ef2:	4118                	lw	a4,0(a0)
 1002ef4:	00ff0637          	lui	a2,0xff0
 1002ef8:	0187569b          	srliw	a3,a4,0x18
 1002efc:	0187179b          	slliw	a5,a4,0x18
 1002f00:	8fd5                	or	a5,a5,a3
 1002f02:	0087169b          	slliw	a3,a4,0x8
 1002f06:	8ef1                	and	a3,a3,a2
 1002f08:	8fd5                	or	a5,a5,a3
 1002f0a:	66c1                	lui	a3,0x10
 1002f0c:	f0068693          	addi	a3,a3,-256 # ff00 <_start-0xff0100>
 1002f10:	0087571b          	srliw	a4,a4,0x8
 1002f14:	8f75                	and	a4,a4,a3
 1002f16:	8fd9                	or	a5,a5,a4
 1002f18:	0007891b          	sext.w	s2,a5
 1002f1c:	5755                	li	a4,-11
 1002f1e:	37fd                	addiw	a5,a5,-1
 1002f20:	c098                	sw	a4,0(s1)
 1002f22:	0007869b          	sext.w	a3,a5
 1002f26:	4721                	li	a4,8
 1002f28:	08d76363          	bltu	a4,a3,1002fae <__spl_start+0x28c6>
 1002f2c:	02079713          	slli	a4,a5,0x20
 1002f30:	01e75793          	srli	a5,a4,0x1e
 1002f34:	00007717          	auipc	a4,0x7
 1002f38:	5a070713          	addi	a4,a4,1440 # 100a4d4 <__spl_start+0x9dec>
 1002f3c:	97ba                	add	a5,a5,a4
 1002f3e:	439c                	lw	a5,0(a5)
 1002f40:	00040a1b          	sext.w	s4,s0
 1002f44:	2411                	addiw	s0,s0,4
 1002f46:	97ba                	add	a5,a5,a4
 1002f48:	8782                	jr	a5
 1002f4a:	85a2                	mv	a1,s0
 1002f4c:	4605                	li	a2,1
 1002f4e:	854e                	mv	a0,s3
 1002f50:	2405                	addiw	s0,s0,1
 1002f52:	f0fff0ef          	jal	ra,1002e60 <__spl_start+0x2778>
 1002f56:	c501                	beqz	a0,1002f5e <__spl_start+0x2876>
 1002f58:	00054783          	lbu	a5,0(a0)
 1002f5c:	f7fd                	bnez	a5,1002f4a <__spl_start+0x2862>
 1002f5e:	240d                	addiw	s0,s0,3
 1002f60:	9871                	andi	s0,s0,-4
 1002f62:	c080                	sw	s0,0(s1)
 1002f64:	70a2                	ld	ra,40(sp)
 1002f66:	7402                	ld	s0,32(sp)
 1002f68:	64e2                	ld	s1,24(sp)
 1002f6a:	69a2                	ld	s3,8(sp)
 1002f6c:	6a02                	ld	s4,0(sp)
 1002f6e:	854a                	mv	a0,s2
 1002f70:	6942                	ld	s2,16(sp)
 1002f72:	6145                	addi	sp,sp,48
 1002f74:	8082                	ret
 1002f76:	85a2                	mv	a1,s0
 1002f78:	4611                	li	a2,4
 1002f7a:	854e                	mv	a0,s3
 1002f7c:	ee5ff0ef          	jal	ra,1002e60 <__spl_start+0x2778>
 1002f80:	411c                	lw	a5,0(a0)
 1002f82:	00ff06b7          	lui	a3,0xff0
 1002f86:	2a31                	addiw	s4,s4,12
 1002f88:	0187d71b          	srliw	a4,a5,0x18
 1002f8c:	0187941b          	slliw	s0,a5,0x18
 1002f90:	8c59                	or	s0,s0,a4
 1002f92:	0087971b          	slliw	a4,a5,0x8
 1002f96:	8f75                	and	a4,a4,a3
 1002f98:	8c59                	or	s0,s0,a4
 1002f9a:	6741                	lui	a4,0x10
 1002f9c:	0087d79b          	srliw	a5,a5,0x8
 1002fa0:	f0070713          	addi	a4,a4,-256 # ff00 <_start-0xff0100>
 1002fa4:	8ff9                	and	a5,a5,a4
 1002fa6:	8c5d                	or	s0,s0,a5
 1002fa8:	008a043b          	addw	s0,s4,s0
 1002fac:	bf4d                	j	1002f5e <__spl_start+0x2876>
 1002fae:	4925                	li	s2,9
 1002fb0:	bf55                	j	1002f64 <__spl_start+0x287c>
 1002fb2:	1101                	addi	sp,sp,-32
 1002fb4:	ec06                	sd	ra,24(sp)
 1002fb6:	c62e                	sw	a1,12(sp)
 1002fb8:	0005d663          	bgez	a1,1002fc4 <__spl_start+0x28dc>
 1002fbc:	5571                	li	a0,-4
 1002fbe:	60e2                	ld	ra,24(sp)
 1002fc0:	6105                	addi	sp,sp,32
 1002fc2:	8082                	ret
 1002fc4:	0035f793          	andi	a5,a1,3
 1002fc8:	fbf5                	bnez	a5,1002fbc <__spl_start+0x28d4>
 1002fca:	0070                	addi	a2,sp,12
 1002fcc:	f09ff0ef          	jal	ra,1002ed4 <__spl_start+0x27ec>
 1002fd0:	2501                	sext.w	a0,a0
 1002fd2:	4785                	li	a5,1
 1002fd4:	fef514e3          	bne	a0,a5,1002fbc <__spl_start+0x28d4>
 1002fd8:	4532                	lw	a0,12(sp)
 1002fda:	b7d5                	j	1002fbe <__spl_start+0x28d6>
 1002fdc:	1101                	addi	sp,sp,-32
 1002fde:	ec06                	sd	ra,24(sp)
 1002fe0:	c62e                	sw	a1,12(sp)
 1002fe2:	0005d663          	bgez	a1,1002fee <__spl_start+0x2906>
 1002fe6:	5571                	li	a0,-4
 1002fe8:	60e2                	ld	ra,24(sp)
 1002fea:	6105                	addi	sp,sp,32
 1002fec:	8082                	ret
 1002fee:	0035f793          	andi	a5,a1,3
 1002ff2:	fbf5                	bnez	a5,1002fe6 <__spl_start+0x28fe>
 1002ff4:	0070                	addi	a2,sp,12
 1002ff6:	edfff0ef          	jal	ra,1002ed4 <__spl_start+0x27ec>
 1002ffa:	2501                	sext.w	a0,a0
 1002ffc:	478d                	li	a5,3
 1002ffe:	fef514e3          	bne	a0,a5,1002fe6 <__spl_start+0x28fe>
 1003002:	4532                	lw	a0,12(sp)
 1003004:	b7d5                	j	1002fe8 <__spl_start+0x2900>
 1003006:	715d                	addi	sp,sp,-80
 1003008:	fc26                	sd	s1,56(sp)
 100300a:	f84a                	sd	s2,48(sp)
 100300c:	e486                	sd	ra,72(sp)
 100300e:	e0a2                	sd	s0,64(sp)
 1003010:	f44e                	sd	s3,40(sp)
 1003012:	f052                	sd	s4,32(sp)
 1003014:	ec56                	sd	s5,24(sp)
 1003016:	e85a                	sd	s6,16(sp)
 1003018:	c602                	sw	zero,12(sp)
 100301a:	892a                	mv	s2,a0
 100301c:	84b2                	mv	s1,a2
 100301e:	0205da63          	bgez	a1,1003052 <__spl_start+0x296a>
 1003022:	00c10993          	addi	s3,sp,12
 1003026:	4a09                	li	s4,2
 1003028:	4aa5                	li	s5,9
 100302a:	4b05                	li	s6,1
 100302c:	4432                	lw	s0,12(sp)
 100302e:	864e                	mv	a2,s3
 1003030:	854a                	mv	a0,s2
 1003032:	85a2                	mv	a1,s0
 1003034:	ea1ff0ef          	jal	ra,1002ed4 <__spl_start+0x27ec>
 1003038:	0005079b          	sext.w	a5,a0
 100303c:	03478c63          	beq	a5,s4,1003074 <__spl_start+0x298c>
 1003040:	05578363          	beq	a5,s5,1003086 <__spl_start+0x299e>
 1003044:	ff6794e3          	bne	a5,s6,100302c <__spl_start+0x2944>
 1003048:	c899                	beqz	s1,100305e <__spl_start+0x2976>
 100304a:	409c                	lw	a5,0(s1)
 100304c:	2785                	addiw	a5,a5,1
 100304e:	c09c                	sw	a5,0(s1)
 1003050:	a039                	j	100305e <__spl_start+0x2976>
 1003052:	f61ff0ef          	jal	ra,1002fb2 <__spl_start+0x28ca>
 1003056:	c62a                	sw	a0,12(sp)
 1003058:	842a                	mv	s0,a0
 100305a:	fc0554e3          	bgez	a0,1003022 <__spl_start+0x293a>
 100305e:	60a6                	ld	ra,72(sp)
 1003060:	8522                	mv	a0,s0
 1003062:	6406                	ld	s0,64(sp)
 1003064:	74e2                	ld	s1,56(sp)
 1003066:	7942                	ld	s2,48(sp)
 1003068:	79a2                	ld	s3,40(sp)
 100306a:	7a02                	ld	s4,32(sp)
 100306c:	6ae2                	ld	s5,24(sp)
 100306e:	6b42                	ld	s6,16(sp)
 1003070:	6161                	addi	sp,sp,80
 1003072:	8082                	ret
 1003074:	dcc5                	beqz	s1,100302c <__spl_start+0x2944>
 1003076:	409c                	lw	a5,0(s1)
 1003078:	fff7871b          	addiw	a4,a5,-1
 100307c:	c098                	sw	a4,0(s1)
 100307e:	fa0757e3          	bgez	a4,100302c <__spl_start+0x2944>
 1003082:	4432                	lw	s0,12(sp)
 1003084:	bfe9                	j	100305e <__spl_start+0x2976>
 1003086:	4432                	lw	s0,12(sp)
 1003088:	00045663          	bgez	s0,1003094 <__spl_start+0x29ac>
 100308c:	57e1                	li	a5,-8
 100308e:	fcf418e3          	bne	s0,a5,100305e <__spl_start+0x2976>
 1003092:	f4f1                	bnez	s1,100305e <__spl_start+0x2976>
 1003094:	547d                	li	s0,-1
 1003096:	b7e1                	j	100305e <__spl_start+0x2976>
 1003098:	1101                	addi	sp,sp,-32
 100309a:	0070                	addi	a2,sp,12
 100309c:	ec06                	sd	ra,24(sp)
 100309e:	c602                	sw	zero,12(sp)
 10030a0:	f67ff0ef          	jal	ra,1003006 <__spl_start+0x291e>
 10030a4:	00054663          	bltz	a0,10030b0 <__spl_start+0x29c8>
 10030a8:	4732                	lw	a4,12(sp)
 10030aa:	4785                	li	a5,1
 10030ac:	00f70363          	beq	a4,a5,10030b2 <__spl_start+0x29ca>
 10030b0:	557d                	li	a0,-1
 10030b2:	60e2                	ld	ra,24(sp)
 10030b4:	6105                	addi	sp,sp,32
 10030b6:	8082                	ret
 10030b8:	7179                	addi	sp,sp,-48
 10030ba:	4785                	li	a5,1
 10030bc:	f022                	sd	s0,32(sp)
 10030be:	ec26                	sd	s1,24(sp)
 10030c0:	e84a                	sd	s2,16(sp)
 10030c2:	f406                	sd	ra,40(sp)
 10030c4:	842a                	mv	s0,a0
 10030c6:	c63e                	sw	a5,12(sp)
 10030c8:	00c10913          	addi	s2,sp,12
 10030cc:	4485                	li	s1,1
 10030ce:	864a                	mv	a2,s2
 10030d0:	8522                	mv	a0,s0
 10030d2:	f35ff0ef          	jal	ra,1003006 <__spl_start+0x291e>
 10030d6:	85aa                	mv	a1,a0
 10030d8:	00054e63          	bltz	a0,10030f4 <__spl_start+0x2a0c>
 10030dc:	47b2                	lw	a5,12(sp)
 10030de:	00f05b63          	blez	a5,10030f4 <__spl_start+0x2a0c>
 10030e2:	fe9796e3          	bne	a5,s1,10030ce <__spl_start+0x29e6>
 10030e6:	70a2                	ld	ra,40(sp)
 10030e8:	7402                	ld	s0,32(sp)
 10030ea:	64e2                	ld	s1,24(sp)
 10030ec:	6942                	ld	s2,16(sp)
 10030ee:	852e                	mv	a0,a1
 10030f0:	6145                	addi	sp,sp,48
 10030f2:	8082                	ret
 10030f4:	55fd                	li	a1,-1
 10030f6:	bfc5                	j	10030e6 <__spl_start+0x29fe>
 10030f8:	7179                	addi	sp,sp,-48
 10030fa:	f022                	sd	s0,32(sp)
 10030fc:	842a                	mv	s0,a0
 10030fe:	8532                	mv	a0,a2
 1003100:	ec26                	sd	s1,24(sp)
 1003102:	e84a                	sd	s2,16(sp)
 1003104:	e44e                	sd	s3,8(sp)
 1003106:	84ae                	mv	s1,a1
 1003108:	f406                	sd	ra,40(sp)
 100310a:	89b2                	mv	s3,a2
 100310c:	29c010ef          	jal	ra,10043a8 <__spl_start+0x3cc0>
 1003110:	0015091b          	addiw	s2,a0,1
 1003114:	412484b3          	sub	s1,s1,s2
 1003118:	94a2                	add	s1,s1,s0
 100311a:	0084fb63          	bgeu	s1,s0,1003130 <__spl_start+0x2a48>
 100311e:	4401                	li	s0,0
 1003120:	70a2                	ld	ra,40(sp)
 1003122:	8522                	mv	a0,s0
 1003124:	7402                	ld	s0,32(sp)
 1003126:	64e2                	ld	s1,24(sp)
 1003128:	6942                	ld	s2,16(sp)
 100312a:	69a2                	ld	s3,8(sp)
 100312c:	6145                	addi	sp,sp,48
 100312e:	8082                	ret
 1003130:	864a                	mv	a2,s2
 1003132:	85ce                	mv	a1,s3
 1003134:	8522                	mv	a0,s0
 1003136:	29c010ef          	jal	ra,10043d2 <__spl_start+0x3cea>
 100313a:	d17d                	beqz	a0,1003120 <__spl_start+0x2a38>
 100313c:	0405                	addi	s0,s0,1
 100313e:	bff1                	j	100311a <__spl_start+0x2a32>
 1003140:	4918                	lw	a4,16(a0)
 1003142:	00ff0637          	lui	a2,0xff0
 1003146:	0592                	slli	a1,a1,0x4
 1003148:	0187569b          	srliw	a3,a4,0x18
 100314c:	0187179b          	slliw	a5,a4,0x18
 1003150:	8fd5                	or	a5,a5,a3
 1003152:	0087169b          	slliw	a3,a4,0x8
 1003156:	8ef1                	and	a3,a3,a2
 1003158:	8fd5                	or	a5,a5,a3
 100315a:	66c1                	lui	a3,0x10
 100315c:	f0068693          	addi	a3,a3,-256 # ff00 <_start-0xff0100>
 1003160:	0087571b          	srliw	a4,a4,0x8
 1003164:	8f75                	and	a4,a4,a3
 1003166:	8fd9                	or	a5,a5,a4
 1003168:	1782                	slli	a5,a5,0x20
 100316a:	9381                	srli	a5,a5,0x20
 100316c:	97ae                	add	a5,a5,a1
 100316e:	953e                	add	a0,a0,a5
 1003170:	8082                	ret
 1003172:	4518                	lw	a4,8(a0)
 1003174:	00ff0837          	lui	a6,0xff0
 1003178:	0187569b          	srliw	a3,a4,0x18
 100317c:	0187179b          	slliw	a5,a4,0x18
 1003180:	8fd5                	or	a5,a5,a3
 1003182:	0087169b          	slliw	a3,a4,0x8
 1003186:	0106f6b3          	and	a3,a3,a6
 100318a:	8fd5                	or	a5,a5,a3
 100318c:	66c1                	lui	a3,0x10
 100318e:	0087571b          	srliw	a4,a4,0x8
 1003192:	f0068693          	addi	a3,a3,-256 # ff00 <_start-0xff0100>
 1003196:	8f75                	and	a4,a4,a3
 1003198:	8fd9                	or	a5,a5,a4
 100319a:	1782                	slli	a5,a5,0x20
 100319c:	9381                	srli	a5,a5,0x20
 100319e:	97ae                	add	a5,a5,a1
 10031a0:	953e                	add	a0,a0,a5
 10031a2:	c20d                	beqz	a2,10031c4 <__spl_start+0x2adc>
 10031a4:	415c                	lw	a5,4(a0)
 10031a6:	0187d59b          	srliw	a1,a5,0x18
 10031aa:	0187971b          	slliw	a4,a5,0x18
 10031ae:	8f4d                	or	a4,a4,a1
 10031b0:	0087959b          	slliw	a1,a5,0x8
 10031b4:	0105f5b3          	and	a1,a1,a6
 10031b8:	0087d79b          	srliw	a5,a5,0x8
 10031bc:	8f4d                	or	a4,a4,a1
 10031be:	8ff5                	and	a5,a5,a3
 10031c0:	8fd9                	or	a5,a5,a4
 10031c2:	c21c                	sw	a5,0(a2)
 10031c4:	8082                	ret
 10031c6:	715d                	addi	sp,sp,-80
 10031c8:	e0a2                	sd	s0,64(sp)
 10031ca:	fc26                	sd	s1,56(sp)
 10031cc:	f84a                	sd	s2,48(sp)
 10031ce:	f44e                	sd	s3,40(sp)
 10031d0:	f052                	sd	s4,32(sp)
 10031d2:	ec56                	sd	s5,24(sp)
 10031d4:	e486                	sd	ra,72(sp)
 10031d6:	84aa                	mv	s1,a0
 10031d8:	842e                	mv	s0,a1
 10031da:	00c10993          	addi	s3,sp,12
 10031de:	4a0d                	li	s4,3
 10031e0:	4aa5                	li	s5,9
 10031e2:	4911                	li	s2,4
 10031e4:	864e                	mv	a2,s3
 10031e6:	85a2                	mv	a1,s0
 10031e8:	8526                	mv	a0,s1
 10031ea:	cebff0ef          	jal	ra,1002ed4 <__spl_start+0x27ec>
 10031ee:	0005079b          	sext.w	a5,a0
 10031f2:	01478c63          	beq	a5,s4,100320a <__spl_start+0x2b22>
 10031f6:	4432                	lw	s0,12(sp)
 10031f8:	01579663          	bne	a5,s5,1003204 <__spl_start+0x2b1c>
 10031fc:	00044763          	bltz	s0,100320a <__spl_start+0x2b22>
 1003200:	5455                	li	s0,-11
 1003202:	a021                	j	100320a <__spl_start+0x2b22>
 1003204:	ff2780e3          	beq	a5,s2,10031e4 <__spl_start+0x2afc>
 1003208:	547d                	li	s0,-1
 100320a:	60a6                	ld	ra,72(sp)
 100320c:	8522                	mv	a0,s0
 100320e:	6406                	ld	s0,64(sp)
 1003210:	74e2                	ld	s1,56(sp)
 1003212:	7942                	ld	s2,48(sp)
 1003214:	79a2                	ld	s3,40(sp)
 1003216:	7a02                	ld	s4,32(sp)
 1003218:	6ae2                	ld	s5,24(sp)
 100321a:	6161                	addi	sp,sp,80
 100321c:	8082                	ret
 100321e:	1101                	addi	sp,sp,-32
 1003220:	e822                	sd	s0,16(sp)
 1003222:	e426                	sd	s1,8(sp)
 1003224:	ec06                	sd	ra,24(sp)
 1003226:	4558                	lw	a4,12(a0)
 1003228:	84b2                	mv	s1,a2
 100322a:	00ff0637          	lui	a2,0xff0
 100322e:	0187569b          	srliw	a3,a4,0x18
 1003232:	0187179b          	slliw	a5,a4,0x18
 1003236:	8fd5                	or	a5,a5,a3
 1003238:	0087169b          	slliw	a3,a4,0x8
 100323c:	8ef1                	and	a3,a3,a2
 100323e:	8fd5                	or	a5,a5,a3
 1003240:	66c1                	lui	a3,0x10
 1003242:	0087571b          	srliw	a4,a4,0x8
 1003246:	f0068693          	addi	a3,a3,-256 # ff00 <_start-0xff0100>
 100324a:	8f75                	and	a4,a4,a3
 100324c:	8fd9                	or	a5,a5,a4
 100324e:	1782                	slli	a5,a5,0x20
 1003250:	9381                	srli	a5,a5,0x20
 1003252:	97ae                	add	a5,a5,a1
 1003254:	00f50433          	add	s0,a0,a5
 1003258:	c489                	beqz	s1,1003262 <__spl_start+0x2b7a>
 100325a:	8522                	mv	a0,s0
 100325c:	14c010ef          	jal	ra,10043a8 <__spl_start+0x3cc0>
 1003260:	c088                	sw	a0,0(s1)
 1003262:	60e2                	ld	ra,24(sp)
 1003264:	8522                	mv	a0,s0
 1003266:	6442                	ld	s0,16(sp)
 1003268:	64a2                	ld	s1,8(sp)
 100326a:	6105                	addi	sp,sp,32
 100326c:	8082                	ret
 100326e:	1101                	addi	sp,sp,-32
 1003270:	e822                	sd	s0,16(sp)
 1003272:	e426                	sd	s1,8(sp)
 1003274:	ec06                	sd	ra,24(sp)
 1003276:	84b2                	mv	s1,a2
 1003278:	8436                	mv	s0,a3
 100327a:	ec7ff0ef          	jal	ra,1003140 <__spl_start+0x2a58>
 100327e:	6118                	ld	a4,0(a0)
 1003280:	00ff0837          	lui	a6,0xff0
 1003284:	65c1                	lui	a1,0x10
 1003286:	0187561b          	srliw	a2,a4,0x18
 100328a:	0187179b          	slliw	a5,a4,0x18
 100328e:	8fd1                	or	a5,a5,a2
 1003290:	0087161b          	slliw	a2,a4,0x8
 1003294:	42075693          	srai	a3,a4,0x20
 1003298:	f0058593          	addi	a1,a1,-256 # ff00 <_start-0xff0100>
 100329c:	01067633          	and	a2,a2,a6
 10032a0:	0087571b          	srliw	a4,a4,0x8
 10032a4:	8fd1                	or	a5,a5,a2
 10032a6:	8f6d                	and	a4,a4,a1
 10032a8:	0186d61b          	srliw	a2,a3,0x18
 10032ac:	8fd9                	or	a5,a5,a4
 10032ae:	0186971b          	slliw	a4,a3,0x18
 10032b2:	8f51                	or	a4,a4,a2
 10032b4:	0086961b          	slliw	a2,a3,0x8
 10032b8:	01067633          	and	a2,a2,a6
 10032bc:	0086d69b          	srliw	a3,a3,0x8
 10032c0:	8f51                	or	a4,a4,a2
 10032c2:	8eed                	and	a3,a3,a1
 10032c4:	8f55                	or	a4,a4,a3
 10032c6:	1702                	slli	a4,a4,0x20
 10032c8:	9301                	srli	a4,a4,0x20
 10032ca:	1782                	slli	a5,a5,0x20
 10032cc:	8fd9                	or	a5,a5,a4
 10032ce:	e09c                	sd	a5,0(s1)
 10032d0:	6518                	ld	a4,8(a0)
 10032d2:	60e2                	ld	ra,24(sp)
 10032d4:	64a2                	ld	s1,8(sp)
 10032d6:	0187561b          	srliw	a2,a4,0x18
 10032da:	0187179b          	slliw	a5,a4,0x18
 10032de:	8fd1                	or	a5,a5,a2
 10032e0:	0087161b          	slliw	a2,a4,0x8
 10032e4:	42075693          	srai	a3,a4,0x20
 10032e8:	01067633          	and	a2,a2,a6
 10032ec:	0087571b          	srliw	a4,a4,0x8
 10032f0:	8fd1                	or	a5,a5,a2
 10032f2:	8f6d                	and	a4,a4,a1
 10032f4:	0186d61b          	srliw	a2,a3,0x18
 10032f8:	8fd9                	or	a5,a5,a4
 10032fa:	0186971b          	slliw	a4,a3,0x18
 10032fe:	8f51                	or	a4,a4,a2
 1003300:	0086961b          	slliw	a2,a3,0x8
 1003304:	01067633          	and	a2,a2,a6
 1003308:	0086d69b          	srliw	a3,a3,0x8
 100330c:	8f51                	or	a4,a4,a2
 100330e:	8eed                	and	a3,a3,a1
 1003310:	8f55                	or	a4,a4,a3
 1003312:	1702                	slli	a4,a4,0x20
 1003314:	1782                	slli	a5,a5,0x20
 1003316:	9301                	srli	a4,a4,0x20
 1003318:	8fd9                	or	a5,a5,a4
 100331a:	e01c                	sd	a5,0(s0)
 100331c:	6442                	ld	s0,16(sp)
 100331e:	4501                	li	a0,0
 1003320:	6105                	addi	sp,sp,32
 1003322:	8082                	ret
 1003324:	7179                	addi	sp,sp,-48
 1003326:	ec26                	sd	s1,24(sp)
 1003328:	64c1                	lui	s1,0x10
 100332a:	f022                	sd	s0,32(sp)
 100332c:	e84a                	sd	s2,16(sp)
 100332e:	e44e                	sd	s3,8(sp)
 1003330:	f406                	sd	ra,40(sp)
 1003332:	892a                	mv	s2,a0
 1003334:	4401                	li	s0,0
 1003336:	00ff09b7          	lui	s3,0xff0
 100333a:	f0048493          	addi	s1,s1,-256 # ff00 <_start-0xff0100>
 100333e:	85a2                	mv	a1,s0
 1003340:	854a                	mv	a0,s2
 1003342:	dffff0ef          	jal	ra,1003140 <__spl_start+0x2a58>
 1003346:	e911                	bnez	a0,100335a <__spl_start+0x2c72>
 1003348:	5461                	li	s0,-8
 100334a:	70a2                	ld	ra,40(sp)
 100334c:	8522                	mv	a0,s0
 100334e:	7402                	ld	s0,32(sp)
 1003350:	64e2                	ld	s1,24(sp)
 1003352:	6942                	ld	s2,16(sp)
 1003354:	69a2                	ld	s3,8(sp)
 1003356:	6145                	addi	sp,sp,48
 1003358:	8082                	ret
 100335a:	6518                	ld	a4,8(a0)
 100335c:	0187561b          	srliw	a2,a4,0x18
 1003360:	0187179b          	slliw	a5,a4,0x18
 1003364:	8fd1                	or	a5,a5,a2
 1003366:	0087161b          	slliw	a2,a4,0x8
 100336a:	42075693          	srai	a3,a4,0x20
 100336e:	01367633          	and	a2,a2,s3
 1003372:	0087571b          	srliw	a4,a4,0x8
 1003376:	8fd1                	or	a5,a5,a2
 1003378:	8f65                	and	a4,a4,s1
 100337a:	0186d61b          	srliw	a2,a3,0x18
 100337e:	8fd9                	or	a5,a5,a4
 1003380:	0186971b          	slliw	a4,a3,0x18
 1003384:	8f51                	or	a4,a4,a2
 1003386:	0086961b          	slliw	a2,a3,0x8
 100338a:	01367633          	and	a2,a2,s3
 100338e:	0086d69b          	srliw	a3,a3,0x8
 1003392:	8f51                	or	a4,a4,a2
 1003394:	8ee5                	and	a3,a3,s1
 1003396:	8f55                	or	a4,a4,a3
 1003398:	1702                	slli	a4,a4,0x20
 100339a:	1782                	slli	a5,a5,0x20
 100339c:	9301                	srli	a4,a4,0x20
 100339e:	8fd9                	or	a5,a5,a4
 10033a0:	d7cd                	beqz	a5,100334a <__spl_start+0x2c62>
 10033a2:	2405                	addiw	s0,s0,1
 10033a4:	bf69                	j	100333e <__spl_start+0x2c56>
 10033a6:	1101                	addi	sp,sp,-32
 10033a8:	e822                	sd	s0,16(sp)
 10033aa:	e426                	sd	s1,8(sp)
 10033ac:	ec06                	sd	ra,24(sp)
 10033ae:	4518                	lw	a4,8(a0)
 10033b0:	84b2                	mv	s1,a2
 10033b2:	00ff0637          	lui	a2,0xff0
 10033b6:	0187569b          	srliw	a3,a4,0x18
 10033ba:	0187179b          	slliw	a5,a4,0x18
 10033be:	8fd5                	or	a5,a5,a3
 10033c0:	0087169b          	slliw	a3,a4,0x8
 10033c4:	8ef1                	and	a3,a3,a2
 10033c6:	8fd5                	or	a5,a5,a3
 10033c8:	66c1                	lui	a3,0x10
 10033ca:	0087571b          	srliw	a4,a4,0x8
 10033ce:	f0068693          	addi	a3,a3,-256 # ff00 <_start-0xff0100>
 10033d2:	8f75                	and	a4,a4,a3
 10033d4:	8fd9                	or	a5,a5,a4
 10033d6:	1782                	slli	a5,a5,0x20
 10033d8:	9381                	srli	a5,a5,0x20
 10033da:	97ae                	add	a5,a5,a1
 10033dc:	953e                	add	a0,a0,a5
 10033de:	00450413          	addi	s0,a0,4
 10033e2:	c489                	beqz	s1,10033ec <__spl_start+0x2d04>
 10033e4:	8522                	mv	a0,s0
 10033e6:	7c3000ef          	jal	ra,10043a8 <__spl_start+0x3cc0>
 10033ea:	c088                	sw	a0,0(s1)
 10033ec:	60e2                	ld	ra,24(sp)
 10033ee:	8522                	mv	a0,s0
 10033f0:	6442                	ld	s0,16(sp)
 10033f2:	64a2                	ld	s1,8(sp)
 10033f4:	6105                	addi	sp,sp,32
 10033f6:	8082                	ret
 10033f8:	711d                	addi	sp,sp,-96
 10033fa:	e8a2                	sd	s0,80(sp)
 10033fc:	e0ca                	sd	s2,64(sp)
 10033fe:	fc4e                	sd	s3,56(sp)
 1003400:	f852                	sd	s4,48(sp)
 1003402:	f456                	sd	s5,40(sp)
 1003404:	f05a                	sd	s6,32(sp)
 1003406:	ec5e                	sd	s7,24(sp)
 1003408:	ec86                	sd	ra,88(sp)
 100340a:	e4a6                	sd	s1,72(sp)
 100340c:	89aa                	mv	s3,a0
 100340e:	8a32                	mv	s4,a2
 1003410:	8936                	mv	s2,a3
 1003412:	c402                	sw	zero,8(sp)
 1003414:	842e                	mv	s0,a1
 1003416:	4a85                	li	s5,1
 1003418:	00c10b13          	addi	s6,sp,12
 100341c:	00810b93          	addi	s7,sp,8
 1003420:	47a2                	lw	a5,8(sp)
 1003422:	04044c63          	bltz	s0,100347a <__spl_start+0x2d92>
 1003426:	0007d463          	bgez	a5,100342e <__spl_start+0x2d46>
 100342a:	547d                	li	s0,-1
 100342c:	a889                	j	100347e <__spl_start+0x2d96>
 100342e:	03579f63          	bne	a5,s5,100346c <__spl_start+0x2d84>
 1003432:	865a                	mv	a2,s6
 1003434:	85a2                	mv	a1,s0
 1003436:	854e                	mv	a0,s3
 1003438:	f6fff0ef          	jal	ra,10033a6 <__spl_start+0x2cbe>
 100343c:	84aa                	mv	s1,a0
 100343e:	c51d                	beqz	a0,100346c <__spl_start+0x2d84>
 1003440:	864a                	mv	a2,s2
 1003442:	85d2                	mv	a1,s4
 1003444:	78f000ef          	jal	ra,10043d2 <__spl_start+0x3cea>
 1003448:	e115                	bnez	a0,100346c <__spl_start+0x2d84>
 100344a:	94ca                	add	s1,s1,s2
 100344c:	0004c783          	lbu	a5,0(s1)
 1003450:	c79d                	beqz	a5,100347e <__spl_start+0x2d96>
 1003452:	864a                	mv	a2,s2
 1003454:	04000593          	li	a1,64
 1003458:	8552                	mv	a0,s4
 100345a:	79f000ef          	jal	ra,10043f8 <__spl_start+0x3d10>
 100345e:	e519                	bnez	a0,100346c <__spl_start+0x2d84>
 1003460:	0004c703          	lbu	a4,0(s1)
 1003464:	04000793          	li	a5,64
 1003468:	00f70b63          	beq	a4,a5,100347e <__spl_start+0x2d96>
 100346c:	85a2                	mv	a1,s0
 100346e:	865e                	mv	a2,s7
 1003470:	854e                	mv	a0,s3
 1003472:	b95ff0ef          	jal	ra,1003006 <__spl_start+0x291e>
 1003476:	842a                	mv	s0,a0
 1003478:	b765                	j	1003420 <__spl_start+0x2d38>
 100347a:	fa07c8e3          	bltz	a5,100342a <__spl_start+0x2d42>
 100347e:	60e6                	ld	ra,88(sp)
 1003480:	8522                	mv	a0,s0
 1003482:	6446                	ld	s0,80(sp)
 1003484:	64a6                	ld	s1,72(sp)
 1003486:	6906                	ld	s2,64(sp)
 1003488:	79e2                	ld	s3,56(sp)
 100348a:	7a42                	ld	s4,48(sp)
 100348c:	7aa2                	ld	s5,40(sp)
 100348e:	7b02                	ld	s6,32(sp)
 1003490:	6be2                	ld	s7,24(sp)
 1003492:	6125                	addi	sp,sp,96
 1003494:	8082                	ret
 1003496:	1101                	addi	sp,sp,-32
 1003498:	e822                	sd	s0,16(sp)
 100349a:	842a                	mv	s0,a0
 100349c:	8532                	mv	a0,a2
 100349e:	ec06                	sd	ra,24(sp)
 10034a0:	e42e                	sd	a1,8(sp)
 10034a2:	e032                	sd	a2,0(sp)
 10034a4:	705000ef          	jal	ra,10043a8 <__spl_start+0x3cc0>
 10034a8:	0005069b          	sext.w	a3,a0
 10034ac:	8522                	mv	a0,s0
 10034ae:	6442                	ld	s0,16(sp)
 10034b0:	6602                	ld	a2,0(sp)
 10034b2:	65a2                	ld	a1,8(sp)
 10034b4:	60e2                	ld	ra,24(sp)
 10034b6:	6105                	addi	sp,sp,32
 10034b8:	b781                	j	10033f8 <__spl_start+0x2d10>
 10034ba:	1141                	addi	sp,sp,-16
 10034bc:	e022                	sd	s0,0(sp)
 10034be:	e406                	sd	ra,8(sp)
 10034c0:	842a                	mv	s0,a0
 10034c2:	af1ff0ef          	jal	ra,1002fb2 <__spl_start+0x28ca>
 10034c6:	00054863          	bltz	a0,10034d6 <__spl_start+0x2dee>
 10034ca:	85aa                	mv	a1,a0
 10034cc:	8522                	mv	a0,s0
 10034ce:	6402                	ld	s0,0(sp)
 10034d0:	60a2                	ld	ra,8(sp)
 10034d2:	0141                	addi	sp,sp,16
 10034d4:	b9cd                	j	10031c6 <__spl_start+0x2ade>
 10034d6:	60a2                	ld	ra,8(sp)
 10034d8:	6402                	ld	s0,0(sp)
 10034da:	0141                	addi	sp,sp,16
 10034dc:	8082                	ret
 10034de:	1141                	addi	sp,sp,-16
 10034e0:	e022                	sd	s0,0(sp)
 10034e2:	e406                	sd	ra,8(sp)
 10034e4:	842a                	mv	s0,a0
 10034e6:	af7ff0ef          	jal	ra,1002fdc <__spl_start+0x28f4>
 10034ea:	00054863          	bltz	a0,10034fa <__spl_start+0x2e12>
 10034ee:	85aa                	mv	a1,a0
 10034f0:	8522                	mv	a0,s0
 10034f2:	6402                	ld	s0,0(sp)
 10034f4:	60a2                	ld	ra,8(sp)
 10034f6:	0141                	addi	sp,sp,16
 10034f8:	b1f9                	j	10031c6 <__spl_start+0x2ade>
 10034fa:	60a2                	ld	ra,8(sp)
 10034fc:	6402                	ld	s0,0(sp)
 10034fe:	0141                	addi	sp,sp,16
 1003500:	8082                	ret
 1003502:	7159                	addi	sp,sp,-112
 1003504:	f0a2                	sd	s0,96(sp)
 1003506:	eca6                	sd	s1,88(sp)
 1003508:	e8ca                	sd	s2,80(sp)
 100350a:	e4ce                	sd	s3,72(sp)
 100350c:	e0d2                	sd	s4,64(sp)
 100350e:	fc56                	sd	s5,56(sp)
 1003510:	f85a                	sd	s6,48(sp)
 1003512:	f45e                	sd	s7,40(sp)
 1003514:	f062                	sd	s8,32(sp)
 1003516:	f486                	sd	ra,104(sp)
 1003518:	ec66                	sd	s9,24(sp)
 100351a:	892a                	mv	s2,a0
 100351c:	8ab2                	mv	s5,a2
 100351e:	89b6                	mv	s3,a3
 1003520:	84ba                	mv	s1,a4
 1003522:	8a3e                	mv	s4,a5
 1003524:	6b41                	lui	s6,0x10
 1003526:	f95ff0ef          	jal	ra,10034ba <__spl_start+0x2dd2>
 100352a:	842a                	mv	s0,a0
 100352c:	00c10b93          	addi	s7,sp,12
 1003530:	00ff0c37          	lui	s8,0xff0
 1003534:	f00b0b13          	addi	s6,s6,-256 # ff00 <_start-0xff0100>
 1003538:	00045663          	bgez	s0,1003544 <__spl_start+0x2e5c>
 100353c:	4c81                	li	s9,0
 100353e:	c0bd                	beqz	s1,10035a4 <__spl_start+0x2ebc>
 1003540:	c080                	sw	s0,0(s1)
 1003542:	a08d                	j	10035a4 <__spl_start+0x2ebc>
 1003544:	8626                	mv	a2,s1
 1003546:	85a2                	mv	a1,s0
 1003548:	854a                	mv	a0,s2
 100354a:	c29ff0ef          	jal	ra,1003172 <__spl_start+0x2a8a>
 100354e:	00852803          	lw	a6,8(a0)
 1003552:	8caa                	mv	s9,a0
 1003554:	865e                	mv	a2,s7
 1003556:	0188579b          	srliw	a5,a6,0x18
 100355a:	0188159b          	slliw	a1,a6,0x18
 100355e:	8ddd                	or	a1,a1,a5
 1003560:	0088179b          	slliw	a5,a6,0x8
 1003564:	0187f7b3          	and	a5,a5,s8
 1003568:	0088581b          	srliw	a6,a6,0x8
 100356c:	8ddd                	or	a1,a1,a5
 100356e:	01687833          	and	a6,a6,s6
 1003572:	0105e5b3          	or	a1,a1,a6
 1003576:	2581                	sext.w	a1,a1
 1003578:	854a                	mv	a0,s2
 100357a:	ca5ff0ef          	jal	ra,100321e <__spl_start+0x2b36>
 100357e:	e519                	bnez	a0,100358c <__spl_start+0x2ea4>
 1003580:	85a2                	mv	a1,s0
 1003582:	854a                	mv	a0,s2
 1003584:	f5bff0ef          	jal	ra,10034de <__spl_start+0x2df6>
 1003588:	842a                	mv	s0,a0
 100358a:	b77d                	j	1003538 <__spl_start+0x2e50>
 100358c:	47b2                	lw	a5,12(sp)
 100358e:	ff3799e3          	bne	a5,s3,1003580 <__spl_start+0x2e98>
 1003592:	864e                	mv	a2,s3
 1003594:	85d6                	mv	a1,s5
 1003596:	63d000ef          	jal	ra,10043d2 <__spl_start+0x3cea>
 100359a:	f17d                	bnez	a0,1003580 <__spl_start+0x2e98>
 100359c:	000a0463          	beqz	s4,10035a4 <__spl_start+0x2ebc>
 10035a0:	008a2023          	sw	s0,0(s4)
 10035a4:	70a6                	ld	ra,104(sp)
 10035a6:	7406                	ld	s0,96(sp)
 10035a8:	64e6                	ld	s1,88(sp)
 10035aa:	6946                	ld	s2,80(sp)
 10035ac:	69a6                	ld	s3,72(sp)
 10035ae:	6a06                	ld	s4,64(sp)
 10035b0:	7ae2                	ld	s5,56(sp)
 10035b2:	7b42                	ld	s6,48(sp)
 10035b4:	7ba2                	ld	s7,40(sp)
 10035b6:	7c02                	ld	s8,32(sp)
 10035b8:	8566                	mv	a0,s9
 10035ba:	6ce2                	ld	s9,24(sp)
 10035bc:	6165                	addi	sp,sp,112
 10035be:	8082                	ret
 10035c0:	4781                	li	a5,0
 10035c2:	b781                	j	1003502 <__spl_start+0x2e1a>
 10035c4:	7179                	addi	sp,sp,-48
 10035c6:	f022                	sd	s0,32(sp)
 10035c8:	842a                	mv	s0,a0
 10035ca:	8532                	mv	a0,a2
 10035cc:	f406                	sd	ra,40(sp)
 10035ce:	ec2e                	sd	a1,24(sp)
 10035d0:	e836                	sd	a3,16(sp)
 10035d2:	e432                	sd	a2,8(sp)
 10035d4:	5d5000ef          	jal	ra,10043a8 <__spl_start+0x3cc0>
 10035d8:	0005069b          	sext.w	a3,a0
 10035dc:	8522                	mv	a0,s0
 10035de:	7402                	ld	s0,32(sp)
 10035e0:	6742                	ld	a4,16(sp)
 10035e2:	6622                	ld	a2,8(sp)
 10035e4:	65e2                	ld	a1,24(sp)
 10035e6:	70a2                	ld	ra,40(sp)
 10035e8:	6145                	addi	sp,sp,48
 10035ea:	bfd9                	j	10035c0 <__spl_start+0x2ed8>
 10035ec:	1101                	addi	sp,sp,-32
 10035ee:	007c                	addi	a5,sp,12
 10035f0:	ec06                	sd	ra,24(sp)
 10035f2:	f11ff0ef          	jal	ra,1003502 <__spl_start+0x2e1a>
 10035f6:	c111                	beqz	a0,10035fa <__spl_start+0x2f12>
 10035f8:	0531                	addi	a0,a0,12
 10035fa:	60e2                	ld	ra,24(sp)
 10035fc:	6105                	addi	sp,sp,32
 10035fe:	8082                	ret
 1003600:	7179                	addi	sp,sp,-48
 1003602:	f022                	sd	s0,32(sp)
 1003604:	842a                	mv	s0,a0
 1003606:	8532                	mv	a0,a2
 1003608:	f406                	sd	ra,40(sp)
 100360a:	ec2e                	sd	a1,24(sp)
 100360c:	e836                	sd	a3,16(sp)
 100360e:	e432                	sd	a2,8(sp)
 1003610:	599000ef          	jal	ra,10043a8 <__spl_start+0x3cc0>
 1003614:	0005069b          	sext.w	a3,a0
 1003618:	8522                	mv	a0,s0
 100361a:	7402                	ld	s0,32(sp)
 100361c:	6742                	ld	a4,16(sp)
 100361e:	6622                	ld	a2,8(sp)
 1003620:	65e2                	ld	a1,24(sp)
 1003622:	70a2                	ld	ra,40(sp)
 1003624:	6145                	addi	sp,sp,48
 1003626:	b7d9                	j	10035ec <__spl_start+0x2f04>
 1003628:	7179                	addi	sp,sp,-48
 100362a:	ec26                	sd	s1,24(sp)
 100362c:	84ae                	mv	s1,a1
 100362e:	00005597          	auipc	a1,0x5
 1003632:	82a58593          	addi	a1,a1,-2006 # 1007e58 <__spl_start+0x7770>
 1003636:	f022                	sd	s0,32(sp)
 1003638:	f406                	sd	ra,40(sp)
 100363a:	842a                	mv	s0,a0
 100363c:	e432                	sd	a2,8(sp)
 100363e:	0d2000ef          	jal	ra,1003710 <__spl_start+0x3028>
 1003642:	00054c63          	bltz	a0,100365a <__spl_start+0x2f72>
 1003646:	85aa                	mv	a1,a0
 1003648:	8522                	mv	a0,s0
 100364a:	7402                	ld	s0,32(sp)
 100364c:	66a2                	ld	a3,8(sp)
 100364e:	70a2                	ld	ra,40(sp)
 1003650:	8626                	mv	a2,s1
 1003652:	64e2                	ld	s1,24(sp)
 1003654:	4701                	li	a4,0
 1003656:	6145                	addi	sp,sp,48
 1003658:	bf51                	j	10035ec <__spl_start+0x2f04>
 100365a:	70a2                	ld	ra,40(sp)
 100365c:	7402                	ld	s0,32(sp)
 100365e:	64e2                	ld	s1,24(sp)
 1003660:	4501                	li	a0,0
 1003662:	6145                	addi	sp,sp,48
 1003664:	8082                	ret
 1003666:	7139                	addi	sp,sp,-64
 1003668:	f822                	sd	s0,48(sp)
 100366a:	f426                	sd	s1,40(sp)
 100366c:	ec4e                	sd	s3,24(sp)
 100366e:	e852                	sd	s4,16(sp)
 1003670:	fc06                	sd	ra,56(sp)
 1003672:	f04a                	sd	s2,32(sp)
 1003674:	e456                	sd	s5,8(sp)
 1003676:	0005c703          	lbu	a4,0(a1)
 100367a:	02f00793          	li	a5,47
 100367e:	8a2a                	mv	s4,a0
 1003680:	842e                	mv	s0,a1
 1003682:	00c589b3          	add	s3,a1,a2
 1003686:	4481                	li	s1,0
 1003688:	02f70863          	beq	a4,a5,10036b8 <__spl_start+0x2fd0>
 100368c:	02f00593          	li	a1,47
 1003690:	8522                	mv	a0,s0
 1003692:	567000ef          	jal	ra,10043f8 <__spl_start+0x3d10>
 1003696:	892a                	mv	s2,a0
 1003698:	e111                	bnez	a0,100369c <__spl_start+0x2fb4>
 100369a:	894e                	mv	s2,s3
 100369c:	85a2                	mv	a1,s0
 100369e:	4089063b          	subw	a2,s2,s0
 10036a2:	8552                	mv	a0,s4
 10036a4:	f85ff0ef          	jal	ra,1003628 <__spl_start+0x2f40>
 10036a8:	85aa                	mv	a1,a0
 10036aa:	54ed                	li	s1,-5
 10036ac:	cd01                	beqz	a0,10036c4 <__spl_start+0x2fdc>
 10036ae:	8552                	mv	a0,s4
 10036b0:	060000ef          	jal	ra,1003710 <__spl_start+0x3028>
 10036b4:	84aa                	mv	s1,a0
 10036b6:	844a                	mv	s0,s2
 10036b8:	02f00a93          	li	s5,47
 10036bc:	a0b9                	j	100370a <__spl_start+0x3022>
 10036be:	0905                	addi	s2,s2,1
 10036c0:	01299d63          	bne	s3,s2,10036da <__spl_start+0x2ff2>
 10036c4:	70e2                	ld	ra,56(sp)
 10036c6:	7442                	ld	s0,48(sp)
 10036c8:	7902                	ld	s2,32(sp)
 10036ca:	69e2                	ld	s3,24(sp)
 10036cc:	6a42                	ld	s4,16(sp)
 10036ce:	6aa2                	ld	s5,8(sp)
 10036d0:	8526                	mv	a0,s1
 10036d2:	74a2                	ld	s1,40(sp)
 10036d4:	6121                	addi	sp,sp,64
 10036d6:	8082                	ret
 10036d8:	8922                	mv	s2,s0
 10036da:	00094783          	lbu	a5,0(s2)
 10036de:	ff5780e3          	beq	a5,s5,10036be <__spl_start+0x2fd6>
 10036e2:	41298633          	sub	a2,s3,s2
 10036e6:	02f00593          	li	a1,47
 10036ea:	854a                	mv	a0,s2
 10036ec:	50d000ef          	jal	ra,10043f8 <__spl_start+0x3d10>
 10036f0:	842a                	mv	s0,a0
 10036f2:	e111                	bnez	a0,10036f6 <__spl_start+0x300e>
 10036f4:	844e                	mv	s0,s3
 10036f6:	85a6                	mv	a1,s1
 10036f8:	412406bb          	subw	a3,s0,s2
 10036fc:	864a                	mv	a2,s2
 10036fe:	8552                	mv	a0,s4
 1003700:	cf9ff0ef          	jal	ra,10033f8 <__spl_start+0x2d10>
 1003704:	84aa                	mv	s1,a0
 1003706:	fa054fe3          	bltz	a0,10036c4 <__spl_start+0x2fdc>
 100370a:	fd3467e3          	bltu	s0,s3,10036d8 <__spl_start+0x2ff0>
 100370e:	bf5d                	j	10036c4 <__spl_start+0x2fdc>
 1003710:	1101                	addi	sp,sp,-32
 1003712:	e822                	sd	s0,16(sp)
 1003714:	842a                	mv	s0,a0
 1003716:	852e                	mv	a0,a1
 1003718:	ec06                	sd	ra,24(sp)
 100371a:	e42e                	sd	a1,8(sp)
 100371c:	48d000ef          	jal	ra,10043a8 <__spl_start+0x3cc0>
 1003720:	0005061b          	sext.w	a2,a0
 1003724:	8522                	mv	a0,s0
 1003726:	6442                	ld	s0,16(sp)
 1003728:	65a2                	ld	a1,8(sp)
 100372a:	60e2                	ld	ra,24(sp)
 100372c:	6105                	addi	sp,sp,32
 100372e:	bf25                	j	1003666 <__spl_start+0x2f7e>
 1003730:	87aa                	mv	a5,a0
 1003732:	02a04d63          	bgtz	a0,100376c <__spl_start+0x3084>
 1003736:	00004517          	auipc	a0,0x4
 100373a:	77a50513          	addi	a0,a0,1914 # 1007eb0 <__spl_start+0x77c8>
 100373e:	cb9d                	beqz	a5,1003774 <__spl_start+0x308c>
 1003740:	5739                	li	a4,-18
 1003742:	00004517          	auipc	a0,0x4
 1003746:	77e50513          	addi	a0,a0,1918 # 1007ec0 <__spl_start+0x77d8>
 100374a:	02e7c563          	blt	a5,a4,1003774 <__spl_start+0x308c>
 100374e:	40f007bb          	negw	a5,a5
 1003752:	078e                	slli	a5,a5,0x3
 1003754:	00008717          	auipc	a4,0x8
 1003758:	88470713          	addi	a4,a4,-1916 # 100afd8 <__spl_start+0xa8f0>
 100375c:	97ba                	add	a5,a5,a4
 100375e:	6388                	ld	a0,0(a5)
 1003760:	e911                	bnez	a0,1003774 <__spl_start+0x308c>
 1003762:	00004517          	auipc	a0,0x4
 1003766:	75e50513          	addi	a0,a0,1886 # 1007ec0 <__spl_start+0x77d8>
 100376a:	8082                	ret
 100376c:	00004517          	auipc	a0,0x4
 1003770:	72c50513          	addi	a0,a0,1836 # 1007e98 <__spl_start+0x77b0>
 1003774:	8082                	ret
 1003776:	00c52883          	lw	a7,12(a0)
 100377a:	02052803          	lw	a6,32(a0)
 100377e:	832e                	mv	t1,a1
 1003780:	0188979b          	slliw	a5,a7,0x18
 1003784:	0188d59b          	srliw	a1,a7,0x18
 1003788:	8fcd                	or	a5,a5,a1
 100378a:	00ff0f37          	lui	t5,0xff0
 100378e:	0088959b          	slliw	a1,a7,0x8
 1003792:	01e5f5b3          	and	a1,a1,t5
 1003796:	872a                	mv	a4,a0
 1003798:	8fcd                	or	a5,a5,a1
 100379a:	0188551b          	srliw	a0,a6,0x18
 100379e:	0188159b          	slliw	a1,a6,0x18
 10037a2:	8dc9                	or	a1,a1,a0
 10037a4:	6e41                	lui	t3,0x10
 10037a6:	0088151b          	slliw	a0,a6,0x8
 10037aa:	f00e0e13          	addi	t3,t3,-256 # ff00 <_start-0xff0100>
 10037ae:	0088d89b          	srliw	a7,a7,0x8
 10037b2:	01e57533          	and	a0,a0,t5
 10037b6:	0088581b          	srliw	a6,a6,0x8
 10037ba:	01c8f8b3          	and	a7,a7,t3
 10037be:	8dc9                	or	a1,a1,a0
 10037c0:	01c87833          	and	a6,a6,t3
 10037c4:	0117e7b3          	or	a5,a5,a7
 10037c8:	0105e5b3          	or	a1,a1,a6
 10037cc:	9fad                	addw	a5,a5,a1
 10037ce:	97ba                	add	a5,a5,a4
 10037d0:	06064763          	bltz	a2,100383e <__spl_start+0x3156>
 10037d4:	00c305b3          	add	a1,t1,a2
 10037d8:	5571                	li	a0,-4
 10037da:	06b7e463          	bltu	a5,a1,1003842 <__spl_start+0x315a>
 10037de:	06e36263          	bltu	t1,a4,1003842 <__spl_start+0x315a>
 10037e2:	40c68eb3          	sub	t4,a3,a2
 10037e6:	9ebe                	add	t4,t4,a5
 10037e8:	04eeed63          	bltu	t4,a4,1003842 <__spl_start+0x315a>
 10037ec:	00472883          	lw	a7,4(a4)
 10037f0:	0188d51b          	srliw	a0,a7,0x18
 10037f4:	0188981b          	slliw	a6,a7,0x18
 10037f8:	00a86833          	or	a6,a6,a0
 10037fc:	0088951b          	slliw	a0,a7,0x8
 1003800:	01e57533          	and	a0,a0,t5
 1003804:	0088d89b          	srliw	a7,a7,0x8
 1003808:	00a86833          	or	a6,a6,a0
 100380c:	01c8f8b3          	and	a7,a7,t3
 1003810:	01186833          	or	a6,a6,a7
 1003814:	1802                	slli	a6,a6,0x20
 1003816:	02085813          	srli	a6,a6,0x20
 100381a:	9742                	add	a4,a4,a6
 100381c:	5575                	li	a0,-3
 100381e:	03d76263          	bltu	a4,t4,1003842 <__spl_start+0x315a>
 1003822:	406787b3          	sub	a5,a5,t1
 1003826:	1141                	addi	sp,sp,-16
 1003828:	40c78633          	sub	a2,a5,a2
 100382c:	00d30533          	add	a0,t1,a3
